 familyTree

 Timestamp is 5a27d252 (Wed Dec  6 19:19:46 2017)

 Preferred load address is 0000000180000000

 Start         Length     Name                   Class
 0001:00000000 00000130H .text$di                CODE
 0001:00000130 00020c90H .text$mn                CODE
 0001:00020dc0 00000020H .text$mn$00             CODE
 0001:00020de0 00000560H .text$x                 CODE
 0001:00021340 000001e4H .text$yd                CODE
 0002:00000000 000002a8H .idata$5                DATA
 0002:000002a8 00000010H .00cfg                  DATA
 0002:000002b8 00000008H .CRT$XCA                DATA
 0002:000002c0 00000038H .CRT$XCC                DATA
 0002:000002f8 00000010H .CRT$XCL                DATA
 0002:00000308 00000010H .CRT$XCU                DATA
 0002:00000318 00000008H .CRT$XCZ                DATA
 0002:00000320 00000008H .CRT$XIA                DATA
 0002:00000328 00000030H .CRT$XIC                DATA
 0002:00000358 00000008H .CRT$XIZ                DATA
 0002:00000360 00000008H .CRT$XLA                DATA
 0002:00000368 00000008H .CRT$XLZ                DATA
 0002:00000370 00000008H .CRT$XPA                DATA
 0002:00000378 00000010H .CRT$XPX                DATA
 0002:00000388 00000008H .CRT$XPXA               DATA
 0002:00000390 00000008H .CRT$XPZ                DATA
 0002:00000398 00000008H .CRT$XTA                DATA
 0002:000003a0 00000010H .CRT$XTZ                DATA
 0002:000003b0 0000f118H .rdata                  DATA
 0002:0000f4c8 00000028H .rdata$T                DATA
 0002:0000f4f0 00000f44H .rdata$r                DATA
 0002:00010434 000004bcH .rdata$zzzdbg           DATA
 0002:000108f0 00000008H .rtc$IAA                DATA
 0002:000108f8 00000008H .rtc$IZZ                DATA
 0002:00010900 00000008H .rtc$TAA                DATA
 0002:00010908 00000008H .rtc$TZZ                DATA
 0002:00010910 00001ee0H .xdata                  DATA
 0002:000127f0 00000304H .xdata$x                DATA
 0002:00012af4 00000020H .didat$2                DATA
 0002:00012b14 00000024H .didat$3                DATA
 0002:00012b38 00000088H .didat$4                DATA
 0002:00012bc0 00000398H .didat$6                DATA
 0002:00012f58 00000088H .didat$7                DATA
 0002:00012fe0 00000058H .edata                  DATA
 0002:00013038 00000014H .idata$2                DATA
 0002:0001304c 00000014H .idata$3                DATA
 0002:00013060 000002a8H .idata$4                DATA
 0002:00013308 0000061aH .idata$6                DATA
 0003:00000000 00000ba0H .data                   DATA
 0003:00000ba0 00000590H .data$r                 DATA
 0003:00001130 00000090H .didat$5                DATA
 0003:000011c0 00001984H .bss                    DATA
 0004:00000000 00001f5cH .pdata                  DATA
 0005:00000000 000000b4H .gfids$x                DATA
 0005:000000b4 000001ecH .gfids$y                DATA
 0006:00000000 00000004H .tls                    DATA
 0006:00000004 00000004H .tls$                   DATA
 0006:00000008 00000001H .tls$ZZZ                DATA
 0007:00000000 00000060H .rsrc$01                DATA
 0007:00000060 00000180H .rsrc$02                DATA

  Address         Publics by Value              Rva+Base               Lib:Object

 0000:00000000       __guard_iat_count          0000000000000000     <absolute>
 0000:00000000       __dynamic_value_reloc_table 0000000000000000     <absolute>
 0000:00000000       __guard_iat_table          0000000000000000     <absolute>
 0000:00000000       __guard_longjmp_table      0000000000000000     <absolute>
 0000:00000000       __guard_longjmp_count      0000000000000000     <absolute>
 0000:00000000       __guard_fids_count         0000000000000000     <absolute>
 0000:00000000       ___safe_se_handler_table   0000000000000000     <absolute>
 0000:00000000       ___safe_se_handler_count   0000000000000000     <absolute>
 0000:00000000       __guard_fids_table         0000000000000000     <absolute>
 0000:00000100       __guard_flags              0000000000000100     <absolute>
 0000:00000000       __ImageBase                0000000180000000     <linker-defined>
 0001:00000130       ?what@exception@stdext@@UEBAPEBDXZ 0000000180001130 f i familyTree.obj
 0001:00000150       ?imbue@?$basic_streambuf@DU?$char_traits@D@std@@@std@@MEAAXAEBVlocale@2@@Z 0000000180001150 f i libcpmt:cout.obj
 0001:00000150       _guard_check_icall_nop     0000000180001150 f i LIBCMT:guard_support.obj
 0001:00000150       __except_validate_context_record 0000000180001150 f i libvcruntime:jbcxrval.obj
 0001:00000150       ?_Lock@?$basic_streambuf@DU?$char_traits@D@std@@@std@@UEAAXXZ 0000000180001150 f i libcpmt:cout.obj
 0001:00000150       ?_Doraise@exception@stdext@@MEBAXXZ 0000000180001150 f i familyTree.obj
 0001:00000150       ?_Unlock@?$basic_streambuf@DU?$char_traits@D@std@@@std@@UEAAXXZ 0000000180001150 f i libcpmt:cout.obj
 0001:00000160       ??_Gruntime_error@std@@UEAAPEAXI@Z 0000000180001160 f i familyTree.obj
 0001:00000160       ??_Eexception@stdext@@UEAAPEAXI@Z 0000000180001160 f i * CIL library *:* CIL module *
 0001:00000160       ??_Gexception@stdext@@UEAAPEAXI@Z 0000000180001160 f i familyTree.obj
 0001:00000160       ??_Eruntime_error@std@@UEAAPEAXI@Z 0000000180001160 f i * CIL library *:* CIL module *
 0001:00000190       ?_Deallocate@std@@YAXPEAX_K1@Z 0000000180001190 f i familyTree.obj
 0001:00000200       ??1runtime_error@std@@UEAA@XZ 0000000180001200 f i familyTree.obj
 0001:00000210       ??_Eerror_category@std@@UEAAPEAXI@Z 0000000180001210 f i * CIL library *:* CIL module *
 0001:00000210       ??_G_Iostream_error_category@std@@UEAAPEAXI@Z 0000000180001210 f i familyTree.obj
 0001:00000210       ??_Gerror_category@std@@UEAAPEAXI@Z 0000000180001210 f i familyTree.obj
 0001:00000210       ??_E_Iostream_error_category@std@@UEAAPEAXI@Z 0000000180001210 f i * CIL library *:* CIL module *
 0001:00000240       ?default_error_condition@error_category@std@@UEBA?AVerror_condition@2@H@Z 0000000180001240 f i familyTree.obj
 0001:00000250       ?equivalent@error_category@std@@UEBA_NHAEBVerror_condition@2@@Z 0000000180001250 f i familyTree.obj
 0001:000002b0       ?equivalent@error_category@std@@UEBA_NAEBVerror_code@2@H@Z 00000001800012b0 f i familyTree.obj
 0001:000002d0       ??0_System_error@std@@IEAA@Verror_code@1@AEBV?$basic_string@DU?$char_traits@D@std@@V?$allocator@D@2@@1@@Z 00000001800012d0 f i familyTree.obj
 0001:000004f0       ??_E_System_error@std@@UEAAPEAXI@Z 00000001800014f0 f i * CIL library *:* CIL module *
 0001:000004f0       ??_Gfailure@ios_base@std@@UEAAPEAXI@Z 00000001800014f0 f i familyTree.obj
 0001:000004f0       ??_G_System_error@std@@UEAAPEAXI@Z 00000001800014f0 f i familyTree.obj
 0001:000004f0       ??_Efailure@ios_base@std@@UEAAPEAXI@Z 00000001800014f0 f i * CIL library *:* CIL module *
 0001:00000520       ?name@_Iostream_error_category@std@@UEBAPEBDXZ 0000000180001520 f i familyTree.obj
 0001:00000530       ?message@_Iostream_error_category@std@@UEBA?AV?$basic_string@DU?$char_traits@D@std@@V?$allocator@D@2@@2@H@Z 0000000180001530 f i familyTree.obj
 0001:000005b0       ?clear@ios_base@std@@QEAAXH_N@Z 00000001800015b0 f i familyTree.obj
 0001:00000980       ??0Detail@@QEAA@AEBU0@@Z   0000000180001980 f i familyTree.obj
 0001:00000a40       ??0Detail@@QEAA@AEBV?$basic_string@DU?$char_traits@D@std@@V?$allocator@D@2@@std@@000_N@Z 0000000180001a40 f i familyTree.obj
 0001:00000b10       ??4Detail@@QEAAAEAU0@AEBU0@@Z 0000000180001b10 f i familyTree.obj
 0001:00000ba0       ??0Node@@QEAA@AEBU0@@Z     0000000180001ba0 f i familyTree.obj
 0001:00000c10       ??4Node@@QEAAAEAU0@AEBU0@@Z 0000000180001c10 f i familyTree.obj
 0001:00000c80       ??1Detail@@QEAA@XZ         0000000180001c80 f i familyTree.obj
 0001:00000cc0       ??0familyTree@@QEAA@XZ     0000000180001cc0 f   familyTree.obj
 0001:00000ff0       ??1Node@@QEAA@XZ           0000000180001ff0 f i familyTree.obj
 0001:00001040       ?addToParent@familyTree@@QEAA?AUtoReturn@@AEBUDetail@@AEBI@Z 0000000180002040 f   familyTree.obj
 0001:00001270       ?addToCouple@familyTree@@QEAA?AUtoReturn@@AEBUDetail@@AEBI@Z 0000000180002270 f   familyTree.obj
 0001:00001430       ?addToSublings@familyTree@@QEAA?AUtoReturn@@AEBUDetail@@AEBI@Z 0000000180002430 f   familyTree.obj
 0001:000016b0       ?addToChildren@familyTree@@QEAA?AUtoReturn@@AEBUDetail@@AEBI@Z 00000001800026b0 f   familyTree.obj
 0001:00001b50       ?deleteSubTree@familyTree@@QEAA?AUtoReturn@@AEBI@Z 0000000180002b50 f   familyTree.obj
 0001:00001f70       ?traverse@@YAPEAUNode@@PEAU1@AEBI@Z 0000000180002f70 f   familyTree.obj
 0001:00002130       ?nodeToString@familyTree@@QEAA?AV?$basic_string@DU?$char_traits@D@std@@V?$allocator@D@2@@std@@AEAUNode@@@Z 0000000180003130 f   familyTree.obj
 0001:00002e00       ?printTree@familyTree@@QEAA?AV?$basic_string@DU?$char_traits@D@std@@V?$allocator@D@2@@std@@XZ 0000000180003e00 f   familyTree.obj
 0001:00002fd0       ?NODE_SET_METHOD@node@@YAXV?$Local@VObject@v8@@@v8@@PEBDP6AXAEBV?$FunctionCallbackInfo@VValue@v8@@@3@@Z@Z 0000000180003fd0 f i familyTree.obj
 0001:000030a0       ?CreateObject@demo@@YAXAEBV?$FunctionCallbackInfo@VValue@v8@@@v8@@@Z 00000001800040a0 f   familyTree.obj
 0001:000043b0       ?Init@demo@@YAXV?$Local@VObject@v8@@@v8@@0@Z 00000001800053b0 f   familyTree.obj
 0001:000043e0       ?push_back@?$vector@UNode@@V?$allocator@UNode@@@std@@@std@@QEAAX$$QEAUNode@@@Z 00000001800053e0 f i familyTree.obj
 0001:000043e0       ?push_back@?$vector@UNode@@V?$allocator@UNode@@@std@@@std@@QEAAXAEBUNode@@@Z 00000001800053e0 f i familyTree.obj
 0001:000044c0       ??4?$vector@UNode@@V?$allocator@UNode@@@std@@@std@@QEAAAEAV01@AEBV01@@Z 00000001800054c0 f i familyTree.obj
 0001:00004680       ??0?$vector@UNode@@V?$allocator@UNode@@@std@@@std@@QEAA@AEBV01@@Z 0000000180005680 f i familyTree.obj
 0001:00004780       ??1?$basic_string@DU?$char_traits@D@std@@V?$allocator@D@2@@std@@QEAA@XZ 0000000180005780 f i familyTree.obj
 0001:00004810       ??4?$basic_string@DU?$char_traits@D@std@@V?$allocator@D@2@@std@@QEAAAEAV01@$$QEAV01@@Z 0000000180005810 f i familyTree.obj
 0001:000048c0       ??0?$basic_string@DU?$char_traits@D@std@@V?$allocator@D@2@@std@@QEAA@$$QEAV01@@Z 00000001800058c0 f i familyTree.obj
 0001:00004960       ??0?$basic_string@DU?$char_traits@D@std@@V?$allocator@D@2@@std@@QEAA@PEBD@Z 0000000180005960 f i familyTree.obj
 0001:000049a0       ?deallocate@?$_Wrap_alloc@V?$allocator@UNode@@@std@@@std@@QEAAXPEAUNode@@_K@Z 00000001800059a0 f i familyTree.obj
 0001:00004a10       ?_Tidy@?$vector@UNode@@V?$allocator@UNode@@@std@@@std@@IEAAXXZ 0000000180005a10 f i familyTree.obj
 0001:00004b20       ?_Reserve@?$vector@UNode@@V?$allocator@UNode@@@std@@@std@@IEAAX_K@Z 0000000180005b20 f i familyTree.obj
 0001:00004bf0       ?_Destroy@?$vector@UNode@@V?$allocator@UNode@@@std@@@std@@IEAAXPEAUNode@@0@Z 0000000180005bf0 f i familyTree.obj
 0001:00004c50       ?_Buy@?$vector@UNode@@V?$allocator@UNode@@@std@@@std@@IEAA_N_K@Z 0000000180005c50 f i familyTree.obj
 0001:00004cc0       ?clear@?$vector@UNode@@V?$allocator@UNode@@@std@@@std@@QEAAXXZ 0000000180005cc0 f i familyTree.obj
 0001:00004d40       ?_Tidy@?$basic_string@DU?$char_traits@D@std@@V?$allocator@D@2@@std@@QEAAX_N_K@Z 0000000180005d40 f i familyTree.obj
 0001:00004df0       ?assign@?$basic_string@DU?$char_traits@D@std@@V?$allocator@D@2@@std@@QEAAAEAV12@PEBD_K@Z 0000000180005df0 f i familyTree.obj
 0001:00004f20       ?assign@?$basic_string@DU?$char_traits@D@std@@V?$allocator@D@2@@std@@QEAAAEAV12@AEBV12@_K1@Z 0000000180005f20 f i familyTree.obj
 0001:00005050       ?append@?$basic_string@DU?$char_traits@D@std@@V?$allocator@D@2@@std@@QEAAAEAV12@PEBD_K@Z 0000000180006050 f i familyTree.obj
 0001:000051a0       ?append@?$basic_string@DU?$char_traits@D@std@@V?$allocator@D@2@@std@@QEAAAEAV12@AEBV12@_K1@Z 00000001800061a0 f i familyTree.obj
 0001:000052d0       ?_Assign_rv@?$basic_string@DU?$char_traits@D@std@@V?$allocator@D@2@@std@@QEAAX$$QEAV12@@Z 00000001800062d0 f i familyTree.obj
 0001:00005350       ?allocate@?$_Wrap_alloc@V?$allocator@UNode@@@std@@@std@@QEAAPEAUNode@@_K@Z 0000000180006350 f i familyTree.obj
 0001:000053c0       ?_Reallocate@?$vector@UNode@@V?$allocator@UNode@@@std@@@std@@IEAAX_K@Z 00000001800063c0 f i familyTree.obj
 0001:00005590       ?deallocate@?$_Wrap_alloc@V?$allocator@D@std@@@std@@QEAAXPEAD_K@Z 0000000180006590 f i familyTree.obj
 0001:000055f0       ?_Xlen@?$basic_string@DU?$char_traits@D@std@@V?$allocator@D@2@@std@@QEBAXXZ 00000001800065f0 f i familyTree.obj
 0001:00005610       ?erase@?$basic_string@DU?$char_traits@D@std@@V?$allocator@D@2@@std@@QEAAAEAV12@_K0@Z 0000000180006610 f i familyTree.obj
 0001:000056e0       ?_Copy@?$basic_string@DU?$char_traits@D@std@@V?$allocator@D@2@@std@@QEAAX_K0@Z 00000001800066e0 f i familyTree.obj
 0001:00005860       ??$_Immortalize@V_Iostream_error_category@std@@@std@@YAAEAV_Iostream_error_category@0@XZ 0000000180006860 f i familyTree.obj
 0001:000058e0       ??$_Integral_to_string@DI@std@@YA?AV?$basic_string@DU?$char_traits@D@std@@V?$allocator@D@2@@0@I@Z 00000001800068e0 f i familyTree.obj
 0001:00005970       ??$?HDU?$char_traits@D@std@@V?$allocator@D@1@@std@@YA?AV?$basic_string@DU?$char_traits@D@std@@V?$allocator@D@2@@0@AEBV10@PEBD@Z 0000000180006970 f i familyTree.obj
 0001:00005a10       ??$?6U?$char_traits@D@std@@@std@@YAAEAV?$basic_ostream@DU?$char_traits@D@std@@@0@AEAV10@PEBD@Z 0000000180006a10 f i familyTree.obj
 0001:00005c70       ??$_Copy_unchecked@PEAUNode@@PEAU1@@std@@YAPEAUNode@@PEAU1@00@Z 0000000180006c70 f i familyTree.obj
 0001:00005cd0       ??0sentry@?$basic_ostream@DU?$char_traits@D@std@@@std@@QEAA@AEAV12@@Z 0000000180006cd0 f i familyTree.obj
 0001:00005d40       ?reserve@?$basic_string@DU?$char_traits@D@std@@V?$allocator@D@2@@std@@QEAAX_K@Z 0000000180006d40 f i familyTree.obj
 0001:00005df0       ?insert@?$basic_string@DU?$char_traits@D@std@@V?$allocator@D@2@@std@@QEAAAEAV12@_KPEBD0@Z 0000000180006df0 f i familyTree.obj
 0001:00005f70       ?insert@?$basic_string@DU?$char_traits@D@std@@V?$allocator@D@2@@std@@QEAAAEAV12@_KAEBV12@00@Z 0000000180006f70 f i familyTree.obj
 0001:00006110       ?flush@?$basic_ostream@DU?$char_traits@D@std@@@std@@QEAAAEAV12@XZ 0000000180007110 f i familyTree.obj
 0001:00006200       ??$_Move_unchecked1@PEAUNode@@PEAU1@@std@@YAPEAUNode@@PEAU1@00U_General_ptr_iterator_tag@0@@Z 0000000180007200 f i familyTree.obj
 0001:00006300       ??$_Uninitialized_move_al_unchecked1@PEAUNode@@PEAU1@V?$allocator@UNode@@@std@@@std@@YAPEAUNode@@PEAU1@00AEAU?$_Wrap_alloc@V?$allocator@UNode@@@std@@@0@U_General_ptr_iterator_tag@0@U_Any_tag@0@@Z 0000000180007300 f i familyTree.obj
 0001:00006300       ??$_Uninitialized_copy_al_unchecked1@PEAUNode@@PEAU1@V?$allocator@UNode@@@std@@@std@@YAPEAUNode@@PEAU1@00AEAU?$_Wrap_alloc@V?$allocator@UNode@@@std@@@0@U_General_ptr_iterator_tag@0@U_Any_tag@0@@Z 0000000180007300 f i familyTree.obj
 0001:000063ec       __imp_load_?GetCurrent@Isolate@v8@@SAPEAV12@XZ 00000001800073ec f   node:node.exe
 0001:000063f8       __tailMerge_node_exe       00000001800073f8 f i node:node.exe
 0001:00006471       __imp_load_??1HandleScope@v8@@QEAA@XZ 0000000180007471 f   node:node.exe
 0001:0000647d       __imp_load_??0HandleScope@v8@@QEAA@PEAVIsolate@1@@Z 000000018000747d f   node:node.exe
 0001:00006489       __imp_load_?GetFunction@FunctionTemplate@v8@@QEAA?AV?$Local@VFunction@v8@@@2@XZ 0000000180007489 f   node:node.exe
 0001:00006495       __imp_load_?New@FunctionTemplate@v8@@SA?AV?$Local@VFunctionTemplate@v8@@@2@PEAVIsolate@2@P6AXAEBV?$FunctionCallbackInfo@VValue@v8@@@2@@ZV?$Local@VValue@v8@@@2@V?$Local@VSignature@v8@@@2@HW4ConstructorBehavior@2@@Z 0000000180007495 f   node:node.exe
 0001:000064a1       __imp_load_?Int32Value@Value@v8@@QEBAHXZ 00000001800074a1 f   node:node.exe
 0001:000064ad       __imp_load_?Uint32Value@Value@v8@@QEBAIXZ 00000001800074ad f   node:node.exe
 0001:000064b9       __imp_load_?BooleanValue@Value@v8@@QEBA_NXZ 00000001800074b9 f   node:node.exe
 0001:000064c5       __imp_load_??1Utf8Value@String@v8@@QEAA@XZ 00000001800074c5 f   node:node.exe
 0001:000064d1       __imp_load_??0Utf8Value@String@v8@@QEAA@V?$Local@VValue@v8@@@2@@Z 00000001800074d1 f   node:node.exe
 0001:000064dd       __imp_load_?NewFromUtf8@String@v8@@SA?AV?$Local@VString@v8@@@2@PEAVIsolate@2@PEBDW4NewStringType@12@H@Z 00000001800074dd f   node:node.exe
 0001:000064e9       __imp_load_?New@Object@v8@@SA?AV?$Local@VObject@v8@@@2@PEAVIsolate@2@@Z 00000001800074e9 f   node:node.exe
 0001:000064f5       __imp_load_?Set@Object@v8@@QEAA_NV?$Local@VValue@v8@@@2@0@Z 00000001800074f5 f   node:node.exe
 0001:00006501       __imp_load_?SetName@Function@v8@@QEAAXV?$Local@VString@v8@@@2@@Z 0000000180007501 f   node:node.exe
 0001:0000650d       __imp_load_node_module_register 000000018000750d f   node:node.exe
 0001:00006519       __imp_load_??DUtf8Value@String@v8@@QEAAPEADXZ 0000000180007519 f   node:node.exe
 0001:00006528       ??$use_facet@V?$codecvt@DDU_Mbstatet@@@std@@@std@@YAAEBV?$codecvt@DDU_Mbstatet@@@0@AEBVlocale@0@@Z 0000000180007528 f i libcpmt:cout.obj
 0001:00006660       ??$use_facet@V?$ctype@D@std@@@std@@YAAEBV?$ctype@D@0@AEBVlocale@0@@Z 0000000180007660 f i libcpmt:cout.obj
 0001:00006798       ??0?$basic_ostream@DU?$char_traits@D@std@@@std@@QEAA@PEAV?$basic_streambuf@DU?$char_traits@D@std@@@1@_N@Z 0000000180007798 f i libcpmt:cout.obj
 0001:00006860       ??0?$basic_streambuf@DU?$char_traits@D@std@@@std@@IEAA@XZ 0000000180007860 f i libcpmt:cout.obj
 0001:00006910       ??0_Init_cout@std@@QEAA@XZ 0000000180007910 f i libcpmt:cout.obj
 0001:0000697c       ??0_Locinfo@std@@QEAA@PEBD@Z 000000018000797c f i libcpmt:cout.obj
 0001:00006a14       ??0bad_cast@std@@QEAA@AEBV01@@Z 0000000180007a14 f i libcpmt:cout.obj
 0001:00006a54       ??0bad_cast@std@@QEAA@XZ   0000000180007a54 f i libcpmt:cout.obj
 0001:00006a74       ??0exception@std@@QEAA@AEBV01@@Z 0000000180007a74 f i libcpmt:cout.obj
 0001:00006aac       ??0runtime_error@std@@QEAA@AEBV01@@Z 0000000180007aac f i libcpmt:cout.obj
 0001:00006aec       ??0runtime_error@std@@QEAA@PEBD@Z 0000000180007aec f i libcpmt:cout.obj
 0001:00006b38       ??1?$_Yarn@_W@std@@QEAA@XZ 0000000180007b38 f i libcpmt:cout.obj
 0001:00006b38       ??1?$_Yarn@D@std@@QEAA@XZ  0000000180007b38 f i libcpmt:cout.obj
 0001:00006b58       ??1?$basic_filebuf@DU?$char_traits@D@std@@@std@@UEAA@XZ 0000000180007b58 f i libcpmt:cout.obj
 0001:00006c04       ??1?$basic_ios@DU?$char_traits@D@std@@@std@@UEAA@XZ 0000000180007c04 f i libcpmt:cout.obj
 0001:00006c28       ??1_Locinfo@std@@QEAA@XZ   0000000180007c28 f i libcpmt:cout.obj
 0001:00006cc8       ??1locale@std@@QEAA@XZ     0000000180007cc8 f i libcpmt:cout.obj
 0001:00006d28       ??_E?$basic_ostream@DU?$char_traits@D@std@@@std@@$4PPPPPPPM@A@EAAPEAXI@Z 0000000180007d28 f i libcpmt:cout.obj
 0001:00006d34       ??_E?$basic_filebuf@DU?$char_traits@D@std@@@std@@UEAAPEAXI@Z 0000000180007d34 f i libcpmt:cout.obj
 0001:00006d34       ??_G?$basic_filebuf@DU?$char_traits@D@std@@@std@@UEAAPEAXI@Z 0000000180007d34 f i libcpmt:cout.obj
 0001:00006d68       ??_G?$basic_ios@DU?$char_traits@D@std@@@std@@UEAAPEAXI@Z 0000000180007d68 f i libcpmt:cout.obj
 0001:00006d68       ??_E?$basic_ios@DU?$char_traits@D@std@@@std@@UEAAPEAXI@Z 0000000180007d68 f i libcpmt:cout.obj
 0001:00006db4       ??_G?$basic_ostream@DU?$char_traits@D@std@@@std@@UEAAPEAXI@Z 0000000180007db4 f i libcpmt:cout.obj
 0001:00006db4       ??_E?$basic_ostream@DU?$char_traits@D@std@@@std@@UEAAPEAXI@Z 0000000180007db4 f i libcpmt:cout.obj
 0001:00006e24       ??_E?$basic_streambuf@DU?$char_traits@D@std@@@std@@UEAAPEAXI@Z 0000000180007e24 f i libcpmt:cout.obj
 0001:00006e24       ??_G?$basic_streambuf@DU?$char_traits@D@std@@@std@@UEAAPEAXI@Z 0000000180007e24 f i libcpmt:cout.obj
 0001:00006e74       ??_E?$codecvt@DDU_Mbstatet@@@std@@MEAAPEAXI@Z 0000000180007e74 f i libcpmt:cout.obj
 0001:00006e74       ??_G?$codecvt@DDU_Mbstatet@@@std@@MEAAPEAXI@Z 0000000180007e74 f i libcpmt:cout.obj
 0001:00006ea0       ??_G?$ctype@D@std@@MEAAPEAXI@Z 0000000180007ea0 f i libcpmt:cout.obj
 0001:00006ea0       ??_E?$ctype@D@std@@MEAAPEAXI@Z 0000000180007ea0 f i libcpmt:cout.obj
 0001:00006f0c       ??_G_Facet_base@std@@UEAAPEAXI@Z 0000000180007f0c f i libcpmt:cout.obj
 0001:00006f0c       ??_E_Facet_base@std@@UEAAPEAXI@Z 0000000180007f0c f i libcpmt:cout.obj
 0001:00006f38       ??_Eios_base@std@@UEAAPEAXI@Z 0000000180007f38 f i libcpmt:cout.obj
 0001:00006f38       ??_Gios_base@std@@UEAAPEAXI@Z 0000000180007f38 f i libcpmt:cout.obj
 0001:00006f84       ??_Glocale@std@@QEAAPEAXI@Z 0000000180007f84 f i libcpmt:cout.obj
 0001:00007014       ?_Decref@facet@locale@std@@UEAAPEAV_Facet_base@3@XZ 0000000180008014 f i libcpmt:cout.obj
 0001:00007024       ?_Endwrite@?$basic_filebuf@DU?$char_traits@D@std@@@std@@IEAA_NXZ 0000000180008024 f i libcpmt:cout.obj
 0001:000071d8       ?_Getcat@?$codecvt@DDU_Mbstatet@@@std@@SA_KPEAPEBVfacet@locale@2@PEBV42@@Z 00000001800081d8 f i libcpmt:cout.obj
 0001:0000729c       ?_Getcat@?$ctype@D@std@@SA_KPEAPEBVfacet@locale@2@PEBV42@@Z 000000018000829c f i libcpmt:cout.obj
 0001:00007380       ?_Incref@facet@locale@std@@UEAAXXZ 0000000180008380 f i libcpmt:cout.obj
 0001:00007388       ?_Init@?$basic_filebuf@DU?$char_traits@D@std@@@std@@IEAAXPEAU_iobuf@@W4_Initfl@12@@Z 0000000180008388 f i libcpmt:cout.obj
 0001:00007474       ?_Init@ios_base@std@@IEAAXXZ 0000000180008474 f i libcpmt:cout.obj
 0001:000074f4       ?_Initcvt@?$basic_filebuf@DU?$char_traits@D@std@@@std@@IEAAXPEBV?$codecvt@DDU_Mbstatet@@@2@@Z 00000001800084f4 f i libcpmt:cout.obj
 0001:00007594       ?_Lock@?$basic_filebuf@DU?$char_traits@D@std@@@std@@UEAAXXZ 0000000180008594 f i libcpmt:cout.obj
 0001:000075b0       ?_Unlock@?$basic_filebuf@DU?$char_traits@D@std@@@std@@UEAAXXZ 00000001800085b0 f i libcpmt:cout.obj
 0001:000075cc       ?append@?$basic_string@DU?$char_traits@D@std@@V?$allocator@D@2@@std@@QEAAAEAV12@_KD@Z 00000001800085cc f i libcpmt:cout.obj
 0001:000076bc       ?do_length@?$codecvt@DDU_Mbstatet@@@std@@MEBAHAEAU_Mbstatet@@PEBD1_K@Z 00000001800086bc f i libcpmt:cout.obj
 0001:000076d0       ?do_narrow@?$ctype@D@std@@MEBAPEBDPEBD0DPEAD@Z 00000001800086d0 f i libcpmt:cout.obj
 0001:000076f0       ?do_in@?$codecvt@DDU_Mbstatet@@@std@@MEBAHAEAU_Mbstatet@@PEBD1AEAPEBDPEAD3AEAPEAD@Z 00000001800086f0 f i libcpmt:cout.obj
 0001:000076f0       ?do_out@?$codecvt@DDU_Mbstatet@@@std@@MEBAHAEAU_Mbstatet@@PEBD1AEAPEBDPEAD3AEAPEAD@Z 00000001800086f0 f i libcpmt:cout.obj
 0001:0000770c       ?do_tolower@?$ctype@D@std@@MEBADD@Z 000000018000870c f i libcpmt:cout.obj
 0001:0000771c       ?do_tolower@?$ctype@D@std@@MEBAPEBDPEADPEBD@Z 000000018000871c f i libcpmt:cout.obj
 0001:0000777c       ?do_toupper@?$ctype@D@std@@MEBADD@Z 000000018000877c f i libcpmt:cout.obj
 0001:0000778c       ?do_toupper@?$ctype@D@std@@MEBAPEBDPEADPEBD@Z 000000018000878c f i libcpmt:cout.obj
 0001:000077ec       ?do_unshift@?$codecvt@DDU_Mbstatet@@@std@@MEBAHAEAU_Mbstatet@@PEAD1AEAPEAD@Z 00000001800087ec f i libcpmt:cout.obj
 0001:000077f8       ?do_narrow@?$ctype@D@std@@MEBADDD@Z 00000001800087f8 f i libcpmt:cout.obj
 0001:000077f8       ?do_widen@?$ctype@D@std@@MEBADD@Z 00000001800087f8 f i libcpmt:cout.obj
 0001:000077fc       ?do_widen@?$ctype@D@std@@MEBAPEBDPEBD0PEAD@Z 00000001800087fc f i libcpmt:cout.obj
 0001:0000781c       ?getloc@ios_base@std@@QEBA?AVlocale@2@XZ 000000018000881c f i libcpmt:cout.obj
 0001:00007874       ?imbue@?$basic_filebuf@DU?$char_traits@D@std@@@std@@MEAAXAEBVlocale@2@@Z 0000000180008874 f i libcpmt:cout.obj
 0001:00007898       ?overflow@?$basic_filebuf@DU?$char_traits@D@std@@@std@@MEAAHH@Z 0000000180008898 f i libcpmt:cout.obj
 0001:00007af8       ?pbackfail@?$basic_filebuf@DU?$char_traits@D@std@@@std@@MEAAHH@Z 0000000180008af8 f i libcpmt:cout.obj
 0001:00007bc8       ?seekoff@?$basic_filebuf@DU?$char_traits@D@std@@@std@@MEAA?AV?$fpos@U_Mbstatet@@@2@_JHH@Z 0000000180008bc8 f i libcpmt:cout.obj
 0001:00007cb4       ?seekoff@?$basic_streambuf@DU?$char_traits@D@std@@@std@@MEAA?AV?$fpos@U_Mbstatet@@@2@_JHH@Z 0000000180008cb4 f i libcpmt:cout.obj
 0001:00007cb4       ?seekpos@?$basic_streambuf@DU?$char_traits@D@std@@@std@@MEAA?AV?$fpos@U_Mbstatet@@@2@V32@H@Z 0000000180008cb4 f i libcpmt:cout.obj
 0001:00007cd0       ?seekpos@?$basic_filebuf@DU?$char_traits@D@std@@@std@@MEAA?AV?$fpos@U_Mbstatet@@@2@V32@H@Z 0000000180008cd0 f i libcpmt:cout.obj
 0001:00007dd0       ?setbuf@?$basic_filebuf@DU?$char_traits@D@std@@@std@@MEAAPEAV?$basic_streambuf@DU?$char_traits@D@std@@@2@PEAD_J@Z 0000000180008dd0 f i libcpmt:cout.obj
 0001:00007e24       ?setbuf@?$basic_streambuf@DU?$char_traits@D@std@@@std@@MEAAPEAV12@PEAD_J@Z 0000000180008e24 f i libcpmt:cout.obj
 0001:00007e28       ?sync@?$basic_filebuf@DU?$char_traits@D@std@@@std@@MEAAHXZ 0000000180008e28 f i libcpmt:cout.obj
 0001:00007e88       ?showmanyc@?$basic_streambuf@DU?$char_traits@D@std@@@std@@MEAA_JXZ 0000000180008e88 f i libcpmt:cout.obj
 0001:00007e88       ?sync@?$basic_streambuf@DU?$char_traits@D@std@@@std@@MEAAHXZ 0000000180008e88 f i libcpmt:cout.obj
 0001:00007e8c       ?uflow@?$basic_filebuf@DU?$char_traits@D@std@@@std@@MEAAHXZ 0000000180008e8c f i libcpmt:cout.obj
 0001:00008124       ?uflow@?$basic_streambuf@DU?$char_traits@D@std@@@std@@MEAAHXZ 0000000180009124 f i libcpmt:cout.obj
 0001:00008170       ?underflow@?$basic_filebuf@DU?$char_traits@D@std@@@std@@MEAAHXZ 0000000180009170 f i libcpmt:cout.obj
 0001:000081e8       ?pbackfail@?$basic_streambuf@DU?$char_traits@D@std@@@std@@MEAAHH@Z 00000001800091e8 f i libcpmt:cout.obj
 0001:000081e8       ?overflow@?$basic_streambuf@DU?$char_traits@D@std@@@std@@MEAAHH@Z 00000001800091e8 f i libcpmt:cout.obj
 0001:000081e8       ?underflow@?$basic_streambuf@DU?$char_traits@D@std@@@std@@MEAAHXZ 00000001800091e8 f i libcpmt:cout.obj
 0001:000081ec       ?what@exception@std@@UEBAPEBDXZ 00000001800091ec f i libcpmt:cout.obj
 0001:00008200       ?widen@?$basic_ios@DU?$char_traits@D@std@@@std@@QEBADD@Z 0000000180009200 f i libcpmt:cout.obj
 0001:000082a0       ?xsgetn@?$basic_streambuf@DU?$char_traits@D@std@@@std@@MEAA_JPEAD_J@Z 00000001800092a0 f i libcpmt:cout.obj
 0001:00008360       ?xsputn@?$basic_streambuf@DU?$char_traits@D@std@@@std@@MEAA_JPEBD_J@Z 0000000180009360 f i libcpmt:cout.obj
 0001:00008424       ??0bad_alloc@std@@QEAA@AEBV01@@Z 0000000180009424 f i libcpmt:xthrow.obj
 0001:00008464       ??0bad_alloc@std@@QEAA@XZ  0000000180009464 f i libcpmt:xthrow.obj
 0001:00008484       ??0length_error@std@@QEAA@AEBV01@@Z 0000000180009484 f i libcpmt:xthrow.obj
 0001:000084c4       ??0length_error@std@@QEAA@PEBD@Z 00000001800094c4 f i libcpmt:xthrow.obj
 0001:00008510       ??0logic_error@std@@QEAA@AEBV01@@Z 0000000180009510 f i libcpmt:xthrow.obj
 0001:00008550       ??0out_of_range@std@@QEAA@AEBV01@@Z 0000000180009550 f i libcpmt:xthrow.obj
 0001:00008590       ??0out_of_range@std@@QEAA@PEBD@Z 0000000180009590 f i libcpmt:xthrow.obj
 0001:000085dc       ??1out_of_range@std@@UEAA@XZ 00000001800095dc f i libcpmt:xthrow.obj
 0001:000085dc       ??1bad_array_new_length@std@@UEAA@XZ 00000001800095dc f i LIBCMT:throw_bad_alloc.obj
 0001:000085dc       ??1bad_cast@std@@UEAA@XZ   00000001800095dc f i libcpmt:cout.obj
 0001:000085dc       ??1bad_alloc@std@@UEAA@XZ  00000001800095dc f i libcpmt:xthrow.obj
 0001:000085dc       ??1length_error@std@@UEAA@XZ 00000001800095dc f i libcpmt:xthrow.obj
 0001:000085dc       ??1bad_exception@std@@UEAA@XZ 00000001800095dc f i libvcruntime:frame.obj
 0001:000085f0       ??_Eout_of_range@std@@UEAAPEAXI@Z 00000001800095f0 f i libcpmt:xthrow.obj
 0001:000085f0       ??_Gbad_alloc@std@@UEAAPEAXI@Z 00000001800095f0 f i libcpmt:xthrow.obj
 0001:000085f0       ??_Ebad_array_new_length@std@@UEAAPEAXI@Z 00000001800095f0 f i LIBCMT:throw_bad_alloc.obj
 0001:000085f0       ??_Gout_of_range@std@@UEAAPEAXI@Z 00000001800095f0 f i libcpmt:xthrow.obj
 0001:000085f0       ??_Elength_error@std@@UEAAPEAXI@Z 00000001800095f0 f i libcpmt:xthrow.obj
 0001:000085f0       ??_Gbad_array_new_length@std@@UEAAPEAXI@Z 00000001800095f0 f i LIBCMT:throw_bad_alloc.obj
 0001:000085f0       ??_Gbad_exception@std@@UEAAPEAXI@Z 00000001800095f0 f i libvcruntime:frame.obj
 0001:000085f0       ??_Ebad_cast@std@@UEAAPEAXI@Z 00000001800095f0 f i libcpmt:cout.obj
 0001:000085f0       ??_Gexception@std@@UEAAPEAXI@Z 00000001800095f0 f i libcpmt:cout.obj
 0001:000085f0       ??_Glength_error@std@@UEAAPEAXI@Z 00000001800095f0 f i libcpmt:xthrow.obj
 0001:000085f0       ??_Ebad_alloc@std@@UEAAPEAXI@Z 00000001800095f0 f i libcpmt:xthrow.obj
 0001:000085f0       ??_Eexception@std@@UEAAPEAXI@Z 00000001800095f0 f i libcpmt:cout.obj
 0001:000085f0       ??_Gbad_cast@std@@UEAAPEAXI@Z 00000001800095f0 f i libcpmt:cout.obj
 0001:000085f0       ??_Glogic_error@std@@UEAAPEAXI@Z 00000001800095f0 f i libcpmt:xthrow.obj
 0001:000085f0       ??_Ebad_exception@std@@UEAAPEAXI@Z 00000001800095f0 f i libvcruntime:frame.obj
 0001:000085f0       ??_Elogic_error@std@@UEAAPEAXI@Z 00000001800095f0 f i libcpmt:xthrow.obj
 0001:00008634       ?_Xlength_error@std@@YAXPEBD@Z 0000000180009634 f   libcpmt:xthrow.obj
 0001:00008658       ?_Xout_of_range@std@@YAXPEBD@Z 0000000180009658 f   libcpmt:xthrow.obj
 0001:0000867c       ?_Syserror_map@std@@YAPEBDH@Z 000000018000967c f   libcpmt:syserror.obj
 0001:000086a4       ??0_Init_locks@std@@QEAA@XZ 00000001800096a4 f   libcpmt:xlock.obj
 0001:000086f0       ??0_Lockit@std@@QEAA@H@Z   00000001800096f0 f   libcpmt:xlock.obj
 0001:0000872c       ??1_Init_locks@std@@QEAA@XZ 000000018000972c f   libcpmt:xlock.obj
 0001:00008770       ??1_Lockit@std@@QEAA@XZ    0000000180009770 f   libcpmt:xlock.obj
 0001:000087a4       _Getctype                  00000001800097a4 f   libcpmt:_tolower.obj
 0001:00008864       _Tolower                   0000000180009864 f   libcpmt:_tolower.obj
 0001:0000898c       _Toupper                   000000018000998c f   libcpmt:_toupper.obj
 0001:00008ac4       ??4?$_Yarn@D@std@@QEAAAEAV01@PEBD@Z 0000000180009ac4 f i libcpmt:locale0.obj
 0001:00008b3c       ??_G_Fac_node@std@@QEAAPEAXI@Z 0000000180009b3c f i libcpmt:locale0.obj
 0001:00008bc8       ??_G_Locimp@locale@std@@MEAAPEAXI@Z 0000000180009bc8 f i libcpmt:locale0.obj
 0001:00008bc8       ??_E_Locimp@locale@std@@MEAAPEAXI@Z 0000000180009bc8 f i libcpmt:locale0.obj
 0001:00008c34       ?_Facet_Register@std@@YAXPEAV_Facet_base@1@@Z 0000000180009c34 f   libcpmt:locale0.obj
 0001:00008c6c       ?_Getgloballocale@locale@std@@CAPEAV_Locimp@12@XZ 0000000180009c6c f   libcpmt:locale0.obj
 0001:00008c74       ?_Init@locale@std@@CAPEAV_Locimp@12@_N@Z 0000000180009c74 f   libcpmt:locale0.obj
 0001:00008d30       ?_Locimp_dtor@_Locimp@locale@std@@CAXPEAV123@@Z 0000000180009d30 f   libcpmt:locale0.obj
 0001:00008dd8       ?_Locinfo_ctor@_Locinfo@std@@SAXPEAV12@PEBD@Z 0000000180009dd8 f   libcpmt:locale0.obj
 0001:00008e44       ?_Locinfo_dtor@_Locinfo@std@@SAXPEAV12@@Z 0000000180009e44 f   libcpmt:locale0.obj
 0001:00008e68       ?_New_Locimp@_Locimp@locale@std@@CAPEAV123@_N@Z 0000000180009e68 f   libcpmt:locale0.obj
 0001:00008ed8       ?_Setgloballocale@locale@std@@CAXPEAX@Z 0000000180009ed8 f   libcpmt:locale0.obj
 0001:00008f0c       _Deletegloballocale        0000000180009f0c f   libcpmt:locale0.obj
 0001:00008f94       ?_Addstd@ios_base@std@@SAXPEAV12@@Z 0000000180009f94 f   libcpmt:ios.obj
 0001:00009004       ?_Ios_base_dtor@ios_base@std@@CAXPEAV12@@Z 000000018000a004 f   libcpmt:ios.obj
 0001:00009048       ?_Tidy@ios_base@std@@AEAAXXZ 000000018000a048 f i libcpmt:ios.obj
 0001:000090d8       ?_Atexit@@YAXP6AXXZ@Z      000000018000a0d8 f   libcpmt:iosptrs.obj
 0001:00009118       _Mtxdst                    000000018000a118 f   libcpmt:xmtx.obj
 0001:00009120       _Mtxinit                   000000018000a120 f   libcpmt:xmtx.obj
 0001:00009130       _Mtxlock                   000000018000a130 f   libcpmt:xmtx.obj
 0001:00009138       _Mtxunlock                 000000018000a138 f   libcpmt:xmtx.obj
 0001:00009140       __crtLCMapStringA          000000018000a140 f   libcpmt:StlLCMapStringA.obj
 0001:0000942c       __local_stdio_printf_options 000000018000a42c f i libcpmt:locale.obj
 0001:00009904       __crtInitializeCriticalSectionEx 000000018000a904 f   libcpmt:winapisupp.obj
 0001:00009964       GetTableIndexFromLocaleName 000000018000a964 f   libcpmt:winapinls.obj
 0001:000099f0       __crtDownlevelLocaleNameToLCID 000000018000a9f0 f   libcpmt:winapinls.obj
 0001:00009a24       __crtLCMapStringEx         000000018000aa24 f   libcpmt:winapinls.obj
 0001:00009ae0       __wcsnicmp_ascii           000000018000aae0 f   libcpmt:winapinls.obj
 0001:00009b50       __security_check_cookie    000000018000ab50 f   LIBCMT:_amdsecgs_.obj
 0001:00009cbc       _Init_thread_footer        000000018000acbc f   LIBCMT:thread_safe_statics.obj
 0001:00009d1c       _Init_thread_header        000000018000ad1c f   LIBCMT:thread_safe_statics.obj
 0001:00009d84       _Init_thread_notify        000000018000ad84 f   LIBCMT:thread_safe_statics.obj
 0001:00009de0       _Init_thread_wait          000000018000ade0 f   LIBCMT:thread_safe_statics.obj
 0001:00009e78       ??2@YAPEAX_K@Z             000000018000ae78 f   LIBCMT:new_scalar.obj
 0001:00009eb4       __scrt_acquire_startup_lock 000000018000aeb4 f   LIBCMT:utility.obj
 0001:00009ef0       __scrt_dllmain_after_initialize_c 000000018000aef0 f   LIBCMT:utility.obj
 0001:00009f24       __scrt_dllmain_before_initialize_c 000000018000af24 f   LIBCMT:utility.obj
 0001:00009f3c       __scrt_dllmain_crt_thread_attach 000000018000af3c f   LIBCMT:utility.obj
 0001:00009f64       __scrt_dllmain_crt_thread_detach 000000018000af64 f   LIBCMT:utility.obj
 0001:00009f7c       __scrt_dllmain_exception_filter 000000018000af7c f   LIBCMT:utility.obj
 0001:00009fe0       __scrt_dllmain_uninitialize_c 000000018000afe0 f   LIBCMT:utility.obj
 0001:0000a010       __scrt_dllmain_uninitialize_critical 000000018000b010 f   LIBCMT:utility.obj
 0001:0000a024       __scrt_initialize_crt      000000018000b024 f   LIBCMT:utility.obj
 0001:0000a070       __scrt_initialize_onexit_tables 000000018000b070 f   LIBCMT:utility.obj
 0001:0000a13c       __scrt_is_nonwritable_in_current_image 000000018000b13c f   LIBCMT:utility.obj
 0001:0000a1d8       __scrt_release_startup_lock 000000018000b1d8 f   LIBCMT:utility.obj
 0001:0000a1fc       __scrt_uninitialize_crt    000000018000b1fc f   LIBCMT:utility.obj
 0001:0000a228       _onexit                    000000018000b228 f   LIBCMT:utility.obj
 0001:0000a278       atexit                     000000018000b278 f   LIBCMT:utility.obj
 0001:0000a290       ??3@YAXPEAX@Z              000000018000b290 f   LIBCMT:delete_scalar.obj
 0001:0000a298       ??3@YAXPEAX_K@Z            000000018000b298 f   LIBCMT:delete_scalar_size.obj
 0001:0000a298       ??_V@YAXPEAX@Z             000000018000b298 f   LIBCMT:delete_array.obj
 0001:0000a5ec       _DllMainCRTStartup         000000018000b5ec f   LIBCMT:dll_dllmain.obj
 0001:0000a62c       __GSHandlerCheck           000000018000b62c f   LIBCMT:_gshandler_.obj
 0001:0000a64c       __GSHandlerCheckCommon     000000018000b64c f   LIBCMT:_gshandler_.obj
 0001:0000a6a8       __GSHandlerCheck_EH        000000018000b6a8 f   LIBCMT:gshandlereh.obj
 0001:0000a728       _guard_check_icall         000000018000b728 f i LIBCMT:checkcfg.obj
 0001:0000a730       ??_Gtype_info@@UEAAPEAXI@Z 000000018000b730 f i LIBCMT:std_type_info_static.obj
 0001:0000a730       ??_Etype_info@@UEAAPEAXI@Z 000000018000b730 f i LIBCMT:std_type_info_static.obj
 0001:0000a770       __chkstk                   000000018000b770 f   LIBCMT:_chkstk_.obj
 0001:0000a770       _alloca_probe              000000018000b770 f   LIBCMT:_chkstk_.obj
 0001:0000a7c4       __raise_securityfailure    000000018000b7c4 f   LIBCMT:gs_report.obj
 0001:0000a7f8       __report_gsfailure         000000018000b7f8 f   LIBCMT:gs_report.obj
 0001:0000a8cc       __report_rangecheckfailure 000000018000b8cc f   LIBCMT:gs_report.obj
 0001:0000a8e0       __report_securityfailure   000000018000b8e0 f   LIBCMT:gs_report.obj
 0001:0000aa60       __crt_debugger_hook        000000018000ba60 f   LIBCMT:utility_desktop.obj
 0001:0000aa68       __scrt_fastfail            000000018000ba68 f   LIBCMT:utility_desktop.obj
 0001:0000abb0       ??0bad_array_new_length@std@@QEAA@AEBV01@@Z 000000018000bbb0 f i LIBCMT:throw_bad_alloc.obj
 0001:0000abf0       ??0bad_array_new_length@std@@QEAA@XZ 000000018000bbf0 f i LIBCMT:throw_bad_alloc.obj
 0001:0000ac10       ?_Xbad_alloc@std@@YAXXZ    000000018000bc10 f   libcpmt:xthrow.obj
 0001:0000ac10       ?__scrt_throw_std_bad_alloc@@YAXXZ 000000018000bc10 f   LIBCMT:throw_bad_alloc.obj
 0001:0000ac30       ?__scrt_throw_std_bad_array_new_length@@YAXXZ 000000018000bc30 f   LIBCMT:throw_bad_alloc.obj
 0001:0000ac50       __isa_available_init       000000018000bc50 f   LIBCMT:_cpu_disp_.obj
 0001:0000ae18       DllMain                    000000018000be18 f   LIBCMT:dll_dllmain_stub.obj
 0001:0000ae18       _get_startup_argv_mode     000000018000be18 f   LIBCMT:argv_mode.obj
 0001:0000ae18       ?do_encoding@codecvt_base@std@@MEBAHXZ 000000018000be18 f   libcpmt:cout.obj
 0001:0000ae18       ?do_max_length@codecvt_base@std@@MEBAHXZ 000000018000be18 f   libcpmt:cout.obj
 0001:0000ae20       __scrt_is_ucrt_dll_in_use  000000018000be20 f   LIBCMT:ucrt_detection.obj
 0001:0000ae2c       __security_init_cookie     000000018000be2c f   LIBCMT:gs_support.obj
 0001:0000aed8       ?__scrt_initialize_type_info@@YAXXZ 000000018000bed8 f   LIBCMT:tncleanup.obj
 0001:0000aee8       ?__scrt_uninitialize_type_info@@YAXXZ 000000018000bee8 f   LIBCMT:tncleanup.obj
 0001:0000aef4       __local_stdio_scanf_options 000000018000bef4 f i LIBCMT:default_local_stdio_options.obj
 0001:0000aefc       __scrt_initialize_default_local_stdio_options 000000018000befc f   LIBCMT:default_local_stdio_options.obj
 0001:0000af18       __scrt_get_dyn_tls_init_callback 000000018000bf18 f   LIBCMT:dyn_tls_init.obj
 0001:0000af20       _RTC_Initialize            000000018000bf20 f   LIBCMT:_initsect_.obj
 0001:0000af6c       _RTC_Terminate             000000018000bf6c f   LIBCMT:_initsect_.obj
 0001:0000afd0       memcpy                     000000018000bfd0 f   libvcruntime:memcpy.obj
 0001:0000afd0       memmove                    000000018000bfd0 f   libvcruntime:memcpy.obj
 0001:0000b408       _purecall                  000000018000c408 f   libvcruntime:purevirt.obj
 0001:0000b444       __DestructExceptionObject  000000018000c444 f   libvcruntime:frame.obj
 0001:0000b4cc       ??0bad_exception@std@@QEAA@AEBV01@@Z 000000018000c4cc f i libvcruntime:frame.obj
 0001:0000b50c       ??0bad_exception@std@@QEAA@XZ 000000018000c50c f i libvcruntime:frame.obj
 0001:0000be88       ?_CallMemberFunction0@@YAXPEAXP6AX0@Z@Z 000000018000ce88 f i libvcruntime:frame.obj
 0001:0000be8c       ?_CallMemberFunction1@@YAXPEAXP6AX0@Z0@Z 000000018000ce8c f i libvcruntime:frame.obj
 0001:0000be98       ?_CallMemberFunction2@@YAXPEAXP6AX0@Z0H@Z 000000018000ce98 f i libvcruntime:frame.obj
 0001:0000bea8       __AdjustPointer            000000018000cea8 f   libvcruntime:frame.obj
 0001:0000becc       __BuildCatchObject         000000018000cecc f   libvcruntime:frame.obj
 0001:0000bf90       __BuildCatchObjectHelper   000000018000cf90 f   libvcruntime:frame.obj
 0001:0000c170       __CxxCallCatchBlock        000000018000d170 f   libvcruntime:frame.obj
 0001:0000c35c       __FrameUnwindFilter        000000018000d35c f   libvcruntime:frame.obj
 0001:0000c3a8       __FrameUnwindToState       000000018000d3a8 f   libvcruntime:frame.obj
 0001:0000c53c       __InternalCxxFrameHandler  000000018000d53c f   libvcruntime:frame.obj
 0001:0000c794       __TypeMatch                000000018000d794 f   libvcruntime:frame.obj
 0001:0000c8d4       __std_terminate            000000018000d8d4 f   libvcruntime:frame.obj
 0001:0000c8e0       __std_exception_copy       000000018000d8e0 f   libvcruntime:std_exception.obj
 0001:0000c970       __std_exception_destroy    000000018000d970 f   libvcruntime:std_exception.obj
 0001:0000c998       _CxxThrowException         000000018000d998 f   libvcruntime:throw.obj
 0001:0000ca70       ?_ExecutionInCatch@@YAHPEAU_xDISPATCHER_CONTEXT@@PEBU_s_FuncInfo@@@Z 000000018000da70 f   libvcruntime:trnsctrl.obj
 0001:0000cae4       ?_GetEstablisherFrame@@YAPEA_KPEA_KPEAU_xDISPATCHER_CONTEXT@@PEBU_s_FuncInfo@@0@Z 000000018000dae4 f   libvcruntime:trnsctrl.obj
 0001:0000cbb0       ?_GetRangeOfTrysToCheck@@YAPEBU_s_TryBlockMapEntry@@PEA_KPEBU_s_FuncInfo@@HHPEAI2PEAU_xDISPATCHER_CONTEXT@@@Z 000000018000dbb0 f   libvcruntime:trnsctrl.obj
 0001:0000ccdc       ?__FrameUnwindToEmptyState@@YAXPEA_KPEAU_xDISPATCHER_CONTEXT@@PEBU_s_FuncInfo@@@Z 000000018000dcdc f   libvcruntime:trnsctrl.obj
 0001:0000cd70       ?__SehTransFilter@@YAHPEAU_EXCEPTION_POINTERS@@PEAUEHExceptionRecord@@PEA_KPEAU_CONTEXT@@PEAU_xDISPATCHER_CONTEXT@@PEBU_s_FuncInfo@@PEAH@Z 000000018000dd70 f   libvcruntime:trnsctrl.obj
 0001:0000ce08       _CallSETranslator          000000018000de08 f   libvcruntime:trnsctrl.obj
 0001:0000ce60       _CreateFrameInfo           000000018000de60 f   libvcruntime:trnsctrl.obj
 0001:0000ce9c       _FindAndUnlinkFrame        000000018000de9c f   libvcruntime:trnsctrl.obj
 0001:0000cef4       _GetImageBase              000000018000def4 f   libvcruntime:trnsctrl.obj
 0001:0000cf08       _GetThrowImageBase         000000018000df08 f   libvcruntime:trnsctrl.obj
 0001:0000cf1c       _IsExceptionObjectToBeDestroyed 000000018000df1c f   libvcruntime:trnsctrl.obj
 0001:0000cf4c       _SetImageBase              000000018000df4c f   libvcruntime:trnsctrl.obj
 0001:0000cf64       _SetThrowImageBase         000000018000df64 f   libvcruntime:trnsctrl.obj
 0001:0000cf7c       _UnwindNestedFrames        000000018000df7c f   libvcruntime:trnsctrl.obj
 0001:0000d0a0       __CxxFrameHandler3         000000018000e0a0 f   libvcruntime:trnsctrl.obj
 0001:0000d130       memset                     000000018000e130 f   libvcruntime:memset.obj
 0001:0000d2e0       memcmp                     000000018000e2e0 f   libvcruntime:memcmp.obj
 0001:0000d570       __vcrt_FlsAlloc            000000018000e570 f   libvcruntime:winapi_downlevel.obj
 0001:0000d5c4       __vcrt_FlsFree             000000018000e5c4 f   libvcruntime:winapi_downlevel.obj
 0001:0000d618       __vcrt_FlsGetValue         000000018000e618 f   libvcruntime:winapi_downlevel.obj
 0001:0000d66c       __vcrt_FlsSetValue         000000018000e66c f   libvcruntime:winapi_downlevel.obj
 0001:0000d6d4       __vcrt_InitializeCriticalSectionEx 000000018000e6d4 f   libvcruntime:winapi_downlevel.obj
 0001:0000d74c       __vcrt_initialize_winapi_thunks 000000018000e74c f   libvcruntime:winapi_downlevel.obj
 0001:0000d798       __vcrt_uninitialize_winapi_thunks 000000018000e798 f   libvcruntime:winapi_downlevel.obj
 0001:0000d7d8       __vcrt_initialize          000000018000e7d8 f   libvcruntime:initialization.obj
 0001:0000d80c       __vcrt_thread_attach       000000018000e80c f   libvcruntime:initialization.obj
 0001:0000d820       __vcrt_thread_detach       000000018000e820 f   libvcruntime:initialization.obj
 0001:0000d834       __vcrt_uninitialize        000000018000e834 f   libvcruntime:initialization.obj
 0001:0000d854       __vcrt_uninitialize_critical 000000018000e854 f   libvcruntime:initialization.obj
 0001:0000d864       __C_specific_handler       000000018000e864 f   libvcruntime:_chandler_.obj
 0001:0000da60       __std_type_info_compare    000000018000ea60 f   libvcruntime:std_type_info.obj
 0001:0000da88       __std_type_info_destroy_list 000000018000ea88 f   libvcruntime:std_type_info.obj
 0001:0000dab4       __vcrt_initialize_pure_virtual_call_handler 000000018000eab4 f   libvcruntime:purevirt_data.obj
 0001:0000dad8       __vcrt_freefls             000000018000ead8 f   libvcruntime:per_thread_data.obj
 0001:0000daf8       __vcrt_freeptd             000000018000eaf8 f   libvcruntime:per_thread_data.obj
 0001:0000db48       __vcrt_getptd              000000018000eb48 f   libvcruntime:per_thread_data.obj
 0001:0000db64       __vcrt_getptd_noexit       000000018000eb64 f   libvcruntime:per_thread_data.obj
 0001:0000dc1c       __vcrt_initialize_ptd      000000018000ec1c f   libvcruntime:per_thread_data.obj
 0001:0000dc5c       __vcrt_uninitialize_ptd    000000018000ec5c f   libvcruntime:per_thread_data.obj
 0001:0000dc80       ?__GetCurrentState@@YAHPEA_KPEAU_xDISPATCHER_CONTEXT@@PEBU_s_FuncInfo@@@Z 000000018000ec80 f   libvcruntime:ehstate.obj
 0001:0000dca8       ?__GetUnwindTryBlock@@YAHPEA_KPEAU_xDISPATCHER_CONTEXT@@PEBU_s_FuncInfo@@@Z 000000018000eca8 f   libvcruntime:ehstate.obj
 0001:0000dcd4       ?__SetState@@YAXPEA_KPEAU_xDISPATCHER_CONTEXT@@PEBU_s_FuncInfo@@H@Z 000000018000ecd4 f   libvcruntime:ehstate.obj
 0001:0000dce0       ?__SetUnwindTryBlock@@YAXPEA_KPEAU_xDISPATCHER_CONTEXT@@PEBU_s_FuncInfo@@H@Z 000000018000ece0 f   libvcruntime:ehstate.obj
 0001:0000dd1c       ?__StateFromControlPc@@YAHPEBU_s_FuncInfo@@PEAU_xDISPATCHER_CONTEXT@@@Z 000000018000ed1c f   libvcruntime:ehstate.obj
 0001:0000dd24       ?__StateFromIp@@YAHPEBU_s_FuncInfo@@PEAU_xDISPATCHER_CONTEXT@@_J@Z 000000018000ed24 f   libvcruntime:ehstate.obj
 0001:0000dda0       _CallSettingFrame          000000018000eda0 f   libvcruntime:handlers.obj
 0001:0000ddf0       _local_unwind              000000018000edf0 f   libvcruntime:_jmpuwind_.obj
 0001:0000de20       _NLG_Notify                000000018000ee20 f   libvcruntime:_jmpuwind_.obj
 0001:0000de40       __NLG_Dispatch2            000000018000ee40 f   libvcruntime:_jmpuwind_.obj
 0001:0000de50       __NLG_Return2              000000018000ee50 f   libvcruntime:_jmpuwind_.obj
 0001:0000de54       __vcrt_initialize_locks    000000018000ee54 f   libvcruntime:locks.obj
 0001:0000de9c       __vcrt_uninitialize_locks  000000018000ee9c f   libvcruntime:locks.obj
 0001:0000ded4       __acrt_call_reportfault    000000018000eed4 f   libucrt:invalid_parameter.obj
 0001:0000e030       __acrt_initialize_invalid_parameter_handler 000000018000f030 f   libucrt:invalid_parameter.obj
 0001:0000e038       _invalid_parameter         000000018000f038 f   libucrt:invalid_parameter.obj
 0001:0000e0e0       _invalid_parameter_noinfo  000000018000f0e0 f   libucrt:invalid_parameter.obj
 0001:0000e100       _invalid_parameter_noinfo_noreturn 000000018000f100 f   libucrt:invalid_parameter.obj
 0001:0000e130       _invoke_watson             000000018000f130 f   libucrt:invalid_parameter.obj
 0001:0000e178       ??0_LocaleUpdate@@QEAA@QEAU__crt_locale_pointers@@@Z 000000018000f178 f i libucrt:stricmp.obj
 0001:0000e208       __ascii_stricmp            000000018000f208 f   libucrt:stricmp.obj
 0001:0000e244       _stricmp                   000000018000f244 f   libucrt:stricmp.obj
 0001:0000e28c       _stricmp_l                 000000018000f28c f   libucrt:stricmp.obj
 0001:0000e340       free                       000000018000f340 f   libucrt:free.obj
 0001:0000e348       __acrt_errno_from_os_error 000000018000f348 f   libucrt:errno.obj
 0001:0000e390       __acrt_errno_map_os_error  000000018000f390 f   libucrt:errno.obj
 0001:0000e3e0       __doserrno                 000000018000f3e0 f   libucrt:errno.obj
 0001:0000e400       _errno                     000000018000f400 f   libucrt:errno.obj
 0001:0000e420       __acrt_initialize_stdio    000000018000f420 f   libucrt:_file.obj
 0001:0000e540       __acrt_iob_func            000000018000f540 f   libucrt:_file.obj
 0001:0000e554       __acrt_uninitialize_stdio  000000018000f554 f   libucrt:_file.obj
 0001:0000e5b0       _get_stream_buffer_pointers 000000018000f5b0 f   libucrt:_file.obj
 0001:0000e5f8       _lock_file                 000000018000f5f8 f   libucrt:_file.obj
 0001:0000e604       _unlock_file               000000018000f604 f   libucrt:_file.obj
 0001:0000e610       _fclose_nolock             000000018000f610 f   libucrt:fclose.obj
 0001:0000e694       fclose                     000000018000f694 f   libucrt:fclose.obj
 0001:0000e700       __acrt_stdio_flush_nolock  000000018000f700 f   libucrt:fflush.obj
 0001:0000e778       _fflush_nolock             000000018000f778 f   libucrt:fflush.obj
 0001:0000e7c4       _flushall                  000000018000f7c4 f   libucrt:fflush.obj
 0001:0000e8b4       fflush                     000000018000f8b4 f   libucrt:fflush.obj
 0001:0000e8f8       _fgetc_nolock              000000018000f8f8 f   libucrt:fgetc.obj
 0001:0000e93c       fgetc                      000000018000f93c f   libucrt:fgetc.obj
 0001:0000ea40       fgetpos                    000000018000fa40 f   libucrt:fgetpos.obj
 0001:0000ea8c       fputc                      000000018000fa8c f   libucrt:fputc.obj
 0001:0000ebac       fsetpos                    000000018000fbac f   libucrt:fsetpos.obj
 0001:0000ee58       _fseeki64                  000000018000fe58 f   libucrt:fseek.obj
 0001:0000ee60       ??$?RV<lambda_5d4c3fee44080f75d5d9762853974fe0>@@AEAV<lambda_532e024f4337e6fc7ad266c2bef9f4ed>@@V<lambda_c87bdc10097eb2402edb8ba9bdf0697b>@@@?$__crt_seh_guarded_call@_K@@QEAA_K$$QEAV<lambda_5d4c3fee44080f75d5d9762853974fe0>@@AEAV<lambda_532e024f4337e6fc7ad266c2bef9f4ed>@@$$QEAV<lambda_c87bdc10097eb2402edb8ba9bdf0697b>@@@Z 000000018000fe60 f i libucrt:fwrite.obj
 0001:0000ef04       _fwrite_nolock             000000018000ff04 f   libucrt:fwrite.obj
 0001:0000f0a0       fwrite                     00000001800100a0 f   libucrt:fwrite.obj
 0001:0000f124       ??$?RV<lambda_7a5ef57ff966f610505f1d28a3d40618>@@AEAV<lambda_b721fa326cdb32351d23dfa67958c160>@@V<lambda_5e0fb27672408a07956fe59e48ccb2aa>@@@?$__crt_seh_guarded_call@H@@QEAAH$$QEAV<lambda_7a5ef57ff966f610505f1d28a3d40618>@@AEAV<lambda_b721fa326cdb32351d23dfa67958c160>@@$$QEAV<lambda_5e0fb27672408a07956fe59e48ccb2aa>@@@Z 0000000180010124 f i libucrt:setvbuf.obj
 0001:0000f254       setvbuf                    0000000180010254 f   libucrt:setvbuf.obj
 0001:0000f2f4       _ungetc_nolock             00000001800102f4 f   libucrt:ungetc.obj
 0001:0000f404       ungetc                     0000000180010404 f   libucrt:ungetc.obj
 0001:0000f464       __acrt_initialize_locks    0000000180010464 f   libucrt:locks.obj
 0001:0000f4ac       __acrt_lock                00000001800104ac f   libucrt:locks.obj
 0001:0000f4c8       __acrt_uninitialize_locks  00000001800104c8 f   libucrt:locks.obj
 0001:0000f500       __acrt_unlock              0000000180010500 f   libucrt:locks.obj
 0001:0000f51c       _lock_locales              000000018001051c f   libucrt:locks.obj
 0001:0000f52c       _unlock_locales            000000018001052c f   libucrt:locks.obj
 0001:0000f53c       _calloc_base               000000018001053c f   libucrt:calloc_base.obj
 0001:0000f5b4       __pctype_func              00000001800105b4 f   libucrt:ctype.obj
 0001:0000f5e4       islower                    00000001800105e4 f i libucrt:_ctype.obj
 0001:0000f658       isupper                    0000000180010658 f i libucrt:_ctype.obj
 0001:0000f6cc       _wcsdup                    00000001800106cc f   libucrt:wcsdup.obj
 0001:0000f750       ___lc_codepage_func        0000000180010750 f   libucrt:initctype.obj
 0001:0000f780       ___lc_locale_name_func     0000000180010780 f   libucrt:initctype.obj
 0001:0000f7b4       __acrt_locale_initialize_ctype 00000001800107b4 f   libucrt:initctype.obj
 0001:0000fd88       malloc                     0000000180010d88 f   libucrt:malloc.obj
 0001:0000fe78       setlocale                  0000000180010e78 f   libucrt:setlocale.obj
 0001:00010044       abort                      0000000180011044 f   libucrt:abort.obj
 0001:0001009c       __strncnt                  000000018001109c f   libucrt:strncnt.obj
 0001:000100b4       _free_base                 00000001800110b4 f   libucrt:free_base.obj
 0001:000100f4       _malloc_base               00000001800110f4 f   libucrt:malloc_base.obj
 0001:00010154       _realloc_base              0000000180011154 f   libucrt:realloc_base.obj
 0001:000101e0       pow                        00000001800111e0 f   libucrt:pow.obj
 0001:00011880       powf                       0000000180012880 f   libucrt:powf.obj
 0001:00012748       wcscpy_s                   0000000180013748 f   libucrt:wcscpy_s.obj
 0001:000127b0       wcsnlen                    00000001800137b0 f   libucrt:strnlen.obj
 0001:00012a18       _ismbblead                 0000000180013a18 f   libucrt:ismbbyte.obj
 0001:00012a7c       _tolower_l                 0000000180013a7c f   libucrt:tolower_toupper.obj
 0001:00012bbc       __acrt_initialize_new_handler 0000000180013bbc f   libucrt:new_handler.obj
 0001:00012bc4       _callnewh                  0000000180013bc4 f   libucrt:new_handler.obj
 0001:00012c04       _query_new_handler         0000000180013c04 f   libucrt:new_handler.obj
 0001:00012c38       _seh_filter_dll            0000000180013c38 f   libucrt:exception_filter.obj
 0001:00012c4c       _seh_filter_exe            0000000180013c4c f   libucrt:exception_filter.obj
 0001:0001300c       __acrt_initialize_thread_local_exit_callback 000000018001400c f   libucrt:exit.obj
 0001:00013014       _cexit                     0000000180014014 f   libucrt:exit.obj
 0001:00013024       _exit                      0000000180014024 f   libucrt:exit.obj
 0001:00013030       _is_c_termination_complete 0000000180014030 f   libucrt:exit.obj
 0001:000131f4       __acrt_allocate_buffer_for_argv 00000001800141f4 f   libucrt:argv_parsing.obj
 0001:00013258       _configure_narrow_argv     0000000180014258 f   libucrt:argv_parsing.obj
 0001:000135b4       __dcrt_uninitialize_environments_nolock 00000001800145b4 f   libucrt:environment_initialization.obj
 0001:000135ec       _initialize_narrow_environment 00000001800145ec f   libucrt:environment_initialization.obj
 0001:000135f4       ??$?RV<lambda_b8c45f8f788dd370798f47cfe8ac3a86>@@AEAV<lambda_4e60a939b0d047cfe11ddc22648dfba9>@@V<lambda_332c3edc96d0294ec56c57d38c1cdfd5>@@@?$__crt_seh_guarded_call@H@@QEAAH$$QEAV<lambda_b8c45f8f788dd370798f47cfe8ac3a86>@@AEAV<lambda_4e60a939b0d047cfe11ddc22648dfba9>@@$$QEAV<lambda_332c3edc96d0294ec56c57d38c1cdfd5>@@@Z 00000001800145f4 f i libucrt:onexit.obj
 0001:00013630       ??$?RV<lambda_e24bbb7b643b32fcea6fa61b31d4c984>@@AEAV<lambda_275893d493268fdec8709772e3fcec0e>@@V<lambda_9d71df4d7cf3f480f8d633942495c3b0>@@@?$__crt_seh_guarded_call@H@@QEAAH$$QEAV<lambda_e24bbb7b643b32fcea6fa61b31d4c984>@@AEAV<lambda_275893d493268fdec8709772e3fcec0e>@@$$QEAV<lambda_9d71df4d7cf3f480f8d633942495c3b0>@@@Z 0000000180014630 f i libucrt:onexit.obj
 0001:000139ac       _crt_atexit                00000001800149ac f   libucrt:onexit.obj
 0001:000139bc       _execute_onexit_table      00000001800149bc f   libucrt:onexit.obj
 0001:000139f8       _initialize_onexit_table   00000001800149f8 f   libucrt:onexit.obj
 0001:00013a38       _register_onexit_function  0000000180014a38 f   libucrt:onexit.obj
 0001:00013ac8       __acrt_uninitialize_command_line 0000000180014ac8 f   libucrt:argv_data.obj
 0001:00013ac8       ?do_always_noconv@?$codecvt@DDU_Mbstatet@@@std@@MEBA_NXZ 0000000180014ac8 f   libcpmt:cout.obj
 0001:00013bb8       __acrt_initialize          0000000180014bb8 f   libucrt:initialization.obj
 0001:00013bcc       __acrt_thread_attach       0000000180014bcc f   libucrt:initialization.obj
 0001:00013be0       __acrt_thread_detach       0000000180014be0 f   libucrt:initialization.obj
 0001:00013bf0       __acrt_uninitialize        0000000180014bf0 f   libucrt:initialization.obj
 0001:00013c04       __acrt_uninitialize_critical 0000000180014c04 f   libucrt:initialization.obj
 0001:00013c14       _initterm                  0000000180014c14 f   libucrt:initterm.obj
 0001:00013c8c       _initterm_e                0000000180014c8c f   libucrt:initterm.obj
 0001:00013cd8       terminate                  0000000180014cd8 f   libucrt:terminate.obj
 0001:00013d00       strcpy_s                   0000000180014d00 f   libucrt:strcpy_s.obj
 0001:00013d60       ??$is_overflow_condition@K@__crt_strtox@@YA_NIK@Z 0000000180014d60 f i libucrt:atox.obj
 0001:00013d8c       ??$make_c_string_character_source@_W$$T@__crt_strtox@@YA?AV?$c_string_character_source@_W@0@QEB_W$$T@Z 0000000180014d8c f i libucrt:atox.obj
 0001:00013da0       ??$parse_integer@KV?$c_string_character_source@_W@__crt_strtox@@@__crt_strtox@@YAKQEAU__crt_locale_pointers@@V?$c_string_character_source@_W@0@H_N@Z 0000000180014da0 f i libucrt:atox.obj
 0001:00014474       _wtol                      0000000180015474 f   libucrt:atox.obj
 0001:000144a0       ??$?RV<lambda_46352004c1216016012b18bd6f87e700>@@AEAV<lambda_3bd07e1a1191394380780325891bf33f>@@V<lambda_334532d3f185bcaa59b5be82d7d22bff>@@@?$__crt_seh_guarded_call@X@@QEAAX$$QEAV<lambda_46352004c1216016012b18bd6f87e700>@@AEAV<lambda_3bd07e1a1191394380780325891bf33f>@@$$QEAV<lambda_334532d3f185bcaa59b5be82d7d22bff>@@@Z 00000001800154a0 f i libucrt:per_thread_data.obj
 0001:00014500       ??$?RV<lambda_5e887d1dcbef67a5eb4283622ba103bf>@@AEAV<lambda_4466841279450cc726390878d4a41900>@@V<lambda_341c25c0346d94847f1f3c463c57e077>@@@?$__crt_seh_guarded_call@X@@QEAAX$$QEAV<lambda_5e887d1dcbef67a5eb4283622ba103bf>@@AEAV<lambda_4466841279450cc726390878d4a41900>@@$$QEAV<lambda_341c25c0346d94847f1f3c463c57e077>@@@Z 0000000180015500 f i libucrt:per_thread_data.obj
 0001:00014548       ??$?RV<lambda_72d1df2b273a38828b1ce30cbf4cdab5>@@AEAV<lambda_876a65b173b8412d3a47c70a915b0cf4>@@V<lambda_41932305e351933ebe8f8be3ed8bb5dc>@@@?$__crt_seh_guarded_call@X@@QEAAX$$QEAV<lambda_72d1df2b273a38828b1ce30cbf4cdab5>@@AEAV<lambda_876a65b173b8412d3a47c70a915b0cf4>@@$$QEAV<lambda_41932305e351933ebe8f8be3ed8bb5dc>@@@Z 0000000180015548 f i libucrt:per_thread_data.obj
 0001:00014588       ??$?RV<lambda_fb3a7dec4e47f37f22dae91bb15c9095>@@AEAV<lambda_698284760c8add0bfb0756c19673e34b>@@V<lambda_dfb8eca1e75fef3034a8fb18dd509707>@@@?$__crt_seh_guarded_call@X@@QEAAX$$QEAV<lambda_fb3a7dec4e47f37f22dae91bb15c9095>@@AEAV<lambda_698284760c8add0bfb0756c19673e34b>@@$$QEAV<lambda_dfb8eca1e75fef3034a8fb18dd509707>@@@Z 0000000180015588 f i libucrt:per_thread_data.obj
 0001:00014818       __acrt_freeptd             0000000180015818 f   libucrt:per_thread_data.obj
 0001:0001485c       __acrt_getptd              000000018001585c f   libucrt:per_thread_data.obj
 0001:000148f0       __acrt_getptd_noexit       00000001800158f0 f   libucrt:per_thread_data.obj
 0001:00014990       __acrt_initialize_ptd      0000000180015990 f   libucrt:per_thread_data.obj
 0001:000149cc       __acrt_uninitialize_ptd    00000001800159cc f   libucrt:per_thread_data.obj
 0001:000149f0       __acrt_update_locale_info  00000001800159f0 f   libucrt:locale_update.obj
 0001:00014a24       __acrt_update_multibyte_info 0000000180015a24 f   libucrt:locale_update.obj
 0001:00014a58       ??$?RV<lambda_5df02c53a8f32f81fd64e5bbb78039f1>@@AEAV<lambda_2af78c5f5901b1372d98f9ab3177dfa6>@@AEAV<lambda_f51fe5fd7c79a33db34fc9310f277369>@@@?$__crt_seh_guarded_call@X@@QEAAX$$QEAV<lambda_5df02c53a8f32f81fd64e5bbb78039f1>@@AEAV<lambda_2af78c5f5901b1372d98f9ab3177dfa6>@@AEAV<lambda_f51fe5fd7c79a33db34fc9310f277369>@@@Z 0000000180015a58 f i libucrt:wsetlocale.obj
 0001:00014a84       ??$?RV<lambda_d67e8342c384adda8f857579ab50b2ae>@@AEAV<lambda_30712929f77e709619002f448b6a9510>@@V<lambda_4525336fd7e478d965fb7ca7a337cad8>@@@?$__crt_seh_guarded_call@X@@QEAAX$$QEAV<lambda_d67e8342c384adda8f857579ab50b2ae>@@AEAV<lambda_30712929f77e709619002f448b6a9510>@@$$QEAV<lambda_4525336fd7e478d965fb7ca7a337cad8>@@@Z 0000000180015a84 f i libucrt:wsetlocale.obj
 0001:00014c50       __acrt_copy_locale_name    0000000180015c50 f   libucrt:wsetlocale.obj
 0001:00014cd4       __acrt_set_locale_changed  0000000180015cd4 f   libucrt:wsetlocale.obj
 0001:00014ce0       __acrt_uninitialize_locale 0000000180015ce0 f   libucrt:wsetlocale.obj
 0001:00014d28       __lc_lctowcs               0000000180015d28 f   libucrt:wsetlocale.obj
 0001:00014dcc       __lc_wcstolc               0000000180015dcc f   libucrt:wsetlocale.obj
 0001:00015044       _expandlocale              0000000180016044 f   libucrt:wsetlocale.obj
 0001:00015440       _wcscats                   0000000180016440 f   libucrt:wsetlocale.obj
 0001:000154a8       _wsetlocale                00000001800164a8 f   libucrt:wsetlocale.obj
 0001:00015d38       ??$?RV<lambda_630b2aca97f6d20d5b5ea6529ea6b6af>@@AEAV<lambda_af91936f1d075d609f72d9d8cba980af>@@V<lambda_e82fa975f615b5c7c7b0e4d178fdae67>@@@?$__crt_seh_guarded_call@H@@QEAAH$$QEAV<lambda_630b2aca97f6d20d5b5ea6529ea6b6af>@@AEAV<lambda_af91936f1d075d609f72d9d8cba980af>@@$$QEAV<lambda_e82fa975f615b5c7c7b0e4d178fdae67>@@@Z 0000000180016d38 f i libucrt:winapi_thunks.obj
 0001:00015f70       __acrt_EnumSystemLocalesEx 0000000180016f70 f   libucrt:winapi_thunks.obj
 0001:00016018       __acrt_FlsAlloc            0000000180017018 f   libucrt:winapi_thunks.obj
 0001:00016070       __acrt_FlsFree             0000000180017070 f   libucrt:winapi_thunks.obj
 0001:000160c8       __acrt_FlsGetValue         00000001800170c8 f   libucrt:winapi_thunks.obj
 0001:00016120       __acrt_FlsSetValue         0000000180017120 f   libucrt:winapi_thunks.obj
 0001:00016188       __acrt_GetLocaleInfoEx     0000000180017188 f   libucrt:winapi_thunks.obj
 0001:00016220       __acrt_GetUserDefaultLocaleName 0000000180017220 f   libucrt:winapi_thunks.obj
 0001:00016294       __acrt_InitializeCriticalSectionEx 0000000180017294 f   libucrt:winapi_thunks.obj
 0001:0001630c       __acrt_IsValidLocaleName   000000018001730c f   libucrt:winapi_thunks.obj
 0001:00016374       __acrt_LCIDToLocaleName    0000000180017374 f   libucrt:winapi_thunks.obj
 0001:00016400       __acrt_LCMapStringEx       0000000180017400 f   libucrt:winapi_thunks.obj
 0001:000164f0       __acrt_LocaleNameToLCID    00000001800174f0 f   libucrt:winapi_thunks.obj
 0001:00016558       __acrt_can_use_vista_locale_apis 0000000180017558 f   libucrt:winapi_thunks.obj
 0001:00016588       __acrt_initialize_winapi_thunks 0000000180017588 f   libucrt:winapi_thunks.obj
 0001:000165c0       __acrt_is_packaged_app     00000001800175c0 f   libucrt:winapi_thunks.obj
 0001:00016648       __acrt_uninitialize_winapi_thunks 0000000180017648 f   libucrt:winapi_thunks.obj
 0001:0001668c       _fcloseall                 000000018001768c f   libucrt:closeall.obj
 0001:00016740       __acrt_stdio_free_buffer_nolock 0000000180017740 f   libucrt:_freebuf.obj
 0001:00016968       __acrt_initialize_lowio    0000000180017968 f   libucrt:ioinit.obj
 0001:000169a4       __acrt_uninitialize_lowio  00000001800179a4 f   libucrt:ioinit.obj
 0001:000169e4       ??$?RV<lambda_bfedae4ebbf01fab1bb6dcc6a9e276e0>@@AEAV<lambda_2fe9b910cf3cbf4a0ab98a02ba45b3ec>@@V<lambda_237c231691f317818eb88cc1d5d642d6>@@@?$__crt_seh_guarded_call@H@@QEAAH$$QEAV<lambda_bfedae4ebbf01fab1bb6dcc6a9e276e0>@@AEAV<lambda_2fe9b910cf3cbf4a0ab98a02ba45b3ec>@@$$QEAV<lambda_237c231691f317818eb88cc1d5d642d6>@@@Z 00000001800179e4 f i libucrt:close.obj
 0001:00016a58       _close                     0000000180017a58 f   libucrt:close.obj
 0001:00016afc       _close_nolock              0000000180017afc f   libucrt:close.obj
 0001:00016bb8       _fileno                    0000000180017bb8 f   libucrt:fileno.obj
 0001:00016be0       ?__acrt_stdio_free_stream@@YAXV__crt_stdio_stream@@@Z 0000000180017be0 f   libucrt:stream.obj
 0001:00016c24       ??$?RV<lambda_b521505b218e5242e90febf6bfebc422>@@AEAV<lambda_6978c1fb23f02e42e1d9e99668cc68aa>@@V<lambda_314360699dd331753a4119843814e9a7>@@@?$__crt_seh_guarded_call@H@@QEAAH$$QEAV<lambda_b521505b218e5242e90febf6bfebc422>@@AEAV<lambda_6978c1fb23f02e42e1d9e99668cc68aa>@@$$QEAV<lambda_314360699dd331753a4119843814e9a7>@@@Z 0000000180017c24 f i libucrt:commit.obj
 0001:00016cb0       _commit                    0000000180017cb0 f   libucrt:commit.obj
 0001:000172e4       _write                     00000001800182e4 f   libucrt:write.obj
 0001:000173d0       _write_nolock              00000001800183d0 f   libucrt:write.obj
 0001:0001785c       __acrt_stdio_refill_and_read_narrow_nolock 000000018001885c f   libucrt:_filbuf.obj
 0001:00017d20       _ftelli64                  0000000180018d20 f   libucrt:ftell.obj
 0001:00017d28       _ftelli64_nolock           0000000180018d28 f   libucrt:ftell.obj
 0001:00017e34       __acrt_stdio_flush_and_write_narrow_nolock 0000000180018e34 f   libucrt:_flsbuf.obj
 0001:000180a8       _lseeki64                  00000001800190a8 f   libucrt:lseek.obj
 0001:000180b0       _lseeki64_nolock           00000001800190b0 f   libucrt:lseek.obj
 0001:000180b8       __acrt_stdio_begin_temporary_buffering_nolock 00000001800190b8 f   libucrt:_sftbuf.obj
 0001:00018188       __acrt_stdio_end_temporary_buffering_nolock 0000000180019188 f   libucrt:_sftbuf.obj
 0001:000181c4       __acrt_stdio_allocate_buffer_nolock 00000001800191c4 f   libucrt:_getbuf.obj
 0001:00018228       _query_new_mode            0000000180019228 f   libucrt:new_mode.obj
 0001:00018230       __acrt_initialize_heap     0000000180019230 f   libucrt:heap_handle.obj
 0001:0001824c       __acrt_uninitialize_heap   000000018001924c f   libucrt:heap_handle.obj
 0001:00018258       _isctype_l                 0000000180019258 f   libucrt:isctype.obj
 0001:00018508       __acrt_GetLocaleInfoA      0000000180019508 f   libucrt:getlocaleinfoa.obj
 0001:000186d0       __acrt_GetStringTypeA      00000001800196d0 f   libucrt:getstringtypea.obj
 0001:00018be0       __acrt_LCMapStringA        0000000180019be0 f   libucrt:lcmapstringa.obj
 0001:00018e54       _mbstowcs_s_l              0000000180019e54 f   libucrt:mbstowcs.obj
 0001:00018f84       mbstowcs_s                 0000000180019f84 f   libucrt:mbstowcs.obj
 0001:000192d8       _wcstombs_s_l              000000018001a2d8 f   libucrt:wcstombs.obj
 0001:000193c4       ??$?RV<lambda_c36588078e9f5dfd39652860aa6b3aaf>@@AEAV<lambda_ec61778202f4f5fc7e7711acc23c3bca>@@V<lambda_dc9d2797ccde5d239b4a0efae8ebd7db>@@@?$__crt_seh_guarded_call@P6AXH@Z@@QEAAP6AXH@Z$$QEAV<lambda_c36588078e9f5dfd39652860aa6b3aaf>@@AEAV<lambda_ec61778202f4f5fc7e7711acc23c3bca>@@$$QEAV<lambda_dc9d2797ccde5d239b4a0efae8ebd7db>@@@Z 000000018001a3c4 f i libucrt:signal.obj
 0001:0001940c       __acrt_get_sigabrt_handler 000000018001a40c f   libucrt:signal.obj
 0001:0001943c       __acrt_initialize_signal_handlers 000000018001a43c f   libucrt:signal.obj
 0001:0001945c       raise                      000000018001a45c f   libucrt:signal.obj
 0001:000196f8       iswctype                   000000018001a6f8 f   libucrt:iswctype.obj
 0001:00019768       _raise_exc                 000000018001a768 f   libucrt:fpexcept.obj
 0001:00019790       _raise_exc_ex              000000018001a790 f   libucrt:fpexcept.obj
 0001:00019a98       _raise_excf                000000018001aa98 f   libucrt:fpexcept.obj
 0001:00019ac4       _set_errno_from_matherr    000000018001aac4 f   libucrt:fpexcept.obj
 0001:00019af4       _clrfp                     000000018001aaf4 f   libucrt:fpctrl.obj
 0001:00019b14       _ctrlfp                    000000018001ab14 f   libucrt:fpctrl.obj
 0001:00019b90       _set_statfp                000000018001ab90 f   libucrt:fpctrl.obj
 0001:00019bb0       _statfp                    000000018001abb0 f   libucrt:fpctrl.obj
 0001:00019bc4       _mbtowc_l                  000000018001abc4 f   libucrt:mbtowc.obj
 0001:00019d0c       mbtowc                     000000018001ad0c f   libucrt:mbtowc.obj
 0001:00019d20       __acrt_initialize_fma3     000000018001ad20 f   libucrt:fma3_available.obj
 0001:00019d90       _pow_special               000000018001ad90 f   libucrt:pow_special.obj
 0001:00019eb4       _powf_special              000000018001aeb4 f   libucrt:pow_special.obj
 0001:0001a040       _wcsicmp                   000000018001b040 f   libucrt:wcsicmp.obj
 0001:0001a0c8       _wcsicmp_l                 000000018001b0c8 f   libucrt:wcsicmp.obj
 0001:0001a1b8       __acrt_initialize_timeset  000000018001b1b8 f   libucrt:timeset.obj
 0001:0001a1e8       _isleadbyte_l              000000018001b1e8 f i libucrt:_wctype.obj
 0001:0001a704       ?expand_if_necessary@?$argument_list@D@?A0xca0879c4@@AEAAHXZ 000000018001b704 f i libucrt:argv_wildcards.obj
 0001:0001a7cc       __acrt_expand_narrow_argv_wildcards 000000018001b7cc f   libucrt:argv_wildcards.obj
 0001:0001a7d4       ??$?RV<lambda_99476a1ad63dd22509b5d3e65b0ffc95>@@AEAV<lambda_ad1ced32f4ac17aa236e5ef05d6b3b7c>@@V<lambda_f7424dd8d45958661754dc4f2697e9c3>@@@?$__crt_seh_guarded_call@X@@QEAAX$$QEAV<lambda_99476a1ad63dd22509b5d3e65b0ffc95>@@AEAV<lambda_ad1ced32f4ac17aa236e5ef05d6b3b7c>@@$$QEAV<lambda_f7424dd8d45958661754dc4f2697e9c3>@@@Z 000000018001b7d4 f i libucrt:mbctype.obj
 0001:0001aed0       __acrt_initialize_multibyte 000000018001bed0 f   libucrt:mbctype.obj
 0001:0001aef8       __acrt_update_thread_multibyte_data 000000018001bef8 f   libucrt:mbctype.obj
 0001:0001afb8       _setmbcp_nolock            000000018001bfb8 f   libucrt:mbctype.obj
 0001:0001b260       __acrt_initialize_command_line 000000018001c260 f   libucrt:argv_data.obj
 0001:0001b288       __dcrt_get_narrow_environment_from_os 000000018001c288 f   libucrt:get_environment_from_os.obj
 0001:0001b38c       _recalloc                  000000018001c38c f   libucrt:recalloc.obj
 0001:0001b394       _recalloc_base             000000018001c394 f   libucrt:recalloc.obj
 0001:0001b42c       __acrt_execute_initializers 000000018001c42c f   libucrt:shared_initialization.obj
 0001:0001b4c0       __acrt_execute_uninitializers 000000018001c4c0 f   libucrt:shared_initialization.obj
 0001:0001b510       __acrt_has_user_matherr    000000018001c510 f   libucrt:matherr.obj
 0001:0001b530       __acrt_initialize_user_matherr 000000018001c530 f   libucrt:matherr.obj
 0001:0001b538       __acrt_invoke_user_matherr 000000018001c538 f   libucrt:matherr.obj
 0001:0001b580       __acrt_add_locale_ref      000000018001c580 f   libucrt:locale_refcounting.obj
 0001:0001b60c       __acrt_free_locale         000000018001c60c f   libucrt:locale_refcounting.obj
 0001:0001b784       __acrt_locale_add_lc_time_reference 000000018001c784 f   libucrt:locale_refcounting.obj
 0001:0001b7ac       __acrt_locale_free_lc_time_if_unreferenced 000000018001c7ac f   libucrt:locale_refcounting.obj
 0001:0001b7e4       __acrt_locale_release_lc_time_reference 000000018001c7e4 f   libucrt:locale_refcounting.obj
 0001:0001b80c       __acrt_release_locale_ref  000000018001c80c f   libucrt:locale_refcounting.obj
 0001:0001b8b4       __acrt_update_thread_locale_data 000000018001c8b4 f   libucrt:locale_refcounting.obj
 0001:0001b924       _updatetlocinfoEx_nolock   000000018001c924 f   libucrt:locale_refcounting.obj
 0001:0001b98c       __acrt_locale_free_monetary 000000018001c98c f   libucrt:initmon.obj
 0001:0001ba98       __acrt_locale_initialize_monetary 000000018001ca98 f   libucrt:initmon.obj
 0001:0001bfd0       __acrt_locale_free_numeric 000000018001cfd0 f   libucrt:initnum.obj
 0001:0001c03c       __acrt_locale_initialize_numeric 000000018001d03c f   libucrt:initnum.obj
 0001:0001c6c0       __acrt_locale_free_time    000000018001d6c0 f   libucrt:inittime.obj
 0001:0001c7c8       __acrt_locale_initialize_time 000000018001d7c8 f   libucrt:inittime.obj
 0001:0001c85c       wcscat_s                   000000018001d85c f   libucrt:wcscat_s.obj
 0001:0001c8dc       wcsncpy_s                  000000018001d8dc f   libucrt:wcsncpy_s.obj
 0001:0001c9c0       wcscspn                    000000018001d9c0 f   libucrt:wcscspn.obj
 0001:0001ca00       wcsncmp                    000000018001da00 f   libucrt:wcsncmp.obj
 0001:0001ca2c       wcspbrk                    000000018001da2c f   libucrt:wcspbrk.obj
 0001:0001d2d0       __acrt_get_qualified_locale 000000018001e2d0 f   libucrt:get_qualified_locale.obj
 0001:0001dcbc       __acrt_get_qualified_locale_downlevel 000000018001ecbc f   libucrt:getqloc_downlevel.obj
 0001:0001e014       __acrt_DownlevelLCIDToLocaleName 000000018001f014 f   libucrt:lcidtoname_downlevel.obj
 0001:0001e0f8       __acrt_DownlevelLocaleNameToLCID 000000018001f0f8 f   libucrt:lcidtoname_downlevel.obj
 0001:0001e12c       __acrt_lowio_create_handle_array 000000018001f12c f   libucrt:osfinfo.obj
 0001:0001e1c4       __acrt_lowio_destroy_handle_array 000000018001f1c4 f   libucrt:osfinfo.obj
 0001:0001e214       __acrt_lowio_ensure_fh_exists 000000018001f214 f   libucrt:osfinfo.obj
 0001:0001e2cc       __acrt_lowio_lock_fh       000000018001f2cc f   libucrt:osfinfo.obj
 0001:0001e2f0       __acrt_lowio_unlock_fh     000000018001f2f0 f   libucrt:osfinfo.obj
 0001:0001e314       _free_osfhnd               000000018001f314 f   libucrt:osfinfo.obj
 0001:0001e3d0       _get_osfhandle             000000018001f3d0 f   libucrt:osfinfo.obj
 0001:0001e448       _isatty                    000000018001f448 f   libucrt:isatty.obj
 0001:0001e4a8       _putwch_nolock             000000018001f4a8 f   libucrt:putwch.obj
 0001:0001ea34       _read                      000000018001fa34 f   libucrt:read.obj
 0001:0001eb4c       _read_nolock               000000018001fb4c f   libucrt:read.obj
 0001:0001efb4       strncpy_s                  000000018001ffb4 f   libucrt:strncpy_s.obj
 0001:0001f0a0       _get_fpsr                  00000001800200a0 f   libucrt:fpsr.obj
 0001:0001f0b0       _set_fpsr                  00000001800200b0 f   libucrt:fpsr.obj
 0001:0001f0ba       _fclrf                     00000001800200ba f   libucrt:fpsr.obj
 0001:0001f0ce       _frnd                      00000001800200ce f   libucrt:fpsr.obj
 0001:0001f214       _handle_error              0000000180020214 f   libucrt:libm_error.obj
 0001:0001f33c       _handle_errorf             000000018002033c f   libucrt:libm_error.obj
 0001:0001f470       _handle_nan                0000000180020470 f   libucrt:libm_error.obj
 0001:0001f48c       _handle_nanf               000000018002048c f   libucrt:libm_error.obj
 0001:0001f49c       _towlower_l                000000018002049c f   libucrt:towlower.obj
 0001:0001f630       qsort                      0000000180020630 f   libucrt:qsort.obj
 0001:0001f964       strpbrk                    0000000180020964 f   libucrt:strpbrk.obj
 0001:0001fa04       _mbsdec                    0000000180020a04 f   libucrt:mbsdec.obj
 0001:0001fa0c       _mbsdec_l                  0000000180020a0c f   libucrt:mbsdec.obj
 0001:0001fabc       _msize                     0000000180020abc f   libucrt:msize.obj
 0001:0001fc20       _itow_s                    0000000180020c20 f   libucrt:xtoa.obj
 0001:0001fc40       _wcsnicmp                  0000000180020c40 f   libucrt:wcsnicmp.obj
 0001:0001fcdc       _wcsnicmp_l                0000000180020cdc f   libucrt:wcsnicmp.obj
 0001:0001fdf4       wcscmp                     0000000180020df4 f   libucrt:wcscmp.obj
 0001:0001fe2c       _query_app_type            0000000180020e2c f   libucrt:report_runtime_error.obj
 0001:0001fe34       __dcrt_lowio_initialize_console_output 0000000180020e34 f   libucrt:initcon.obj
 0001:0001fe70       __dcrt_terminate_console_output 0000000180020e70 f   libucrt:initcon.obj
 0001:0001fe90       log10                      0000000180020e90 f   libucrt:log10.obj
 0001:0002043c       __acrt_LCMapStringW        000000018002143c f   libucrt:lcmapstringw.obj
 0001:000204d0       _log10_special             00000001800214d0 f   libucrt:log_special.obj
 0001:00020586       IsProcessorFeaturePresent  0000000180021586 f   kernel32:KERNEL32.dll
 0001:0002058c       RtlUnwindEx                000000018002158c f   kernel32:KERNEL32.dll
 0001:00020594       ?DloadAcquireSectionWriteAccess@@YAXXZ 0000000180021594 f i DelayImp:delayhlp.obj
 0001:00020650       ?DloadGetSRWLockFunctionPointers@@YAEXZ 0000000180021650 f i DelayImp:delayhlp.obj
 0001:000206ec       ?DloadMakePermanentImageCommit@@YAXPEAX_K@Z 00000001800216ec f i DelayImp:delayhlp.obj
 0001:00020784       ?DloadObtainSection@@YAPEAXPEAK0@Z 0000000180021784 f i DelayImp:delayhlp.obj
 0001:0002081c       ?DloadProtectSection@@YAXKPEAK@Z 000000018002181c f i DelayImp:delayhlp.obj
 0001:000208ac       ?DloadReleaseSectionWriteAccess@@YAXXZ 00000001800218ac f i DelayImp:delayhlp.obj
 0001:00020950       __delayLoadHelper2         0000000180021950 f   DelayImp:delayhlp.obj
 0001:00020c50       _FindPESection             0000000180021c50 f   LIBCMT:pesect.obj
 0001:00020ca0       _IsNonwritableInCurrentImage 0000000180021ca0 f   LIBCMT:pesect.obj
 0001:00020cf0       _ValidateImageBase         0000000180021cf0 f   LIBCMT:pesect.obj
 0001:00020d20       wcschr                     0000000180021d20 f   libvcruntime:wcschr.obj
 0001:00020dd0       _guard_dispatch_icall_nop  0000000180021dd0 f   LIBCMT:_guard_dispatch_.obj
 0001:000213b0       ??__F_Static@?1???$_Immortalize@V_Iostream_error_category@std@@@std@@YAAEAV_Iostream_error_category@0@XZ@YAXXZ 00000001800223b0 f i familyTree.obj
 0002:00000000       __imp_GetModuleHandleA     0000000180023000     kernel32:KERNEL32.dll
 0002:00000008       __imp_WideCharToMultiByte  0000000180023008     kernel32:KERNEL32.dll
 0002:00000010       __imp_EncodePointer        0000000180023010     kernel32:KERNEL32.dll
 0002:00000018       __imp_DecodePointer        0000000180023018     kernel32:KERNEL32.dll
 0002:00000020       __imp_EnterCriticalSection 0000000180023020     kernel32:KERNEL32.dll
 0002:00000028       __imp_LeaveCriticalSection 0000000180023028     kernel32:KERNEL32.dll
 0002:00000030       __imp_DeleteCriticalSection 0000000180023030     kernel32:KERNEL32.dll
 0002:00000038       __imp_MultiByteToWideChar  0000000180023038     kernel32:KERNEL32.dll
 0002:00000040       __imp_SetLastError         0000000180023040     kernel32:KERNEL32.dll
 0002:00000048       __imp_InitializeCriticalSectionAndSpinCount 0000000180023048     kernel32:KERNEL32.dll
 0002:00000050       __imp_CreateEventW         0000000180023050     kernel32:KERNEL32.dll
 0002:00000058       __imp_TlsAlloc             0000000180023058     kernel32:KERNEL32.dll
 0002:00000060       __imp_TlsGetValue          0000000180023060     kernel32:KERNEL32.dll
 0002:00000068       __imp_TlsSetValue          0000000180023068     kernel32:KERNEL32.dll
 0002:00000070       __imp_TlsFree              0000000180023070     kernel32:KERNEL32.dll
 0002:00000078       __imp_GetSystemTimeAsFileTime 0000000180023078     kernel32:KERNEL32.dll
 0002:00000080       __imp_GetModuleHandleW     0000000180023080     kernel32:KERNEL32.dll
 0002:00000088       __imp_GetProcAddress       0000000180023088     kernel32:KERNEL32.dll
 0002:00000090       __imp_LCMapStringW         0000000180023090     kernel32:KERNEL32.dll
 0002:00000098       __imp_GetLocaleInfoW       0000000180023098     kernel32:KERNEL32.dll
 0002:000000a0       __imp_GetStringTypeW       00000001800230a0     kernel32:KERNEL32.dll
 0002:000000a8       __imp_GetCPInfo            00000001800230a8     kernel32:KERNEL32.dll
 0002:000000b0       __imp_CloseHandle          00000001800230b0     kernel32:KERNEL32.dll
 0002:000000b8       __imp_SetEvent             00000001800230b8     kernel32:KERNEL32.dll
 0002:000000c0       __imp_ResetEvent           00000001800230c0     kernel32:KERNEL32.dll
 0002:000000c8       __imp_WaitForSingleObjectEx 00000001800230c8     kernel32:KERNEL32.dll
 0002:000000d0       __imp_RtlCaptureContext    00000001800230d0     kernel32:KERNEL32.dll
 0002:000000d8       __imp_RtlLookupFunctionEntry 00000001800230d8     kernel32:KERNEL32.dll
 0002:000000e0       __imp_RtlVirtualUnwind     00000001800230e0     kernel32:KERNEL32.dll
 0002:000000e8       __imp_UnhandledExceptionFilter 00000001800230e8     kernel32:KERNEL32.dll
 0002:000000f0       __imp_SetUnhandledExceptionFilter 00000001800230f0     kernel32:KERNEL32.dll
 0002:000000f8       __imp_GetCurrentProcess    00000001800230f8     kernel32:KERNEL32.dll
 0002:00000100       __imp_TerminateProcess     0000000180023100     kernel32:KERNEL32.dll
 0002:00000108       __imp_IsProcessorFeaturePresent 0000000180023108     kernel32:KERNEL32.dll
 0002:00000110       __imp_IsDebuggerPresent    0000000180023110     kernel32:KERNEL32.dll
 0002:00000118       __imp_GetStartupInfoW      0000000180023118     kernel32:KERNEL32.dll
 0002:00000120       __imp_QueryPerformanceCounter 0000000180023120     kernel32:KERNEL32.dll
 0002:00000128       __imp_GetCurrentProcessId  0000000180023128     kernel32:KERNEL32.dll
 0002:00000130       __imp_GetCurrentThreadId   0000000180023130     kernel32:KERNEL32.dll
 0002:00000138       __imp_InitializeSListHead  0000000180023138     kernel32:KERNEL32.dll
 0002:00000140       __imp_RtlPcToFileHeader    0000000180023140     kernel32:KERNEL32.dll
 0002:00000148       __imp_RaiseException       0000000180023148     kernel32:KERNEL32.dll
 0002:00000150       __imp_RtlUnwindEx          0000000180023150     kernel32:KERNEL32.dll
 0002:00000158       __imp_GetLastError         0000000180023158     kernel32:KERNEL32.dll
 0002:00000160       __imp_FreeLibrary          0000000180023160     kernel32:KERNEL32.dll
 0002:00000168       __imp_LoadLibraryExW       0000000180023168     kernel32:KERNEL32.dll
 0002:00000170       __imp_InterlockedFlushSList 0000000180023170     kernel32:KERNEL32.dll
 0002:00000178       __imp_HeapAlloc            0000000180023178     kernel32:KERNEL32.dll
 0002:00000180       __imp_HeapFree             0000000180023180     kernel32:KERNEL32.dll
 0002:00000188       __imp_HeapReAlloc          0000000180023188     kernel32:KERNEL32.dll
 0002:00000190       __imp_ExitProcess          0000000180023190     kernel32:KERNEL32.dll
 0002:00000198       __imp_GetModuleHandleExW   0000000180023198     kernel32:KERNEL32.dll
 0002:000001a0       __imp_GetModuleFileNameA   00000001800231a0     kernel32:KERNEL32.dll
 0002:000001a8       __imp_GetACP               00000001800231a8     kernel32:KERNEL32.dll
 0002:000001b0       __imp_IsValidLocale        00000001800231b0     kernel32:KERNEL32.dll
 0002:000001b8       __imp_GetUserDefaultLCID   00000001800231b8     kernel32:KERNEL32.dll
 0002:000001c0       __imp_EnumSystemLocalesW   00000001800231c0     kernel32:KERNEL32.dll
 0002:000001c8       __imp_GetStdHandle         00000001800231c8     kernel32:KERNEL32.dll
 0002:000001d0       __imp_GetFileType          00000001800231d0     kernel32:KERNEL32.dll
 0002:000001d8       __imp_FlushFileBuffers     00000001800231d8     kernel32:KERNEL32.dll
 0002:000001e0       __imp_WriteFile            00000001800231e0     kernel32:KERNEL32.dll
 0002:000001e8       __imp_GetConsoleCP         00000001800231e8     kernel32:KERNEL32.dll
 0002:000001f0       __imp_GetConsoleMode       00000001800231f0     kernel32:KERNEL32.dll
 0002:000001f8       __imp_ReadFile             00000001800231f8     kernel32:KERNEL32.dll
 0002:00000200       __imp_SetFilePointerEx     0000000180023200     kernel32:KERNEL32.dll
 0002:00000208       __imp_GetProcessHeap       0000000180023208     kernel32:KERNEL32.dll
 0002:00000210       __imp_FindClose            0000000180023210     kernel32:KERNEL32.dll
 0002:00000218       __imp_FindFirstFileExA     0000000180023218     kernel32:KERNEL32.dll
 0002:00000220       __imp_FindNextFileA        0000000180023220     kernel32:KERNEL32.dll
 0002:00000228       __imp_IsValidCodePage      0000000180023228     kernel32:KERNEL32.dll
 0002:00000230       __imp_GetOEMCP             0000000180023230     kernel32:KERNEL32.dll
 0002:00000238       __imp_GetCommandLineA      0000000180023238     kernel32:KERNEL32.dll
 0002:00000240       __imp_GetCommandLineW      0000000180023240     kernel32:KERNEL32.dll
 0002:00000248       __imp_GetEnvironmentStringsW 0000000180023248     kernel32:KERNEL32.dll
 0002:00000250       __imp_FreeEnvironmentStringsW 0000000180023250     kernel32:KERNEL32.dll
 0002:00000258       __imp_SetStdHandle         0000000180023258     kernel32:KERNEL32.dll
 0002:00000260       __imp_WriteConsoleW        0000000180023260     kernel32:KERNEL32.dll
 0002:00000268       __imp_ReadConsoleW         0000000180023268     kernel32:KERNEL32.dll
 0002:00000270       __imp_HeapSize             0000000180023270     kernel32:KERNEL32.dll
 0002:00000278       __imp_CreateFileW          0000000180023278     kernel32:KERNEL32.dll
 0002:00000280       __imp_GetSystemInfo        0000000180023280     kernel32:KERNEL32.dll
 0002:00000288       __imp_VirtualProtect       0000000180023288     kernel32:KERNEL32.dll
 0002:00000290       __imp_VirtualQuery         0000000180023290     kernel32:KERNEL32.dll
 0002:00000298       __imp_LoadLibraryExA       0000000180023298     kernel32:KERNEL32.dll
 0002:000002a0       \177KERNEL32_NULL_THUNK_DATA 00000001800232a0     kernel32:KERNEL32.dll
 0002:000002a8       __guard_check_icall_fptr   00000001800232a8     LIBCMT:guard_support.obj
 0002:000002b0       __guard_dispatch_icall_fptr 00000001800232b0     LIBCMT:guard_support.obj
 0002:000002b8       __xc_a                     00000001800232b8     LIBCMT:initializers.obj
 0002:00000310       _register_familyTree_      0000000180023310     familyTree.obj
 0002:00000318       __xc_z                     0000000180023318     LIBCMT:initializers.obj
 0002:00000320       __xi_a                     0000000180023320     LIBCMT:initializers.obj
 0002:00000338       __acrt_stdio_initializer   0000000180023338     libucrt:stdio_initializer.obj
 0002:00000340       __acrt_tran_fma3_initializer 0000000180023340     libucrt:fma3_initializer.obj
 0002:00000348       __acrt_timeset_initializer 0000000180023348     libucrt:timeset_initializer.obj
 0002:00000350       __acrt_multibyte_initializer 0000000180023350     libucrt:multibyte_initializer.obj
 0002:00000358       __xi_z                     0000000180023358     LIBCMT:initializers.obj
 0002:00000360       __xl_a                     0000000180023360     LIBCMT:tlssup.obj
 0002:00000368       __xl_z                     0000000180023368     LIBCMT:tlssup.obj
 0002:00000370       __xp_a                     0000000180023370     LIBCMT:initializers.obj
 0002:00000378       __acrt_locale_terminator   0000000180023378     libucrt:locale_initializer.obj
 0002:00000380       __dcrt_console_output_terminator 0000000180023380     libucrt:console_output_initializer.obj
 0002:00000388       __acrt_stdio_terminator    0000000180023388     libucrt:stdio_initializer.obj
 0002:00000390       __xp_z                     0000000180023390     LIBCMT:initializers.obj
 0002:00000398       __xt_a                     0000000180023398     LIBCMT:initializers.obj
 0002:000003a0       __xt_z                     00000001800233a0     LIBCMT:initializers.obj
 0002:000003b0       __sz_node_exe              00000001800233b0     node:node.exe
 0002:00000738       ??_7exception@std@@6B@     0000000180023738     libcpmt:cout.obj
 0002:00000748       ??_C@_0BC@EOODALEL@Unknown?5exception?$AA@ 0000000180023748     libcpmt:cout.obj
 0002:00000768       ??_7runtime_error@std@@6B@ 0000000180023768     libcpmt:cout.obj
 0002:00000780       ??_7bad_cast@std@@6B@      0000000180023780     libcpmt:cout.obj
 0002:00000790       ??_C@_08EPJLHIJG@bad?5cast?$AA@ 0000000180023790     libcpmt:cout.obj
 0002:000007a0       ??_C@_0BA@ELKIONDK@bad?5locale?5name?$AA@ 00000001800237a0     libcpmt:cout.obj
 0002:000007b8       ??_7_Facet_base@std@@6B@   00000001800237b8     libcpmt:cout.obj
 0002:000007d8       ??_7?$ctype@D@std@@6B@     00000001800237d8     libcpmt:cout.obj
 0002:00000838       ??_7error_category@std@@6B@ 0000000180023838     libcpmt:cout.obj
 0002:00000870       ??_7_System_error@std@@6B@ 0000000180023870     libcpmt:cout.obj
 0002:00000888       ??_7_Iostream_error_category@std@@6B@ 0000000180023888     libcpmt:cout.obj
 0002:000008c0       ??_7failure@ios_base@std@@6B@ 00000001800238c0     libcpmt:cout.obj
 0002:000008d8       ??_7ios_base@std@@6B@      00000001800238d8     libcpmt:cout.obj
 0002:000008e8       ??_7?$basic_streambuf@DU?$char_traits@D@std@@@std@@6B@ 00000001800238e8     libcpmt:cout.obj
 0002:00000968       ??_7?$basic_filebuf@DU?$char_traits@D@std@@@std@@6B@ 0000000180023968     libcpmt:cout.obj
 0002:000009e8       ??_7?$basic_ios@DU?$char_traits@D@std@@@std@@6B@ 00000001800239e8     libcpmt:cout.obj
 0002:000009f8       ??_7?$basic_ostream@DU?$char_traits@D@std@@@std@@6B@ 00000001800239f8     libcpmt:cout.obj
 0002:00000a00       ??_8?$basic_ostream@DU?$char_traits@D@std@@@std@@7B@ 0000000180023a00     libcpmt:cout.obj
 0002:00000a10       ??_7?$codecvt@DDU_Mbstatet@@@std@@6B@ 0000000180023a10     libcpmt:cout.obj
 0002:00000a68       ??_7bad_alloc@std@@6B@     0000000180023a68     libcpmt:xthrow.obj
 0002:00000a78       ??_C@_0P@GHFPNOJB@bad?5allocation?$AA@ 0000000180023a78     libcpmt:xthrow.obj
 0002:00000a90       ??_7logic_error@std@@6B@   0000000180023a90     libcpmt:xthrow.obj
 0002:00000aa8       ??_7length_error@std@@6B@  0000000180023aa8     libcpmt:xthrow.obj
 0002:00000ac0       ??_7out_of_range@std@@6B@  0000000180023ac0     libcpmt:xthrow.obj
 0002:00001200       ??_C@_0BN@LKKBCCDB@address?5family?5not?5supported?$AA@ 0000000180024200     libcpmt:syserror.obj
 0002:00001220       ??_C@_0P@LDMLAFHI@address?5in?5use?$AA@ 0000000180024220     libcpmt:syserror.obj
 0002:00001230       ??_C@_0BG@DHPCNBJB@address?5not?5available?$AA@ 0000000180024230     libcpmt:syserror.obj
 0002:00001248       ??_C@_0BC@DFIBIBIL@already?5connected?$AA@ 0000000180024248     libcpmt:syserror.obj
 0002:00001260       ??_C@_0BH@CAKOHOMI@argument?5list?5too?5long?$AA@ 0000000180024260     libcpmt:syserror.obj
 0002:00001278       ??_C@_0BH@CGIMPKIM@argument?5out?5of?5domain?$AA@ 0000000180024278     libcpmt:syserror.obj
 0002:00001290       ??_C@_0M@KGHGGJGL@bad?5address?$AA@ 0000000180024290     libcpmt:syserror.obj
 0002:000012a0       ??_C@_0BE@MPJPGCEO@bad?5file?5descriptor?$AA@ 00000001800242a0     libcpmt:syserror.obj
 0002:000012b8       ??_C@_0M@PMMIEFCP@bad?5message?$AA@ 00000001800242b8     libcpmt:syserror.obj
 0002:000012c8       ??_C@_0M@KPHOFDBE@broken?5pipe?$AA@ 00000001800242c8     libcpmt:syserror.obj
 0002:000012d8       ??_C@_0BD@MGNDDEGM@connection?5aborted?$AA@ 00000001800242d8     libcpmt:syserror.obj
 0002:000012f0       ??_C@_0BP@KAIHPOGN@connection?5already?5in?5progress?$AA@ 00000001800242f0     libcpmt:syserror.obj
 0002:00001310       ??_C@_0BD@PJLIIJEL@connection?5refused?$AA@ 0000000180024310     libcpmt:syserror.obj
 0002:00001328       ??_C@_0BB@IECNJNOI@connection?5reset?$AA@ 0000000180024328     libcpmt:syserror.obj
 0002:00001340       ??_C@_0BC@PPHBOELF@cross?5device?5link?$AA@ 0000000180024340     libcpmt:syserror.obj
 0002:00001358       ??_C@_0BN@KDMIFEIP@destination?5address?5required?$AA@ 0000000180024358     libcpmt:syserror.obj
 0002:00001378       ??_C@_0BI@NGCEHDD@device?5or?5resource?5busy?$AA@ 0000000180024378     libcpmt:syserror.obj
 0002:00001390       ??_C@_0BE@JIDOCPHM@directory?5not?5empty?$AA@ 0000000180024390     libcpmt:syserror.obj
 0002:000013a8       ??_C@_0BI@BNCLIGPB@executable?5format?5error?$AA@ 00000001800243a8     libcpmt:syserror.obj
 0002:000013c0       ??_C@_0M@MIDIAGJP@file?5exists?$AA@ 00000001800243c0     libcpmt:syserror.obj
 0002:000013d0       ??_C@_0P@DNAJLBJK@file?5too?5large?$AA@ 00000001800243d0     libcpmt:syserror.obj
 0002:000013e0       ??_C@_0BC@EJHOMAAK@filename?5too?5long?$AA@ 00000001800243e0     libcpmt:syserror.obj
 0002:000013f8       ??_C@_0BH@KEFGLDAF@function?5not?5supported?$AA@ 00000001800243f8     libcpmt:syserror.obj
 0002:00001410       ??_C@_0BB@DHFDFGDM@host?5unreachable?$AA@ 0000000180024410     libcpmt:syserror.obj
 0002:00001428       ??_C@_0BD@JPHBMONG@identifier?5removed?$AA@ 0000000180024428     libcpmt:syserror.obj
 0002:00001440       ??_C@_0BG@CDNPAGJK@illegal?5byte?5sequence?$AA@ 0000000180024440     libcpmt:syserror.obj
 0002:00001458       ??_C@_0CD@BNPLBMNA@inappropriate?5io?5control?5operati@ 0000000180024458     libcpmt:syserror.obj
 0002:00001480       ??_C@_0M@EGEKIIMP@interrupted?$AA@ 0000000180024480     libcpmt:syserror.obj
 0002:00001490       ??_C@_0BB@FCMFBGOM@invalid?5argument?$AA@ 0000000180024490     libcpmt:syserror.obj
 0002:000014a8       ??_C@_0N@OHAFKDEK@invalid?5seek?$AA@ 00000001800244a8     libcpmt:syserror.obj
 0002:000014b8       ??_C@_08GLNPIFBN@io?5error?$AA@ 00000001800244b8     libcpmt:syserror.obj
 0002:000014c8       ??_C@_0P@FLLDBIDK@is?5a?5directory?$AA@ 00000001800244c8     libcpmt:syserror.obj
 0002:000014d8       ??_C@_0N@IFLPBIOP@message?5size?$AA@ 00000001800244d8     libcpmt:syserror.obj
 0002:000014e8       ??_C@_0N@KIIEAAIO@network?5down?$AA@ 00000001800244e8     libcpmt:syserror.obj
 0002:000014f8       ??_C@_0O@FNPDBHEE@network?5reset?$AA@ 00000001800244f8     libcpmt:syserror.obj
 0002:00001508       ??_C@_0BE@IFNCKGE@network?5unreachable?$AA@ 0000000180024508     libcpmt:syserror.obj
 0002:00001520       ??_C@_0BA@PFFCAOFK@no?5buffer?5space?$AA@ 0000000180024520     libcpmt:syserror.obj
 0002:00001530       ??_C@_0BB@IEPBLJHK@no?5child?5process?$AA@ 0000000180024530     libcpmt:syserror.obj
 0002:00001548       ??_C@_07PLECNNKG@no?5link?$AA@ 0000000180024548     libcpmt:syserror.obj
 0002:00001550       ??_C@_0BC@NJECKMKE@no?5lock?5available?$AA@ 0000000180024550     libcpmt:syserror.obj
 0002:00001568       ??_C@_0BF@PBGGPKKE@no?5message?5available?$AA@ 0000000180024568     libcpmt:syserror.obj
 0002:00001580       ??_C@_0L@EDOLMPAK@no?5message?$AA@ 0000000180024580     libcpmt:syserror.obj
 0002:00001590       ??_C@_0BD@EAMBFIDF@no?5protocol?5option?$AA@ 0000000180024590     libcpmt:syserror.obj
 0002:000015a8       ??_C@_0BD@IJDJKDEA@no?5space?5on?5device?$AA@ 00000001800245a8     libcpmt:syserror.obj
 0002:000015c0       ??_C@_0BE@MKFDAFMP@no?5stream?5resources?$AA@ 00000001800245c0     libcpmt:syserror.obj
 0002:000015d8       ??_C@_0BK@IMCPHCBI@no?5such?5device?5or?5address?$AA@ 00000001800245d8     libcpmt:syserror.obj
 0002:000015f8       ??_C@_0P@FDINDDOK@no?5such?5device?$AA@ 00000001800245f8     libcpmt:syserror.obj
 0002:00001608       ??_C@_0BK@NDOCBPGE@no?5such?5file?5or?5directory?$AA@ 0000000180024608     libcpmt:syserror.obj
 0002:00001628       ??_C@_0BA@ENLPPKBN@no?5such?5process?$AA@ 0000000180024628     libcpmt:syserror.obj
 0002:00001638       ??_C@_0BA@DOCPFFJG@not?5a?5directory?$AA@ 0000000180024638     libcpmt:syserror.obj
 0002:00001648       ??_C@_0N@POEIPGGF@not?5a?5socket?$AA@ 0000000180024648     libcpmt:syserror.obj
 0002:00001658       ??_C@_0N@LGAPMMPI@not?5a?5stream?$AA@ 0000000180024658     libcpmt:syserror.obj
 0002:00001668       ??_C@_0O@GLMIBBEG@not?5connected?$AA@ 0000000180024668     libcpmt:syserror.obj
 0002:00001678       ??_C@_0BC@ENOOLCNF@not?5enough?5memory?$AA@ 0000000180024678     libcpmt:syserror.obj
 0002:00001690       ??_C@_0O@NHEDABJP@not?5supported?$AA@ 0000000180024690     libcpmt:syserror.obj
 0002:000016a0       ??_C@_0BD@MOLBPMEA@operation?5canceled?$AA@ 00000001800246a0     libcpmt:syserror.obj
 0002:000016b8       ??_C@_0BG@KDKHOPCO@operation?5in?5progress?$AA@ 00000001800246b8     libcpmt:syserror.obj
 0002:000016d0       ??_C@_0BI@OHIEJAAB@operation?5not?5permitted?$AA@ 00000001800246d0     libcpmt:syserror.obj
 0002:000016e8       ??_C@_0BI@LNEGIFLN@operation?5not?5supported?$AA@ 00000001800246e8     libcpmt:syserror.obj
 0002:00001700       ??_C@_0BG@OEMDKMEE@operation?5would?5block?$AA@ 0000000180024700     libcpmt:syserror.obj
 0002:00001718       ??_C@_0L@BLPOFLNJ@owner?5dead?$AA@ 0000000180024718     libcpmt:syserror.obj
 0002:00001728       ??_C@_0BC@CIJDGCDI@permission?5denied?$AA@ 0000000180024728     libcpmt:syserror.obj
 0002:00001740       ??_C@_0P@FNPOCJBE@protocol?5error?$AA@ 0000000180024740     libcpmt:syserror.obj
 0002:00001750       ??_C@_0BH@JPPPLHJB@protocol?5not?5supported?$AA@ 0000000180024750     libcpmt:syserror.obj
 0002:00001768       ??_C@_0BG@EICBIHDP@read?5only?5file?5system?$AA@ 0000000180024768     libcpmt:syserror.obj
 0002:00001780       ??_C@_0BO@BJBOMOEJ@resource?5deadlock?5would?5occur?$AA@ 0000000180024780     libcpmt:syserror.obj
 0002:000017a0       ??_C@_0BP@LKNGHENJ@resource?5unavailable?5try?5again?$AA@ 00000001800247a0     libcpmt:syserror.obj
 0002:000017c0       ??_C@_0BE@GOIPJJHG@result?5out?5of?5range?$AA@ 00000001800247c0     libcpmt:syserror.obj
 0002:000017d8       ??_C@_0BG@MPLKFPAE@state?5not?5recoverable?$AA@ 00000001800247d8     libcpmt:syserror.obj
 0002:000017f0       ??_C@_0P@DIIFGFCG@stream?5timeout?$AA@ 00000001800247f0     libcpmt:syserror.obj
 0002:00001800       ??_C@_0P@IPFDMIFL@text?5file?5busy?$AA@ 0000000180024800     libcpmt:syserror.obj
 0002:00001810       ??_C@_09KJPPMAOI@timed?5out?$AA@ 0000000180024810     libcpmt:syserror.obj
 0002:00001820       ??_C@_0BO@HACHBEKI@too?5many?5files?5open?5in?5system?$AA@ 0000000180024820     libcpmt:syserror.obj
 0002:00001840       ??_C@_0BE@GHAFMPAH@too?5many?5files?5open?$AA@ 0000000180024840     libcpmt:syserror.obj
 0002:00001858       ??_C@_0P@HCOMKFCC@too?5many?5links?$AA@ 0000000180024858     libcpmt:syserror.obj
 0002:00001868       ??_C@_0BO@EFGOJEF@too?5many?5symbolic?5link?5levels?$AA@ 0000000180024868     libcpmt:syserror.obj
 0002:00001888       ??_C@_0BA@KGKGOOJA@value?5too?5large?$AA@ 0000000180024888     libcpmt:syserror.obj
 0002:00001898       ??_C@_0BE@MIEJDDNH@wrong?5protocol?5type?$AA@ 0000000180024898     libcpmt:syserror.obj
 0002:000018b0       ??_C@_0O@BFJCFAAK@unknown?5error?$AA@ 00000001800248b0     libcpmt:syserror.obj
 0002:00001990       ??_7_Locimp@locale@std@@6B@ 0000000180024990     libcpmt:locale0.obj
 0002:000019a8       ??_C@_01NBENCBCI@?$CK?$AA@ 00000001800249a8     libcpmt:locale0.obj
 0002:000019ac       ??_C@_01GFHCPBMG@C?$AA@    00000001800249ac     libcpmt:locale0.obj
 0002:000019b0       ?_BADOFF@std@@3_JB         00000001800249b0     libcpmt:ios.obj
 0002:000019e0       ??_C@_1BK@MGMFAEKH@?$AAk?$AAe?$AAr?$AAn?$AAe?$AAl?$AA3?$AA2?$AA?4?$AAd?$AAl?$AAl?$AA?$AA@ 00000001800249e0     libcpmt:winapisupp.obj
 0002:00001a00       ??_C@_08KNHFBNJ@FlsAlloc?$AA@ 0000000180024a00     libcpmt:winapisupp.obj
 0002:00001a10       ??_C@_07PEJMOBNF@FlsFree?$AA@ 0000000180024a10     libcpmt:winapisupp.obj
 0002:00001a18       ??_C@_0M@GDNOONDI@FlsGetValue?$AA@ 0000000180024a18     libcpmt:winapisupp.obj
 0002:00001a28       ??_C@_0M@JCPCPOEF@FlsSetValue?$AA@ 0000000180024a28     libcpmt:winapisupp.obj
 0002:00001a38       ??_C@_0BM@HCFOFFN@InitializeCriticalSectionEx?$AA@ 0000000180024a38     libcpmt:winapisupp.obj
 0002:00001a58       ??_C@_0BE@GPLMMCMH@InitOnceExecuteOnce?$AA@ 0000000180024a58     libcpmt:winapisupp.obj
 0002:00001a70       ??_C@_0P@DLHPPCNH@CreateEventExW?$AA@ 0000000180024a70     libcpmt:winapisupp.obj
 0002:00001a80       ??_C@_0BB@MEFPJLHN@CreateSemaphoreW?$AA@ 0000000180024a80     libcpmt:winapisupp.obj
 0002:00001a98       ??_C@_0BD@KIEEOEEH@CreateSemaphoreExW?$AA@ 0000000180024a98     libcpmt:winapisupp.obj
 0002:00001ab0       ??_C@_0BG@OGFAJCKC@CreateThreadpoolTimer?$AA@ 0000000180024ab0     libcpmt:winapisupp.obj
 0002:00001ac8       ??_C@_0BD@LPLEMMDI@SetThreadpoolTimer?$AA@ 0000000180024ac8     libcpmt:winapisupp.obj
 0002:00001ae0       ??_C@_0CA@FMNJENH@WaitForThreadpoolTimerCallbacks?$AA@ 0000000180024ae0     libcpmt:winapisupp.obj
 0002:00001b00       ??_C@_0BF@DCFCCNOC@CloseThreadpoolTimer?$AA@ 0000000180024b00     libcpmt:winapisupp.obj
 0002:00001b18       ??_C@_0BF@FLABGKKM@CreateThreadpoolWait?$AA@ 0000000180024b18     libcpmt:winapisupp.obj
 0002:00001b30       ??_C@_0BC@MGCOHNA@SetThreadpoolWait?$AA@ 0000000180024b30     libcpmt:winapisupp.obj
 0002:00001b48       ??_C@_0BE@OCIOMIMP@CloseThreadpoolWait?$AA@ 0000000180024b48     libcpmt:winapisupp.obj
 0002:00001b60       ??_C@_0BJ@LKGHFHBO@FlushProcessWriteBuffers?$AA@ 0000000180024b60     libcpmt:winapisupp.obj
 0002:00001b80       ??_C@_0BP@KALKKPMO@FreeLibraryWhenCallbackReturns?$AA@ 0000000180024b80     libcpmt:winapisupp.obj
 0002:00001ba0       ??_C@_0BK@DFNBACLA@GetCurrentProcessorNumber?$AA@ 0000000180024ba0     libcpmt:winapisupp.obj
 0002:00001bc0       ??_C@_0BE@FKKLLFLM@CreateSymbolicLinkW?$AA@ 0000000180024bc0     libcpmt:winapisupp.obj
 0002:00001bd8       ??_C@_0BE@JOGNEJCI@GetCurrentPackageId?$AA@ 0000000180024bd8     libcpmt:winapisupp.obj
 0002:00001bf0       ??_C@_0P@CDHHOHKP@GetTickCount64?$AA@ 0000000180024bf0     libcpmt:winapisupp.obj
 0002:00001c00       ??_C@_0BN@NEEHBBPO@GetFileInformationByHandleEx?$AA@ 0000000180024c00     libcpmt:winapisupp.obj
 0002:00001c20       ??_C@_0BL@KBBHGKCM@SetFileInformationByHandle?$AA@ 0000000180024c20     libcpmt:winapisupp.obj
 0002:00001c40       ??_C@_0BP@FPNJPEJC@GetSystemTimePreciseAsFileTime?$AA@ 0000000180024c40     libcpmt:winapisupp.obj
 0002:00001c60       ??_C@_0BM@HLJJNPAH@InitializeConditionVariable?$AA@ 0000000180024c60     libcpmt:winapisupp.obj
 0002:00001c80       ??_C@_0BG@BFNILBLN@WakeConditionVariable?$AA@ 0000000180024c80     libcpmt:winapisupp.obj
 0002:00001c98       ??_C@_0BJ@PGPPEPCC@WakeAllConditionVariable?$AA@ 0000000180024c98     libcpmt:winapisupp.obj
 0002:00001cb8       ??_C@_0BJ@JEBJOJFJ@SleepConditionVariableCS?$AA@ 0000000180024cb8     libcpmt:winapisupp.obj
 0002:00001cd8       ??_C@_0BC@MMLHEBPB@InitializeSRWLock?$AA@ 0000000180024cd8     libcpmt:winapisupp.obj
 0002:00001cf0       ??_C@_0BI@OMNLIJDB@AcquireSRWLockExclusive?$AA@ 0000000180024cf0     libcpmt:winapisupp.obj
 0002:00001d08       ??_C@_0BL@OGHFEMNA@TryAcquireSRWLockExclusive?$AA@ 0000000180024d08     libcpmt:winapisupp.obj
 0002:00001d28       ??_C@_0BI@HMIEPCNJ@ReleaseSRWLockExclusive?$AA@ 0000000180024d28     libcpmt:winapisupp.obj
 0002:00001d40       ??_C@_0BK@LGACAGIC@SleepConditionVariableSRW?$AA@ 0000000180024d40     libcpmt:winapisupp.obj
 0002:00001d60       ??_C@_0BF@GGPHFPJA@CreateThreadpoolWork?$AA@ 0000000180024d60     libcpmt:winapisupp.obj
 0002:00001d78       ??_C@_0BF@NHDAIMMO@SubmitThreadpoolWork?$AA@ 0000000180024d78     libcpmt:winapisupp.obj
 0002:00001d90       ??_C@_0BE@NPHIPNPD@CloseThreadpoolWork?$AA@ 0000000180024d90     libcpmt:winapisupp.obj
 0002:00001da8       ??_C@_0BA@IHGNDAEB@CompareStringEx?$AA@ 0000000180024da8     libcpmt:winapisupp.obj
 0002:00001db8       ??_C@_0BA@ONOKGCMP@GetLocaleInfoEx?$AA@ 0000000180024db8     libcpmt:winapisupp.obj
 0002:00001dc8       ??_C@_0O@KKBNKAPF@LCMapStringEx?$AA@ 0000000180024dc8     libcpmt:winapisupp.obj
 0002:00001dd8       ??_C@_1M@JKFFICHJ@?$AAe?$AAs?$AA?9?$AAv?$AAe?$AA?$AA@ 0000000180024dd8     libcpmt:winapinls.obj
 0002:00001de8       ??_C@_1M@PNMLOJDF@?$AAe?$AAt?$AA?9?$AAe?$AAe?$AA?$AA@ 0000000180024de8     libcpmt:winapinls.obj
 0002:00001df8       ??_C@_1M@GHHLIKEI@?$AAe?$AAu?$AA?9?$AAe?$AAs?$AA?$AA@ 0000000180024df8     libcpmt:winapinls.obj
 0002:00001e08       ??_C@_1M@PBNONODE@?$AAf?$AAa?$AA?9?$AAi?$AAr?$AA?$AA@ 0000000180024e08     libcpmt:winapinls.obj
 0002:00001e18       ??_C@_1M@JEEHPMIL@?$AAf?$AAi?$AA?9?$AAf?$AAi?$AA?$AA@ 0000000180024e18     libcpmt:winapinls.obj
 0002:00001e28       ??_C@_1M@LMDCNDBA@?$AAf?$AAo?$AA?9?$AAf?$AAo?$AA?$AA@ 0000000180024e28     libcpmt:winapinls.obj
 0002:00001e38       ??_C@_1M@JKEOHLDK@?$AAf?$AAr?$AA?9?$AAb?$AAe?$AA?$AA@ 0000000180024e38     libcpmt:winapinls.obj
 0002:00001e48       ??_C@_1M@NOHADPMI@?$AAf?$AAr?$AA?9?$AAc?$AAa?$AA?$AA@ 0000000180024e48     libcpmt:winapinls.obj
 0002:00001e58       ??_C@_1M@KDHIHAEC@?$AAf?$AAr?$AA?9?$AAc?$AAh?$AA?$AA@ 0000000180024e58     libcpmt:winapinls.obj
 0002:00001e68       ??_C@_1M@MMBBFGAK@?$AAf?$AAr?$AA?9?$AAf?$AAr?$AA?$AA@ 0000000180024e68     libcpmt:winapinls.obj
 0002:00001e78       ??_C@_1M@PAFNENNF@?$AAf?$AAr?$AA?9?$AAl?$AAu?$AA?$AA@ 0000000180024e78     libcpmt:winapinls.obj
 0002:00001e88       ??_C@_1M@EOHDJGDD@?$AAf?$AAr?$AA?9?$AAm?$AAc?$AA?$AA@ 0000000180024e88     libcpmt:winapinls.obj
 0002:00001e98       ??_C@_1M@FAPLLOPF@?$AAg?$AAl?$AA?9?$AAe?$AAs?$AA?$AA@ 0000000180024e98     libcpmt:winapinls.obj
 0002:00001ea8       ??_C@_1M@FOPBFLOO@?$AAg?$AAu?$AA?9?$AAi?$AAn?$AA?$AA@ 0000000180024ea8     libcpmt:winapinls.obj
 0002:00001eb8       ??_C@_1M@KBMCINPM@?$AAh?$AAe?$AA?9?$AAi?$AAl?$AA?$AA@ 0000000180024eb8     libcpmt:winapinls.obj
 0002:00001ec8       ??_C@_1M@BBPHKFPJ@?$AAh?$AAi?$AA?9?$AAi?$AAn?$AA?$AA@ 0000000180024ec8     libcpmt:winapinls.obj
 0002:00001ed8       ??_C@_1M@PMBNDPHD@?$AAh?$AAr?$AA?9?$AAb?$AAa?$AA?$AA@ 0000000180024ed8     libcpmt:winapinls.obj
 0002:00001ee8       ??_C@_1M@BPCKOEGE@?$AAh?$AAr?$AA?9?$AAh?$AAr?$AA?$AA@ 0000000180024ee8     libcpmt:winapinls.obj
 0002:00001ef8       ??_C@_1M@GACBMHKE@?$AAh?$AAu?$AA?9?$AAh?$AAu?$AA?$AA@ 0000000180024ef8     libcpmt:winapinls.obj
 0002:00001f08       ??_C@_1M@MILPAJJC@?$AAh?$AAy?$AA?9?$AAa?$AAm?$AA?$AA@ 0000000180024f08     libcpmt:winapinls.obj
 0002:00001f18       ??_C@_1M@BABBICEC@?$AAi?$AAd?$AA?9?$AAi?$AAd?$AA?$AA@ 0000000180024f18     libcpmt:winapinls.obj
 0002:00001f28       ??_C@_1M@BIKNHHPF@?$AAi?$AAs?$AA?9?$AAi?$AAs?$AA?$AA@ 0000000180024f28     libcpmt:winapinls.obj
 0002:00001f38       ??_C@_1M@NMPCJPHE@?$AAi?$AAt?$AA?9?$AAc?$AAh?$AA?$AA@ 0000000180024f38     libcpmt:winapinls.obj
 0002:00001f48       ??_C@_1M@GHKGFEDF@?$AAi?$AAt?$AA?9?$AAi?$AAt?$AA?$AA@ 0000000180024f48     libcpmt:winapinls.obj
 0002:00001f58       ??_C@_1M@NIEJCJJA@?$AAj?$AAa?$AA?9?$AAj?$AAp?$AA?$AA@ 0000000180024f58     libcpmt:winapinls.obj
 0002:00001f68       ??_C@_1M@JILFNBIM@?$AAk?$AAa?$AA?9?$AAg?$AAe?$AA?$AA@ 0000000180024f68     libcpmt:winapinls.obj
 0002:00001f78       ??_C@_1M@PACPMGPH@?$AAk?$AAk?$AA?9?$AAk?$AAz?$AA?$AA@ 0000000180024f78     libcpmt:winapinls.obj
 0002:00001f88       ??_C@_1M@IELFGMHA@?$AAk?$AAn?$AA?9?$AAi?$AAn?$AA?$AA@ 0000000180024f88     libcpmt:winapinls.obj
 0002:00001f98       ??_C@_1M@DMHAEOGC@?$AAk?$AAo?$AA?9?$AAk?$AAr?$AA?$AA@ 0000000180024f98     libcpmt:winapinls.obj
 0002:00001fa8       ??_C@_1O@IBBJHCH@?$AAk?$AAo?$AAk?$AA?9?$AAi?$AAn?$AA?$AA@ 0000000180024fa8     libcpmt:winapinls.obj
 0002:00001fb8       ??_C@_1M@HBAHBIGA@?$AAk?$AAy?$AA?9?$AAk?$AAg?$AA?$AA@ 0000000180024fb8     libcpmt:winapinls.obj
 0002:00001fc8       ??_C@_1M@KPMILCJG@?$AAl?$AAt?$AA?9?$AAl?$AAt?$AA?$AA@ 0000000180024fc8     libcpmt:winapinls.obj
 0002:00001fd8       ??_C@_1M@BDEKKCA@?$AAl?$AAv?$AA?9?$AAl?$AAv?$AA?$AA@ 0000000180024fd8     libcpmt:winapinls.obj
 0002:00001fe8       ??_C@_1M@ELCKCCJJ@?$AAm?$AAi?$AA?9?$AAn?$AAz?$AA?$AA@ 0000000180024fe8     libcpmt:winapinls.obj
 0002:00001ff8       ??_C@_1M@CBOOLAPA@?$AAm?$AAk?$AA?9?$AAm?$AAk?$AA?$AA@ 0000000180024ff8     libcpmt:winapinls.obj
 0002:00002008       ??_C@_1M@GPHNBJKN@?$AAm?$AAl?$AA?9?$AAi?$AAn?$AA?$AA@ 0000000180025008     libcpmt:winapinls.obj
 0002:00002018       ??_C@_1M@PABJILIG@?$AAm?$AAn?$AA?9?$AAm?$AAn?$AA?$AA@ 0000000180025018     libcpmt:winapinls.obj
 0002:00002028       ??_C@_1M@FGBKKIPG@?$AAm?$AAr?$AA?9?$AAi?$AAn?$AA?$AA@ 0000000180025028     libcpmt:winapinls.obj
 0002:00002038       ??_C@_1M@NDBPDDAL@?$AAm?$AAs?$AA?9?$AAb?$AAn?$AA?$AA@ 0000000180025038     libcpmt:winapinls.obj
 0002:00002048       ??_C@_1M@OPIHOOPI@?$AAm?$AAs?$AA?9?$AAm?$AAy?$AA?$AA@ 0000000180025048     libcpmt:winapinls.obj
 0002:00002058       ??_C@_1M@PPDBCNFM@?$AAm?$AAt?$AA?9?$AAm?$AAt?$AA?$AA@ 0000000180025058     libcpmt:winapinls.obj
 0002:00002068       ??_C@_1M@KDJDKMDD@?$AAn?$AAb?$AA?9?$AAn?$AAo?$AA?$AA@ 0000000180025068     libcpmt:winapinls.obj
 0002:00002078       ??_C@_1M@KFCFLMJP@?$AAn?$AAl?$AA?9?$AAb?$AAe?$AA?$AA@ 0000000180025078     libcpmt:winapinls.obj
 0002:00002088       ??_C@_1M@KPOPDDGO@?$AAn?$AAl?$AA?9?$AAn?$AAl?$AA?$AA@ 0000000180025088     libcpmt:winapinls.obj
 0002:00002098       ??_C@_1M@LJKPEMLN@?$AAn?$AAn?$AA?9?$AAn?$AAo?$AA?$AA@ 0000000180025098     libcpmt:winapinls.obj
 0002:000020a8       ??_C@_1M@BDGHHBFL@?$AAn?$AAs?$AA?9?$AAz?$AAa?$AA?$AA@ 00000001800250a8     libcpmt:winapinls.obj
 0002:000020b8       ??_C@_1M@IDEHOAP@?$AAp?$AAa?$AA?9?$AAi?$AAn?$AA?$AA@ 00000001800250b8     libcpmt:winapinls.obj
 0002:000020c8       ??_C@_1M@HDBKGOGH@?$AAp?$AAl?$AA?9?$AAp?$AAl?$AA?$AA@ 00000001800250c8     libcpmt:winapinls.obj
 0002:000020d8       ??_C@_1M@LJLLCMEH@?$AAp?$AAt?$AA?9?$AAb?$AAr?$AA?$AA@ 00000001800250d8     libcpmt:winapinls.obj
 0002:000020e8       ??_C@_1M@NCMONAAL@?$AAp?$AAt?$AA?9?$AAp?$AAt?$AA?$AA@ 00000001800250e8     libcpmt:winapinls.obj
 0002:000020f8       ??_C@_1O@EAKMAJDN@?$AAq?$AAu?$AAz?$AA?9?$AAb?$AAo?$AA?$AA@ 00000001800250f8     libcpmt:winapinls.obj
 0002:00002108       ??_C@_1O@BHHPIGDN@?$AAq?$AAu?$AAz?$AA?9?$AAe?$AAc?$AA?$AA@ 0000000180025108     libcpmt:winapinls.obj
 0002:00002118       ??_C@_1O@GBAPEKMJ@?$AAq?$AAu?$AAz?$AA?9?$AAp?$AAe?$AA?$AA@ 0000000180025118     libcpmt:winapinls.obj
 0002:00002128       ??_C@_1M@CLGLEFBO@?$AAr?$AAo?$AA?9?$AAr?$AAo?$AA?$AA@ 0000000180025128     libcpmt:winapinls.obj
 0002:00002138       ??_C@_1M@CEEDODME@?$AAr?$AAu?$AA?9?$AAr?$AAu?$AA?$AA@ 0000000180025138     libcpmt:winapinls.obj
 0002:00002148       ??_C@_1M@HPKKKMPP@?$AAs?$AAa?$AA?9?$AAi?$AAn?$AA?$AA@ 0000000180025148     libcpmt:winapinls.obj
 0002:00002158       ??_C@_1M@BKMAIGOJ@?$AAs?$AAe?$AA?9?$AAf?$AAi?$AA?$AA@ 0000000180025158     libcpmt:winapinls.obj
 0002:00002168       ??_C@_1M@NDPIFLFI@?$AAs?$AAe?$AA?9?$AAn?$AAo?$AA?$AA@ 0000000180025168     libcpmt:winapinls.obj
 0002:00002178       ??_C@_1M@DANKKHJ@?$AAs?$AAe?$AA?9?$AAs?$AAe?$AA?$AA@ 0000000180025178     libcpmt:winapinls.obj
 0002:00002188       ??_C@_1M@PNBLONPJ@?$AAs?$AAk?$AA?9?$AAs?$AAk?$AA?$AA@ 0000000180025188     libcpmt:winapinls.obj
 0002:00002198       ??_C@_1M@LFMODOAL@?$AAs?$AAl?$AA?9?$AAs?$AAi?$AA?$AA@ 0000000180025198     libcpmt:winapinls.obj
 0002:000021a8       ??_C@_1O@DFKOMPG@?$AAs?$AAm?$AAa?$AA?9?$AAn?$AAo?$AA?$AA@ 00000001800251a8     libcpmt:winapinls.obj
 0002:000021b8       ??_C@_1O@NDKPBNNH@?$AAs?$AAm?$AAa?$AA?9?$AAs?$AAe?$AA?$AA@ 00000001800251b8     libcpmt:winapinls.obj
 0002:000021c8       ??_C@_1O@PLLKBHAB@?$AAs?$AAm?$AAj?$AA?9?$AAn?$AAo?$AA?$AA@ 00000001800251c8     libcpmt:winapinls.obj
 0002:000021d8       ??_C@_1O@CLEPOGCA@?$AAs?$AAm?$AAj?$AA?9?$AAs?$AAe?$AA?$AA@ 00000001800251d8     libcpmt:winapinls.obj
 0002:000021e8       ??_C@_1O@DLGJGKMK@?$AAs?$AAm?$AAn?$AA?9?$AAf?$AAi?$AA?$AA@ 00000001800251e8     libcpmt:winapinls.obj
 0002:000021f8       ??_C@_1O@OJDJGAJC@?$AAs?$AAm?$AAs?$AA?9?$AAf?$AAi?$AA?$AA@ 00000001800251f8     libcpmt:winapinls.obj
 0002:00002208       ??_C@_1M@BOFOGHPB@?$AAs?$AAq?$AA?9?$AAa?$AAl?$AA?$AA@ 0000000180025208     libcpmt:winapinls.obj
 0002:00002218       ??_C@_1BG@LJBBIPGB@?$AAs?$AAr?$AA?9?$AAb?$AAa?$AA?9?$AAc?$AAy?$AAr?$AAl?$AA?$AA@ 0000000180025218     libcpmt:winapinls.obj
 0002:00002230       ??_C@_1BG@JLBENFOE@?$AAs?$AAr?$AA?9?$AAb?$AAa?$AA?9?$AAl?$AAa?$AAt?$AAn?$AA?$AA@ 0000000180025230     libcpmt:winapinls.obj
 0002:00002248       ??_C@_1BG@KODPNHE@?$AAs?$AAr?$AA?9?$AAs?$AAp?$AA?9?$AAc?$AAy?$AAr?$AAl?$AA?$AA@ 0000000180025248     libcpmt:winapinls.obj
 0002:00002260       ??_C@_1BG@CIOGKHPB@?$AAs?$AAr?$AA?9?$AAs?$AAp?$AA?9?$AAl?$AAa?$AAt?$AAn?$AA?$AA@ 0000000180025260     libcpmt:winapinls.obj
 0002:00002278       ??_C@_1M@NGFJLMAC@?$AAs?$AAv?$AA?9?$AAf?$AAi?$AA?$AA@ 0000000180025278     libcpmt:winapinls.obj
 0002:00002288       ??_C@_1M@MPJEJAJC@?$AAs?$AAv?$AA?9?$AAs?$AAe?$AA?$AA@ 0000000180025288     libcpmt:winapinls.obj
 0002:00002298       ??_C@_1M@MPNDHLFK@?$AAs?$AAw?$AA?9?$AAk?$AAe?$AA?$AA@ 0000000180025298     libcpmt:winapinls.obj
 0002:000022a8       ??_C@_1O@KOHBJJI@?$AAs?$AAy?$AAr?$AA?9?$AAs?$AAy?$AA?$AA@ 00000001800252a8     libcpmt:winapinls.obj
 0002:000022b8       ??_C@_1M@LDCEFHA@?$AAt?$AAa?$AA?9?$AAi?$AAn?$AA?$AA@ 00000001800252b8     libcpmt:winapinls.obj
 0002:000022c8       ??_C@_1M@CNJOFAK@?$AAt?$AAe?$AA?9?$AAi?$AAn?$AA?$AA@ 00000001800252c8     libcpmt:winapinls.obj
 0002:000022d8       ??_C@_1M@GNAECACD@?$AAt?$AAh?$AA?9?$AAt?$AAh?$AA?$AA@ 00000001800252d8     libcpmt:winapinls.obj
 0002:000022e8       ??_C@_1M@CHBIHOJO@?$AAt?$AAn?$AA?9?$AAz?$AAa?$AA?$AA@ 00000001800252e8     libcpmt:winapinls.obj
 0002:000022f8       ??_C@_1M@GCCMIGPJ@?$AAt?$AAr?$AA?9?$AAt?$AAr?$AA?$AA@ 00000001800252f8     libcpmt:winapinls.obj
 0002:00002308       ??_C@_1M@CELMCNBK@?$AAt?$AAt?$AA?9?$AAr?$AAu?$AA?$AA@ 0000000180025308     libcpmt:winapinls.obj
 0002:00002318       ??_C@_1M@KLMCELGA@?$AAu?$AAk?$AA?9?$AAu?$AAa?$AA?$AA@ 0000000180025318     libcpmt:winapinls.obj
 0002:00002328       ??_C@_1M@EPAJJAJF@?$AAu?$AAr?$AA?9?$AAp?$AAk?$AA?$AA@ 0000000180025328     libcpmt:winapinls.obj
 0002:00002338       ??_C@_1BG@GEGPMCDJ@?$AAu?$AAz?$AA?9?$AAu?$AAz?$AA?9?$AAc?$AAy?$AAr?$AAl?$AA?$AA@ 0000000180025338     libcpmt:winapinls.obj
 0002:00002350       ??_C@_1BG@EGGKJILM@?$AAu?$AAz?$AA?9?$AAu?$AAz?$AA?9?$AAl?$AAa?$AAt?$AAn?$AA?$AA@ 0000000180025350     libcpmt:winapinls.obj
 0002:00002368       ??_C@_1M@GFOCLFF@?$AAv?$AAi?$AA?9?$AAv?$AAn?$AA?$AA@ 0000000180025368     libcpmt:winapinls.obj
 0002:00002378       ??_C@_1M@CPAMEDFI@?$AAx?$AAh?$AA?9?$AAz?$AAa?$AA?$AA@ 0000000180025378     libcpmt:winapinls.obj
 0002:00002388       ??_C@_1O@EBKIFIGN@?$AAz?$AAh?$AA?9?$AAc?$AAh?$AAs?$AA?$AA@ 0000000180025388     libcpmt:winapinls.obj
 0002:00002398       ??_C@_1O@NMHPGANE@?$AAz?$AAh?$AA?9?$AAc?$AAh?$AAt?$AA?$AA@ 0000000180025398     libcpmt:winapinls.obj
 0002:000023a8       ??_C@_1M@LPINJOMC@?$AAz?$AAh?$AA?9?$AAc?$AAn?$AA?$AA@ 00000001800253a8     libcpmt:winapinls.obj
 0002:000023b8       ??_C@_1M@OCJEJODD@?$AAz?$AAh?$AA?9?$AAh?$AAk?$AA?$AA@ 00000001800253b8     libcpmt:winapinls.obj
 0002:000023c8       ??_C@_1M@DNDLJINH@?$AAz?$AAh?$AA?9?$AAm?$AAo?$AA?$AA@ 00000001800253c8     libcpmt:winapinls.obj
 0002:000023d8       ??_C@_1M@MBFDNDND@?$AAz?$AAh?$AA?9?$AAs?$AAg?$AA?$AA@ 00000001800253d8     libcpmt:winapinls.obj
 0002:000023e8       ??_C@_1M@IMEPLEPE@?$AAz?$AAh?$AA?9?$AAt?$AAw?$AA?$AA@ 00000001800253e8     libcpmt:winapinls.obj
 0002:000023f8       ??_C@_1M@BBGHNHJP@?$AAz?$AAu?$AA?9?$AAz?$AAa?$AA?$AA@ 00000001800253f8     libcpmt:winapinls.obj
 0002:00004090       ??_C@_15EMKDOKLE@?$AAa?$AAr?$AA?$AA@ 0000000180027090     libcpmt:winapinls.obj
 0002:00004098       ??_C@_15KNPADPLH@?$AAb?$AAg?$AA?$AA@ 0000000180027098     libcpmt:winapinls.obj
 0002:000040a0       ??_C@_15EDMHLDMO@?$AAc?$AAa?$AA?$AA@ 00000001800270a0     libcpmt:winapinls.obj
 0002:000040a8       ??_C@_1O@BPEAJADD@?$AAz?$AAh?$AA?9?$AAC?$AAH?$AAS?$AA?$AA@ 00000001800270a8     libcpmt:winapinls.obj
 0002:000040b8       ??_C@_15LJNHCMNK@?$AAc?$AAs?$AA?$AA@ 00000001800270b8     libcpmt:winapinls.obj
 0002:000040c0       ??_C@_15FOMCIDHG@?$AAd?$AAa?$AA?$AA@ 00000001800270c0     libcpmt:winapinls.obj
 0002:000040c8       ??_C@_15NBKABECB@?$AAd?$AAe?$AA?$AA@ 00000001800270c8     libcpmt:winapinls.obj
 0002:000040d0       ??_C@_15GHPEIIAO@?$AAe?$AAl?$AA?$AA@ 00000001800270d0     libcpmt:winapinls.obj
 0002:000040d8       ??_C@_15MNPNEAIF@?$AAe?$AAn?$AA?$AA@ 00000001800270d8     libcpmt:winapinls.obj
 0002:000040e0       ??_C@_15GPIOMPMH@?$AAe?$AAs?$AA?$AA@ 00000001800270e0     libcpmt:winapinls.obj
 0002:000040e8       ??_C@_15NGLOAKJC@?$AAf?$AAi?$AA?$AA@ 00000001800270e8     libcpmt:winapinls.obj
 0002:000040f0       ??_C@_15FBKGNKAM@?$AAf?$AAr?$AA?$AA@ 00000001800270f0     libcpmt:winapinls.obj
 0002:000040f8       ??_C@_15KGGCNEFK@?$AAh?$AAe?$AA?$AA@ 00000001800270f8     libcpmt:winapinls.obj
 0002:00004100       ??_C@_15PGHLIDMF@?$AAh?$AAu?$AA?$AA@ 0000000180027100     libcpmt:winapinls.obj
 0002:00004108       ??_C@_15BIEMAPLM@?$AAi?$AAs?$AA?$AA@ 0000000180027108     libcpmt:winapinls.obj
 0002:00004110       ??_C@_15IFJLDHAF@?$AAi?$AAt?$AA?$AA@ 0000000180027110     libcpmt:winapinls.obj
 0002:00004118       ??_C@_15GEMIOCAG@?$AAj?$AAa?$AA?$AA@ 0000000180027118     libcpmt:winapinls.obj
 0002:00004120       ??_C@_15EPELEGJA@?$AAk?$AAo?$AA?$AA@ 0000000180027120     libcpmt:winapinls.obj
 0002:00004128       ??_C@_15NDDHIMN@?$AAn?$AAl?$AA?$AA@ 0000000180027128     libcpmt:winapinls.obj
 0002:00004130       ??_C@_15BPIGNHCD@?$AAn?$AAo?$AA?$AA@ 0000000180027130     libcpmt:winapinls.obj
 0002:00004138       ??_C@_15DEOPBLCG@?$AAp?$AAl?$AA?$AA@ 0000000180027138     libcpmt:winapinls.obj
 0002:00004140       ??_C@_15KBECGEFG@?$AAp?$AAt?$AA?$AA@ 0000000180027140     libcpmt:winapinls.obj
 0002:00004148       ??_C@_15GLJCBFMD@?$AAr?$AAo?$AA?$AA@ 0000000180027148     libcpmt:winapinls.obj
 0002:00004150       ??_C@_15FEDGKCDI@?$AAr?$AAu?$AA?$AA@ 0000000180027150     libcpmt:winapinls.obj
 0002:00004158       ??_C@_15GLKMLLHM@?$AAh?$AAr?$AA?$AA@ 0000000180027158     libcpmt:winapinls.obj
 0002:00004160       ??_C@_15CPKMFBDB@?$AAs?$AAk?$AA?$AA@ 0000000180027160     libcpmt:winapinls.obj
 0002:00004168       ??_C@_15BAAIOGMK@?$AAs?$AAq?$AA?$AA@ 0000000180027168     libcpmt:winapinls.obj
 0002:00004170       ??_C@_15INNPNOHD@?$AAs?$AAv?$AA?$AA@ 0000000180027170     libcpmt:winapinls.obj
 0002:00004178       ??_C@_15CABMMOGH@?$AAt?$AAh?$AA?$AA@ 0000000180027178     libcpmt:winapinls.obj
 0002:00004180       ??_C@_15BPLIHJJM@?$AAt?$AAr?$AA?$AA@ 0000000180027180     libcpmt:winapinls.obj
 0002:00004188       ??_C@_15NEOEKKDJ@?$AAu?$AAr?$AA?$AA@ 0000000180027188     libcpmt:winapinls.obj
 0002:00004190       ??_C@_15NFICGAJK@?$AAi?$AAd?$AA?$AA@ 0000000180027190     libcpmt:winapinls.obj
 0002:00004198       ??_C@_15PJPFLCCM@?$AAu?$AAk?$AA?$AA@ 0000000180027198     libcpmt:winapinls.obj
 0002:000041a0       ??_C@_15HPJPHDM@?$AAb?$AAe?$AA?$AA@ 00000001800271a0     libcpmt:winapinls.obj
 0002:000041a8       ??_C@_15LCHLGJII@?$AAs?$AAl?$AA?$AA@ 00000001800271a8     libcpmt:winapinls.obj
 0002:000041b0       ??_C@_15PCFJPHHO@?$AAe?$AAt?$AA?$AA@ 00000001800271b0     libcpmt:winapinls.obj
 0002:000041b8       ??_C@_15HPFPGODN@?$AAl?$AAv?$AA?$AA@ 00000001800271b8     libcpmt:winapinls.obj
 0002:000041c0       ??_C@_15NFFGKGLG@?$AAl?$AAt?$AA?$AA@ 00000001800271c0     libcpmt:winapinls.obj
 0002:000041c8       ??_C@_15BDAKCCHN@?$AAf?$AAa?$AA?$AA@ 00000001800271c8     libcpmt:winapinls.obj
 0002:000041d0       ??_C@_15NFGIAIAJ@?$AAv?$AAi?$AA?$AA@ 00000001800271d0     libcpmt:winapinls.obj
 0002:000041d8       ??_C@_15LMKNDMHN@?$AAh?$AAy?$AA?$AA@ 00000001800271d8     libcpmt:winapinls.obj
 0002:000041e0       ??_C@_15IJBHMCFL@?$AAa?$AAz?$AA?$AA@ 00000001800271e0     libcpmt:winapinls.obj
 0002:000041e8       ??_C@_15EKOFJABL@?$AAe?$AAu?$AA?$AA@ 00000001800271e8     libcpmt:winapinls.obj
 0002:000041f0       ??_C@_15BGHADCNK@?$AAm?$AAk?$AA?$AA@ 00000001800271f0     libcpmt:winapinls.obj
 0002:000041f8       ??_C@_15JDNICKHM@?$AAa?$AAf?$AA?$AA@ 00000001800271f8     libcpmt:winapinls.obj
 0002:00004200       ??_C@_15KPJEDBKD@?$AAk?$AAa?$AA?$AA@ 0000000180027200     libcpmt:winapinls.obj
 0002:00004208       ??_C@_15PDNFFFEO@?$AAf?$AAo?$AA?$AA@ 0000000180027208     libcpmt:winapinls.obj
 0002:00004210       ??_C@_15OMLEGLOC@?$AAh?$AAi?$AA?$AA@ 0000000180027210     libcpmt:winapinls.obj
 0002:00004218       ??_C@_15IDNNENKK@?$AAm?$AAs?$AA?$AA@ 0000000180027218     libcpmt:winapinls.obj
 0002:00004220       ??_C@_15MACJNBMH@?$AAk?$AAk?$AA?$AA@ 0000000180027220     libcpmt:winapinls.obj
 0002:00004228       ??_C@_15DKDJEOND@?$AAk?$AAy?$AA?$AA@ 0000000180027228     libcpmt:winapinls.obj
 0002:00004230       ??_C@_15DFGDLJBG@?$AAs?$AAw?$AA?$AA@ 0000000180027230     libcpmt:winapinls.obj
 0002:00004238       ??_C@_15BBFAICNG@?$AAu?$AAz?$AA?$AA@ 0000000180027238     libcpmt:winapinls.obj
 0002:00004240       ??_C@_15DKNDCGEA@?$AAt?$AAt?$AA?$AA@ 0000000180027240     libcpmt:winapinls.obj
 0002:00004248       ??_C@_15MGIFMDPL@?$AAp?$AAa?$AA?$AA@ 0000000180027248     libcpmt:winapinls.obj
 0002:00004250       ??_C@_15HCNDBBA@?$AAg?$AAu?$AA?$AA@ 0000000180027250     libcpmt:winapinls.obj
 0002:00004258       ??_C@_15FNBEIBON@?$AAt?$AAa?$AA?$AA@ 0000000180027258     libcpmt:winapinls.obj
 0002:00004260       ??_C@_15NCHGBGLK@?$AAt?$AAe?$AA?$AA@ 0000000180027260     libcpmt:winapinls.obj
 0002:00004268       ??_C@_15PHPHCBPF@?$AAk?$AAn?$AA?$AA@ 0000000180027268     libcpmt:winapinls.obj
 0002:00004270       ??_C@_15DLGBCKMP@?$AAm?$AAr?$AA?$AA@ 0000000180027270     libcpmt:winapinls.obj
 0002:00004278       ??_C@_15EABBLBFF@?$AAs?$AAa?$AA?$AA@ 0000000180027278     libcpmt:winapinls.obj
 0002:00004280       ??_C@_15CBKOMCOI@?$AAm?$AAn?$AA?$AA@ 0000000180027280     libcpmt:winapinls.obj
 0002:00004288       ??_C@_15CKDMCJAF@?$AAg?$AAl?$AA?$AA@ 0000000180027288     libcpmt:winapinls.obj
 0002:00004290       ??_C@_17CNJFBPG@?$AAk?$AAo?$AAk?$AA?$AA@ 0000000180027290     libcpmt:winapinls.obj
 0002:00004298       ??_C@_17FFBJICPL@?$AAs?$AAy?$AAr?$AA?$AA@ 0000000180027298     libcpmt:winapinls.obj
 0002:000042a0       ??_C@_17KPNDCPAF@?$AAd?$AAi?$AAv?$AA?$AA@ 00000001800272a0     libcpmt:winapinls.obj
 0002:000042a8       ??_C@_11LOCGONAA@?$AA?$AA@ 00000001800272a8     libcpmt:winapinls.obj
 0002:000042b0       ??_C@_1M@OKAHONE@?$AAa?$AAr?$AA?9?$AAS?$AAA?$AA?$AA@ 00000001800272b0     libcpmt:winapinls.obj
 0002:000042c0       ??_C@_1M@FFFIGIGK@?$AAb?$AAg?$AA?9?$AAB?$AAG?$AA?$AA@ 00000001800272c0     libcpmt:winapinls.obj
 0002:000042d0       ??_C@_1M@BJNKEDC@?$AAc?$AAa?$AA?9?$AAE?$AAS?$AA?$AA@ 00000001800272d0     libcpmt:winapinls.obj
 0002:000042e0       ??_C@_1M@CLNBBOPM@?$AAz?$AAh?$AA?9?$AAT?$AAW?$AA?$AA@ 00000001800272e0     libcpmt:winapinls.obj
 0002:000042f0       ??_C@_1M@IJJHFJHA@?$AAc?$AAs?$AA?9?$AAC?$AAZ?$AA?$AA@ 00000001800272f0     libcpmt:winapinls.obj
 0002:00004300       ??_C@_1M@CLPEOBGI@?$AAd?$AAa?$AA?9?$AAD?$AAK?$AA?$AA@ 0000000180027300     libcpmt:winapinls.obj
 0002:00004310       ??_C@_1M@MCMADGCB@?$AAd?$AAe?$AA?9?$AAD?$AAE?$AA?$AA@ 0000000180027310     libcpmt:winapinls.obj
 0002:00004320       ??_C@_1M@OOCKEMAM@?$AAe?$AAl?$AA?9?$AAG?$AAR?$AA?$AA@ 0000000180027320     libcpmt:winapinls.obj
 0002:00004330       ??_C@_1M@BMHNFIME@?$AAe?$AAn?$AA?9?$AAU?$AAS?$AA?$AA@ 0000000180027330     libcpmt:winapinls.obj
 0002:00004340       ??_C@_1M@DDNJFGID@?$AAf?$AAi?$AA?9?$AAF?$AAI?$AA?$AA@ 0000000180027340     libcpmt:winapinls.obj
 0002:00004350       ??_C@_1M@GLIPPMAC@?$AAf?$AAr?$AA?9?$AAF?$AAR?$AA?$AA@ 0000000180027350     libcpmt:winapinls.obj
 0002:00004360       ??_C@_1M@GFMCHPE@?$AAh?$AAe?$AA?9?$AAI?$AAL?$AA?$AA@ 0000000180027360     libcpmt:winapinls.obj
 0002:00004370       ??_C@_1M@MHLPGNKM@?$AAh?$AAu?$AA?9?$AAH?$AAU?$AA?$AA@ 0000000180027370     libcpmt:winapinls.obj
 0002:00004380       ??_C@_1M@LPDDNNPN@?$AAi?$AAs?$AA?9?$AAI?$AAS?$AA?$AA@ 0000000180027380     libcpmt:winapinls.obj
 0002:00004390       ??_C@_1M@MADIPODN@?$AAi?$AAt?$AA?9?$AAI?$AAT?$AA?$AA@ 0000000180027390     libcpmt:winapinls.obj
 0002:000043a0       ??_C@_1M@HPNHIDJI@?$AAj?$AAa?$AA?9?$AAJ?$AAP?$AA?$AA@ 00000001800273a0     libcpmt:winapinls.obj
 0002:000043b0       ??_C@_1M@JLOOOEGK@?$AAk?$AAo?$AA?9?$AAK?$AAR?$AA?$AA@ 00000001800273b0     libcpmt:winapinls.obj
 0002:000043c0       ??_C@_1M@IHBJJGG@?$AAn?$AAl?$AA?9?$AAN?$AAL?$AA?$AA@ 00000001800273c0     libcpmt:winapinls.obj
 0002:000043d0       ??_C@_1M@EANAGDL@?$AAn?$AAb?$AA?9?$AAN?$AAO?$AA?$AA@ 00000001800273d0     libcpmt:winapinls.obj
 0002:000043e0       ??_C@_1M@NEIEMEGP@?$AAp?$AAl?$AA?9?$AAP?$AAL?$AA?$AA@ 00000001800273e0     libcpmt:winapinls.obj
 0002:000043f0       ??_C@_1M@BOCFIGEP@?$AAp?$AAt?$AA?9?$AAB?$AAR?$AA?$AA@ 00000001800273f0     libcpmt:winapinls.obj
 0002:00004400       ??_C@_1M@IMPFOPBG@?$AAr?$AAo?$AA?9?$AAR?$AAO?$AA?$AA@ 0000000180027400     libcpmt:winapinls.obj
 0002:00004410       ??_C@_1M@IDNNEJMM@?$AAr?$AAu?$AA?9?$AAR?$AAU?$AA?$AA@ 0000000180027410     libcpmt:winapinls.obj
 0002:00004420       ??_C@_1M@LILEEOGM@?$AAh?$AAr?$AA?9?$AAH?$AAR?$AA?$AA@ 0000000180027420     libcpmt:winapinls.obj
 0002:00004430       ??_C@_1M@FKIFEHPB@?$AAs?$AAk?$AA?9?$AAS?$AAK?$AA?$AA@ 0000000180027430     libcpmt:winapinls.obj
 0002:00004440       ??_C@_1M@LJMAMNPJ@?$AAs?$AAq?$AA?9?$AAA?$AAL?$AA?$AA@ 0000000180027440     libcpmt:winapinls.obj
 0002:00004450       ??_C@_1M@GIAKDKJK@?$AAs?$AAv?$AA?9?$AAS?$AAE?$AA?$AA@ 0000000180027450     libcpmt:winapinls.obj
 0002:00004460       ??_C@_1M@MKJKIKCL@?$AAt?$AAh?$AA?9?$AAT?$AAH?$AA?$AA@ 0000000180027460     libcpmt:winapinls.obj
 0002:00004470       ??_C@_1M@MFLCCMPB@?$AAt?$AAr?$AA?9?$AAT?$AAR?$AA?$AA@ 0000000180027470     libcpmt:winapinls.obj
 0002:00004480       ??_C@_1M@OIJHDKJN@?$AAu?$AAr?$AA?9?$AAP?$AAK?$AA?$AA@ 0000000180027480     libcpmt:winapinls.obj
 0002:00004490       ??_C@_1M@LHIPCIEK@?$AAi?$AAd?$AA?9?$AAI?$AAD?$AA?$AA@ 0000000180027490     libcpmt:winapinls.obj
 0002:000044a0       ??_C@_1M@MFMOBGI@?$AAu?$AAk?$AA?9?$AAU?$AAA?$AA?$AA@ 00000001800274a0     libcpmt:winapinls.obj
 0002:000044b0       ??_C@_1M@OBGLJIPL@?$AAb?$AAe?$AA?9?$AAB?$AAY?$AA?$AA@ 00000001800274b0     libcpmt:winapinls.obj
 0002:000044c0       ??_C@_1M@BCFAJEAD@?$AAs?$AAl?$AA?9?$AAS?$AAI?$AA?$AA@ 00000001800274c0     libcpmt:winapinls.obj
 0002:000044d0       ??_C@_1M@FKFFEDDN@?$AAe?$AAt?$AA?9?$AAE?$AAE?$AA?$AA@ 00000001800274d0     libcpmt:winapinls.obj
 0002:000044e0       ??_C@_1M@KGKKAACI@?$AAl?$AAv?$AA?9?$AAL?$AAV?$AA?$AA@ 00000001800274e0     libcpmt:winapinls.obj
 0002:000044f0       ??_C@_1M@IFGBIJO@?$AAl?$AAt?$AA?9?$AAL?$AAT?$AA?$AA@ 00000001800274f0     libcpmt:winapinls.obj
 0002:00004500       ??_C@_1M@FGEAHEDM@?$AAf?$AAa?$AA?9?$AAI?$AAR?$AA?$AA@ 0000000180027500     libcpmt:winapinls.obj
 0002:00004510       ??_C@_1M@KBMAIBFN@?$AAv?$AAi?$AA?9?$AAV?$AAN?$AA?$AA@ 0000000180027510     libcpmt:winapinls.obj
 0002:00004520       ??_C@_1M@GPCBKDJK@?$AAh?$AAy?$AA?9?$AAA?$AAM?$AA?$AA@ 0000000180027520     libcpmt:winapinls.obj
 0002:00004530       ??_C@_1BG@BECMDDJB@?$AAa?$AAz?$AA?9?$AAA?$AAZ?$AA?9?$AAL?$AAa?$AAt?$AAn?$AA?$AA@ 0000000180027530     libcpmt:winapinls.obj
 0002:00004548       ??_C@_1M@MAOFCAEA@?$AAe?$AAu?$AA?9?$AAE?$AAS?$AA?$AA@ 0000000180027548     libcpmt:winapinls.obj
 0002:00004558       ??_C@_1M@IGHABKPI@?$AAm?$AAk?$AA?9?$AAM?$AAK?$AA?$AA@ 0000000180027558     libcpmt:winapinls.obj
 0002:00004568       ??_C@_1M@IAIGNEJG@?$AAt?$AAn?$AA?9?$AAZ?$AAA?$AA?$AA@ 0000000180027568     libcpmt:winapinls.obj
 0002:00004578       ??_C@_1M@IIJCOJFA@?$AAx?$AAh?$AA?9?$AAZ?$AAA?$AA?$AA@ 0000000180027578     libcpmt:winapinls.obj
 0002:00004588       ??_C@_1M@LGPJHNJH@?$AAz?$AAu?$AA?9?$AAZ?$AAA?$AA?$AA@ 0000000180027588     libcpmt:winapinls.obj
 0002:00004598       ??_C@_1M@HOKAOIO@?$AAa?$AAf?$AA?9?$AAZ?$AAA?$AA?$AA@ 0000000180027598     libcpmt:winapinls.obj
 0002:000045a8       ??_C@_1M@DPCLHLIE@?$AAk?$AAa?$AA?9?$AAG?$AAE?$AA?$AA@ 00000001800275a8     libcpmt:winapinls.obj
 0002:000045b8       ??_C@_1M@BLKMHJBI@?$AAf?$AAo?$AA?9?$AAF?$AAO?$AA?$AA@ 00000001800275b8     libcpmt:winapinls.obj
 0002:000045c8       ??_C@_1M@LGGJAPPB@?$AAh?$AAi?$AA?9?$AAI?$AAN?$AA?$AA@ 00000001800275c8     libcpmt:winapinls.obj
 0002:000045d8       ??_C@_1M@FIKPIHFE@?$AAm?$AAt?$AA?9?$AAM?$AAT?$AA?$AA@ 00000001800275d8     libcpmt:winapinls.obj
 0002:000045e8       ??_C@_1M@HEGGPBFA@?$AAs?$AAe?$AA?9?$AAN?$AAO?$AA?$AA@ 00000001800275e8     libcpmt:winapinls.obj
 0002:000045f8       ??_C@_1M@EIBJEEPA@?$AAm?$AAs?$AA?9?$AAM?$AAY?$AA?$AA@ 00000001800275f8     libcpmt:winapinls.obj
 0002:00004608       ??_C@_1M@FHLBGMPP@?$AAk?$AAk?$AA?9?$AAK?$AAZ?$AA?$AA@ 0000000180027608     libcpmt:winapinls.obj
 0002:00004618       ??_C@_1M@NGJJLCGI@?$AAk?$AAy?$AA?9?$AAK?$AAG?$AA?$AA@ 0000000180027618     libcpmt:winapinls.obj
 0002:00004628       ??_C@_1M@GIENNBFC@?$AAs?$AAw?$AA?9?$AAK?$AAE?$AA?$AA@ 0000000180027628     libcpmt:winapinls.obj
 0002:00004638       ??_C@_1BG@NDGMJIMJ@?$AAu?$AAz?$AA?9?$AAU?$AAZ?$AA?9?$AAL?$AAa?$AAt?$AAn?$AA?$AA@ 0000000180027638     libcpmt:winapinls.obj
 0002:00004650       ??_C@_1M@IDCCIHBC@?$AAt?$AAt?$AA?9?$AAR?$AAU?$AA?$AA@ 0000000180027650     libcpmt:winapinls.obj
 0002:00004660       ??_C@_1M@LOICPMOJ@?$AAb?$AAn?$AA?9?$AAI?$AAN?$AA?$AA@ 0000000180027660     libcpmt:winapinls.obj
 0002:00004670       ??_C@_1M@KPKKNEAH@?$AAp?$AAa?$AA?9?$AAI?$AAN?$AA?$AA@ 0000000180027670     libcpmt:winapinls.obj
 0002:00004680       ??_C@_1M@PJGPPBOG@?$AAg?$AAu?$AA?9?$AAI?$AAN?$AA?$AA@ 0000000180027680     libcpmt:winapinls.obj
 0002:00004690       ??_C@_1M@KMKMOPHI@?$AAt?$AAa?$AA?9?$AAI?$AAN?$AA?$AA@ 0000000180027690     libcpmt:winapinls.obj
 0002:000046a0       ??_C@_1M@KFEHEPAC@?$AAt?$AAe?$AA?9?$AAI?$AAN?$AA?$AA@ 00000001800276a0     libcpmt:winapinls.obj
 0002:000046b0       ??_C@_1M@CDCLMGHI@?$AAk?$AAn?$AA?9?$AAI?$AAN?$AA?$AA@ 00000001800276b0     libcpmt:winapinls.obj
 0002:000046c0       ??_C@_1M@MIODLDKF@?$AAm?$AAl?$AA?9?$AAI?$AAN?$AA?$AA@ 00000001800276c0     libcpmt:winapinls.obj
 0002:000046d0       ??_C@_1M@PBIEACPO@?$AAm?$AAr?$AA?9?$AAI?$AAN?$AA?$AA@ 00000001800276d0     libcpmt:winapinls.obj
 0002:000046e0       ??_C@_1M@NIDEAGPH@?$AAs?$AAa?$AA?9?$AAI?$AAN?$AA?$AA@ 00000001800276e0     libcpmt:winapinls.obj
 0002:000046f0       ??_C@_1M@FHIHCBIO@?$AAm?$AAn?$AA?9?$AAM?$AAN?$AA?$AA@ 00000001800276f0     libcpmt:winapinls.obj
 0002:00004700       ??_C@_1M@JAIJPENP@?$AAc?$AAy?$AA?9?$AAG?$AAB?$AA?$AA@ 0000000180027700     libcpmt:winapinls.obj
 0002:00004710       ??_C@_1M@PHGFBEPN@?$AAg?$AAl?$AA?9?$AAE?$AAS?$AA?$AA@ 0000000180027710     libcpmt:winapinls.obj
 0002:00004720       ??_C@_1O@KPIPDNCP@?$AAk?$AAo?$AAk?$AA?9?$AAI?$AAN?$AA?$AA@ 0000000180027720     libcpmt:winapinls.obj
 0002:00004730       ??_C@_1O@KNHJLDJA@?$AAs?$AAy?$AAr?$AA?9?$AAS?$AAY?$AA?$AA@ 0000000180027730     libcpmt:winapinls.obj
 0002:00004740       ??_C@_1O@MKEKBLAH@?$AAd?$AAi?$AAv?$AA?9?$AAM?$AAV?$AA?$AA@ 0000000180027740     libcpmt:winapinls.obj
 0002:00004750       ??_C@_1O@OHDCKDDF@?$AAq?$AAu?$AAz?$AA?9?$AAB?$AAO?$AA?$AA@ 0000000180027750     libcpmt:winapinls.obj
 0002:00004760       ??_C@_1M@LEPJNLFD@?$AAn?$AAs?$AA?9?$AAZ?$AAA?$AA?$AA@ 0000000180027760     libcpmt:winapinls.obj
 0002:00004770       ??_C@_1M@OMLEIIJB@?$AAm?$AAi?$AA?9?$AAN?$AAZ?$AA?$AA@ 0000000180027770     libcpmt:winapinls.obj
 0002:00004780       ??_C@_1M@PMPEAILG@?$AAa?$AAr?$AA?9?$AAI?$AAQ?$AA?$AA@ 0000000180027780     libcpmt:winapinls.obj
 0002:00004790       ??_C@_1M@BIBDDEMK@?$AAz?$AAh?$AA?9?$AAC?$AAN?$AA?$AA@ 0000000180027790     libcpmt:winapinls.obj
 0002:000047a0       ??_C@_1M@CNKPNOEE@?$AAd?$AAe?$AA?9?$AAC?$AAH?$AA?$AA@ 00000001800277a0     libcpmt:winapinls.obj
 0002:000047b0       ??_C@_1M@LKMGMLKO@?$AAe?$AAn?$AA?9?$AAG?$AAB?$AA?$AA@ 00000001800277b0     libcpmt:winapinls.obj
 0002:000047c0       ??_C@_1M@PGKJFFGL@?$AAe?$AAs?$AA?9?$AAM?$AAX?$AA?$AA@ 00000001800277c0     libcpmt:winapinls.obj
 0002:000047d0       ??_C@_1M@DNNANBDC@?$AAf?$AAr?$AA?9?$AAB?$AAE?$AA?$AA@ 00000001800277d0     libcpmt:winapinls.obj
 0002:000047e0       ??_C@_1M@HLGMDFHM@?$AAi?$AAt?$AA?9?$AAC?$AAH?$AA?$AA@ 00000001800277e0     libcpmt:winapinls.obj
 0002:000047f0       ??_C@_1M@CLLBGJH@?$AAn?$AAl?$AA?9?$AAB?$AAE?$AA?$AA@ 00000001800277f0     libcpmt:winapinls.obj
 0002:00004800       ??_C@_1M@BODBOGLF@?$AAn?$AAn?$AA?9?$AAN?$AAO?$AA?$AA@ 0000000180027800     libcpmt:winapinls.obj
 0002:00004810       ??_C@_1M@HFFAHKAD@?$AAp?$AAt?$AA?9?$AAP?$AAT?$AA?$AA@ 0000000180027810     libcpmt:winapinls.obj
 0002:00004820       ??_C@_1BG@LNOAKHIE@?$AAs?$AAr?$AA?9?$AAS?$AAP?$AA?9?$AAL?$AAa?$AAt?$AAn?$AA?$AA@ 0000000180027820     libcpmt:winapinls.obj
 0002:00004838       ??_C@_1M@HBMHBGAK@?$AAs?$AAv?$AA?9?$AAF?$AAI?$AA?$AA@ 0000000180027838     libcpmt:winapinls.obj
 0002:00004848       ??_C@_1BG@DGCJGJBE@?$AAa?$AAz?$AA?9?$AAA?$AAZ?$AA?9?$AAC?$AAy?$AAr?$AAl?$AA?$AA@ 0000000180027848     libcpmt:winapinls.obj
 0002:00004860       ??_C@_1M@KEJDAAHB@?$AAs?$AAe?$AA?9?$AAS?$AAE?$AA?$AA@ 0000000180027860     libcpmt:winapinls.obj
 0002:00004870       ??_C@_1M@HEIBJJAD@?$AAm?$AAs?$AA?9?$AAB?$AAN?$AA?$AA@ 0000000180027870     libcpmt:winapinls.obj
 0002:00004880       ??_C@_1BG@PBGJMCEM@?$AAu?$AAz?$AA?9?$AAU?$AAZ?$AA?9?$AAC?$AAy?$AAr?$AAl?$AA?$AA@ 0000000180027880     libcpmt:winapinls.obj
 0002:00004898       ??_C@_1O@LAOBCMDF@?$AAq?$AAu?$AAz?$AA?9?$AAE?$AAC?$AA?$AA@ 0000000180027898     libcpmt:winapinls.obj
 0002:000048a8       ??_C@_1M@POEEMAIO@?$AAa?$AAr?$AA?9?$AAE?$AAG?$AA?$AA@ 00000001800278a8     libcpmt:winapinls.obj
 0002:000048b8       ??_C@_1M@EFAKDEDL@?$AAz?$AAh?$AA?9?$AAH?$AAK?$AA?$AA@ 00000001800278b8     libcpmt:winapinls.obj
 0002:000048c8       ??_C@_1M@HKKIJHGI@?$AAd?$AAe?$AA?9?$AAA?$AAT?$AA?$AA@ 00000001800278c8     libcpmt:winapinls.obj
 0002:000048d8       ??_C@_1M@KBFBEHJF@?$AAe?$AAn?$AA?9?$AAA?$AAU?$AA?$AA@ 00000001800278d8     libcpmt:winapinls.obj
 0002:000048e8       ??_C@_1M@MNPLFAAH@?$AAe?$AAs?$AA?9?$AAE?$AAS?$AA?$AA@ 00000001800278e8     libcpmt:winapinls.obj
 0002:000048f8       ??_C@_1M@HJOOJFMA@?$AAf?$AAr?$AA?9?$AAC?$AAA?$AA?$AA@ 00000001800278f8     libcpmt:winapinls.obj
 0002:00004908       ??_C@_1BG@JPOFPNAB@?$AAs?$AAr?$AA?9?$AAS?$AAP?$AA?9?$AAC?$AAy?$AAr?$AAl?$AA?$AA@ 0000000180027908     libcpmt:winapinls.obj
 0002:00004920       ??_C@_1M@LNFOCMOB@?$AAs?$AAe?$AA?9?$AAF?$AAI?$AA?$AA@ 0000000180027920     libcpmt:winapinls.obj
 0002:00004930       ??_C@_1O@MGJBOAMB@?$AAq?$AAu?$AAz?$AA?9?$AAP?$AAE?$AA?$AA@ 0000000180027930     libcpmt:winapinls.obj
 0002:00004940       ??_C@_1M@GJINLBOK@?$AAa?$AAr?$AA?9?$AAL?$AAY?$AA?$AA@ 0000000180027940     libcpmt:winapinls.obj
 0002:00004950       ??_C@_1M@GGMNHJNL@?$AAz?$AAh?$AA?9?$AAS?$AAG?$AA?$AA@ 0000000180027950     libcpmt:winapinls.obj
 0002:00004960       ??_C@_1M@HOIKODND@?$AAd?$AAe?$AA?9?$AAL?$AAU?$AA?$AA@ 0000000180027960     libcpmt:winapinls.obj
 0002:00004970       ??_C@_1M@DDOCCGFG@?$AAe?$AAn?$AA?9?$AAC?$AAA?$AA?$AA@ 0000000180027970     libcpmt:winapinls.obj
 0002:00004980       ??_C@_1M@BNOEMJLF@?$AAe?$AAs?$AA?9?$AAG?$AAT?$AA?$AA@ 0000000180027980     libcpmt:winapinls.obj
 0002:00004990       ??_C@_1M@EOGNKEK@?$AAf?$AAr?$AA?9?$AAC?$AAH?$AA?$AA@ 0000000180027990     libcpmt:winapinls.obj
 0002:000049a0       ??_C@_1M@FLIDJFHL@?$AAh?$AAr?$AA?9?$AAB?$AAA?$AA?$AA@ 00000001800279a0     libcpmt:winapinls.obj
 0002:000049b0       ??_C@_1O@FMCELNAJ@?$AAs?$AAm?$AAj?$AA?9?$AAN?$AAO?$AA?$AA@ 00000001800279b0     libcpmt:winapinls.obj
 0002:000049c0       ??_C@_1M@JHGLJMGJ@?$AAa?$AAr?$AA?9?$AAD?$AAZ?$AA?$AA@ 00000001800279c0     libcpmt:winapinls.obj
 0002:000049d0       ??_C@_1M@JKKFDCNP@?$AAz?$AAh?$AA?9?$AAM?$AAO?$AA?$AA@ 00000001800279d0     libcpmt:winapinls.obj
 0002:000049e0       ??_C@_1M@GEEFALPE@?$AAd?$AAe?$AA?9?$AAL?$AAI?$AA?$AA@ 00000001800279e0     libcpmt:winapinls.obj
 0002:000049f0       ??_C@_1M@IGEOFBG@?$AAe?$AAn?$AA?9?$AAN?$AAZ?$AA?$AA@ 00000001800279f0     libcpmt:winapinls.obj
 0002:00004a00       ??_C@_1M@KDBONEHP@?$AAe?$AAs?$AA?9?$AAC?$AAR?$AA?$AA@ 0000000180027a00     libcpmt:winapinls.obj
 0002:00004a10       ??_C@_1M@FHMDOHNN@?$AAf?$AAr?$AA?9?$AAL?$AAU?$AA?$AA@ 0000000180027a10     libcpmt:winapinls.obj
 0002:00004a20       ??_C@_1BG@NFKKMAFG@?$AAb?$AAs?$AA?9?$AAB?$AAA?$AA?9?$AAL?$AAa?$AAt?$AAn?$AA?$AA@ 0000000180027a20     libcpmt:winapinls.obj
 0002:00004a38       ??_C@_1O@IMNBEMCI@?$AAs?$AAm?$AAj?$AA?9?$AAS?$AAE?$AA?$AA@ 0000000180027a38     libcpmt:winapinls.obj
 0002:00004a48       ??_C@_1M@DHHMBNDP@?$AAa?$AAr?$AA?9?$AAM?$AAA?$AA?$AA@ 0000000180027a48     libcpmt:winapinls.obj
 0002:00004a58       ??_C@_1M@BNBLJCGH@?$AAe?$AAn?$AA?9?$AAI?$AAE?$AA?$AA@ 0000000180027a58     libcpmt:winapinls.obj
 0002:00004a68       ??_C@_1M@GEPAFMDL@?$AAe?$AAs?$AA?9?$AAP?$AAA?$AA?$AA@ 0000000180027a68     libcpmt:winapinls.obj
 0002:00004a78       ??_C@_1M@OJONDMDL@?$AAf?$AAr?$AA?9?$AAM?$AAC?$AA?$AA@ 0000000180027a78     libcpmt:winapinls.obj
 0002:00004a88       ??_C@_1BG@OBCNFJB@?$AAs?$AAr?$AA?9?$AAB?$AAA?$AA?9?$AAL?$AAa?$AAt?$AAn?$AA?$AA@ 0000000180027a88     libcpmt:winapinls.obj
 0002:00004aa0       ??_C@_1O@KEMEEGPO@?$AAs?$AAm?$AAa?$AA?9?$AAN?$AAO?$AA?$AA@ 0000000180027aa0     libcpmt:winapinls.obj
 0002:00004ab0       ??_C@_1M@ELMGFODK@?$AAa?$AAr?$AA?9?$AAT?$AAN?$AA?$AA@ 0000000180027ab0     libcpmt:winapinls.obj
 0002:00004ac0       ??_C@_1M@BHDLHFAF@?$AAe?$AAn?$AA?9?$AAZ?$AAA?$AA?$AA@ 0000000180027ac0     libcpmt:winapinls.obj
 0002:00004ad0       ??_C@_1M@BMGIGLIF@?$AAe?$AAs?$AA?9?$AAD?$AAO?$AA?$AA@ 0000000180027ad0     libcpmt:winapinls.obj
 0002:00004ae0       ??_C@_1BG@CMBHIPBE@?$AAs?$AAr?$AA?9?$AAB?$AAA?$AA?9?$AAC?$AAy?$AAr?$AAl?$AA?$AA@ 0000000180027ae0     libcpmt:winapinls.obj
 0002:00004af8       ??_C@_1O@HEDBLHNP@?$AAs?$AAm?$AAa?$AA?9?$AAS?$AAE?$AA?$AA@ 0000000180027af8     libcpmt:winapinls.obj
 0002:00004b08       ??_C@_1M@DAGCADIM@?$AAa?$AAr?$AA?9?$AAO?$AAM?$AA?$AA@ 0000000180027b08     libcpmt:winapinls.obj
 0002:00004b18       ??_C@_1M@FODLMICG@?$AAe?$AAn?$AA?9?$AAJ?$AAM?$AA?$AA@ 0000000180027b18     libcpmt:winapinls.obj
 0002:00004b28       ??_C@_1M@DNMLCIHB@?$AAe?$AAs?$AA?9?$AAV?$AAE?$AA?$AA@ 0000000180027b28     libcpmt:winapinls.obj
 0002:00004b38       ??_C@_1O@EOKHMKJK@?$AAs?$AAm?$AAs?$AA?9?$AAF?$AAI?$AA?$AA@ 0000000180027b38     libcpmt:winapinls.obj
 0002:00004b48       ??_C@_1M@CAFJMKOF@?$AAa?$AAr?$AA?9?$AAY?$AAE?$AA?$AA@ 0000000180027b48     libcpmt:winapinls.obj
 0002:00004b58       ??_C@_1M@CBFHIJLI@?$AAe?$AAn?$AA?9?$AAC?$AAB?$AA?$AA@ 0000000180027b58     libcpmt:winapinls.obj
 0002:00004b68       ??_C@_1M@BGNFLDN@?$AAe?$AAs?$AA?9?$AAC?$AAO?$AA?$AA@ 0000000180027b68     libcpmt:winapinls.obj
 0002:00004b78       ??_C@_1O@JMPHMAMC@?$AAs?$AAm?$AAn?$AA?9?$AAF?$AAI?$AA?$AA@ 0000000180027b78     libcpmt:winapinls.obj
 0002:00004b88       ??_C@_1M@JLANABKE@?$AAa?$AAr?$AA?9?$AAS?$AAY?$AA?$AA@ 0000000180027b88     libcpmt:winapinls.obj
 0002:00004b98       ??_C@_1M@HPKGCFGN@?$AAe?$AAn?$AA?9?$AAB?$AAZ?$AA?$AA@ 0000000180027b98     libcpmt:winapinls.obj
 0002:00004ba8       ??_C@_1M@OLJCMLGM@?$AAe?$AAs?$AA?9?$AAP?$AAE?$AA?$AA@ 0000000180027ba8     libcpmt:winapinls.obj
 0002:00004bb8       ??_C@_1M@MKKGFKLE@?$AAa?$AAr?$AA?9?$AAJ?$AAO?$AA?$AA@ 0000000180027bb8     libcpmt:winapinls.obj
 0002:00004bc8       ??_C@_1M@EKPGLDNI@?$AAe?$AAn?$AA?9?$AAT?$AAT?$AA?$AA@ 0000000180027bc8     libcpmt:winapinls.obj
 0002:00004bd8       ??_C@_1M@OONGHFHE@?$AAe?$AAs?$AA?9?$AAA?$AAR?$AA?$AA@ 0000000180027bd8     libcpmt:winapinls.obj
 0002:00004be8       ??_C@_1M@OOJFGBHE@?$AAa?$AAr?$AA?9?$AAL?$AAB?$AA?$AA@ 0000000180027be8     libcpmt:winapinls.obj
 0002:00004bf8       ??_C@_1M@GCEJHNEG@?$AAe?$AAn?$AA?9?$AAZ?$AAW?$AA?$AA@ 0000000180027bf8     libcpmt:winapinls.obj
 0002:00004c08       ??_C@_1M@JNOCAHJI@?$AAe?$AAs?$AA?9?$AAE?$AAC?$AA?$AA@ 0000000180027c08     libcpmt:winapinls.obj
 0002:00004c18       ??_C@_1M@JEFHPGGB@?$AAa?$AAr?$AA?9?$AAK?$AAW?$AA?$AA@ 0000000180027c18     libcpmt:winapinls.obj
 0002:00004c28       ??_C@_1M@MLKIBJOJ@?$AAe?$AAn?$AA?9?$AAP?$AAH?$AA?$AA@ 0000000180027c28     libcpmt:winapinls.obj
 0002:00004c38       ??_C@_1M@BDNIPEND@?$AAe?$AAs?$AA?9?$AAC?$AAL?$AA?$AA@ 0000000180027c38     libcpmt:winapinls.obj
 0002:00004c48       ??_C@_1M@MPNMEKBD@?$AAa?$AAr?$AA?9?$AAA?$AAE?$AA?$AA@ 0000000180027c48     libcpmt:winapinls.obj
 0002:00004c58       ??_C@_1M@KBJALCPI@?$AAe?$AAs?$AA?9?$AAU?$AAY?$AA?$AA@ 0000000180027c58     libcpmt:winapinls.obj
 0002:00004c68       ??_C@_1M@LLCCOAGA@?$AAa?$AAr?$AA?9?$AAB?$AAH?$AA?$AA@ 0000000180027c68     libcpmt:winapinls.obj
 0002:00004c78       ??_C@_1M@PBFNCDEL@?$AAe?$AAs?$AA?9?$AAP?$AAY?$AA?$AA@ 0000000180027c78     libcpmt:winapinls.obj
 0002:00004c88       ??_C@_1M@EDGINPNP@?$AAa?$AAr?$AA?9?$AAQ?$AAA?$AA?$AA@ 0000000180027c88     libcpmt:winapinls.obj
 0002:00004c98       ??_C@_1M@MKDBIIJI@?$AAe?$AAs?$AA?9?$AAB?$AAO?$AA?$AA@ 0000000180027c98     libcpmt:winapinls.obj
 0002:00004ca8       ??_C@_1M@CPKKEBLD@?$AAe?$AAs?$AA?9?$AAS?$AAV?$AA?$AA@ 0000000180027ca8     libcpmt:winapinls.obj
 0002:00004cb8       ??_C@_1M@NDBGMMJL@?$AAe?$AAs?$AA?9?$AAH?$AAN?$AA?$AA@ 0000000180027cb8     libcpmt:winapinls.obj
 0002:00004cc8       ??_C@_1M@JIJIBHDP@?$AAe?$AAs?$AA?9?$AAN?$AAI?$AA?$AA@ 0000000180027cc8     libcpmt:winapinls.obj
 0002:00004cd8       ??_C@_1M@CGFMKEEK@?$AAe?$AAs?$AA?9?$AAP?$AAR?$AA?$AA@ 0000000180027cd8     libcpmt:winapinls.obj
 0002:00004ce8       ??_C@_1O@ICJHKIIK@?$AAz?$AAh?$AA?9?$AAC?$AAH?$AAT?$AA?$AA@ 0000000180027ce8     libcpmt:winapinls.obj
 0002:00004cf8       ??_C@_15CLNEJCE@?$AAs?$AAr?$AA?$AA@ 0000000180027cf8     libcpmt:winapinls.obj
 0002:00004d00       ??_C@_1M@KAHEKEIG@?$AAa?$AAf?$AA?9?$AAz?$AAa?$AA?$AA@ 0000000180027d00     libcpmt:winapinls.obj
 0002:00004d10       ??_C@_1M@GIECOABL@?$AAa?$AAr?$AA?9?$AAa?$AAe?$AA?$AA@ 0000000180027d10     libcpmt:winapinls.obj
 0002:00004d20       ??_C@_1M@BMLMEKGI@?$AAa?$AAr?$AA?9?$AAb?$AAh?$AA?$AA@ 0000000180027d20     libcpmt:winapinls.obj
 0002:00004d30       ??_C@_1M@DAPFDGGB@?$AAa?$AAr?$AA?9?$AAd?$AAz?$AA?$AA@ 0000000180027d30     libcpmt:winapinls.obj
 0002:00004d40       ??_C@_1M@FJNKGKIG@?$AAa?$AAr?$AA?9?$AAe?$AAg?$AA?$AA@ 0000000180027d40     libcpmt:winapinls.obj
 0002:00004d50       ??_C@_1M@FLGKKCLO@?$AAa?$AAr?$AA?9?$AAi?$AAq?$AA?$AA@ 0000000180027d50     libcpmt:winapinls.obj
 0002:00004d60       ??_C@_1M@GNDIPALM@?$AAa?$AAr?$AA?9?$AAj?$AAo?$AA?$AA@ 0000000180027d60     libcpmt:winapinls.obj
 0002:00004d70       ??_C@_1M@DDMJFMGJ@?$AAa?$AAr?$AA?9?$AAk?$AAw?$AA?$AA@ 0000000180027d70     libcpmt:winapinls.obj
 0002:00004d80       ??_C@_1M@EJALMLHM@?$AAa?$AAr?$AA?9?$AAl?$AAb?$AA?$AA@ 0000000180027d80     libcpmt:winapinls.obj
 0002:00004d90       ??_C@_1M@MOBDBLOC@?$AAa?$AAr?$AA?9?$AAl?$AAy?$AA?$AA@ 0000000180027d90     libcpmt:winapinls.obj
 0002:00004da0       ??_C@_1M@JAOCLHDH@?$AAa?$AAr?$AA?9?$AAm?$AAa?$AA?$AA@ 0000000180027da0     libcpmt:winapinls.obj
 0002:00004db0       ??_C@_1M@JHPMKJIE@?$AAa?$AAr?$AA?9?$AAo?$AAm?$AA?$AA@ 0000000180027db0     libcpmt:winapinls.obj
 0002:00004dc0       ??_C@_1M@OEPGHFNH@?$AAa?$AAr?$AA?9?$AAq?$AAa?$AA?$AA@ 0000000180027dc0     libcpmt:winapinls.obj
 0002:00004dd0       ??_C@_1M@KJDONENM@?$AAa?$AAr?$AA?9?$AAs?$AAa?$AA?$AA@ 0000000180027dd0     libcpmt:winapinls.obj
 0002:00004de0       ??_C@_1M@DMJDKLKM@?$AAa?$AAr?$AA?9?$AAs?$AAy?$AA?$AA@ 0000000180027de0     libcpmt:winapinls.obj
 0002:00004df0       ??_C@_1M@OMFIPEDC@?$AAa?$AAr?$AA?9?$AAt?$AAn?$AA?$AA@ 0000000180027df0     libcpmt:winapinls.obj
 0002:00004e00       ??_C@_1M@IHMHGAON@?$AAa?$AAr?$AA?9?$AAy?$AAe?$AA?$AA@ 0000000180027e00     libcpmt:winapinls.obj
 0002:00004e10       ??_C@_1BG@KDCPGJGB@?$AAa?$AAz?$AA?9?$AAa?$AAz?$AA?9?$AAc?$AAy?$AAr?$AAl?$AA?$AA@ 0000000180027e10     libcpmt:winapinls.obj
 0002:00004e28       ??_C@_1BG@IBCKDDOE@?$AAa?$AAz?$AA?9?$AAa?$AAz?$AA?9?$AAl?$AAa?$AAt?$AAn?$AA?$AA@ 0000000180027e28     libcpmt:winapinls.obj
 0002:00004e40       ??_C@_1M@EGPFDCPD@?$AAb?$AAe?$AA?9?$AAb?$AAy?$AA?$AA@ 0000000180027e40     libcpmt:winapinls.obj
 0002:00004e50       ??_C@_1M@PCMGMCGC@?$AAb?$AAg?$AA?9?$AAb?$AAg?$AA?$AA@ 0000000180027e50     libcpmt:winapinls.obj
 0002:00004e60       ??_C@_1M@BJBMFGOB@?$AAb?$AAn?$AA?9?$AAi?$AAn?$AA?$AA@ 0000000180027e60     libcpmt:winapinls.obj
 0002:00004e70       ??_C@_1BG@EAKMMACD@?$AAb?$AAs?$AA?9?$AAb?$AAa?$AA?9?$AAl?$AAa?$AAt?$AAn?$AA?$AA@ 0000000180027e70     libcpmt:winapinls.obj
 0002:00004e88       ??_C@_1M@KGADAODK@?$AAc?$AAa?$AA?9?$AAe?$AAs?$AA?$AA@ 0000000180027e88     libcpmt:winapinls.obj
 0002:00004e98       ??_C@_1M@COAJPDHI@?$AAc?$AAs?$AA?9?$AAc?$AAz?$AA?$AA@ 0000000180027e98     libcpmt:winapinls.obj
 0002:00004ea8       ??_C@_1M@DHBHFONH@?$AAc?$AAy?$AA?9?$AAg?$AAb?$AA?$AA@ 0000000180027ea8     libcpmt:winapinls.obj
 0002:00004eb8       ??_C@_1M@IMGKELGA@?$AAd?$AAa?$AA?9?$AAd?$AAk?$AA?$AA@ 0000000180027eb8     libcpmt:winapinls.obj
 0002:00004ec8       ??_C@_1M@NNDGDNGA@?$AAd?$AAe?$AA?9?$AAa?$AAt?$AA?$AA@ 0000000180027ec8     libcpmt:winapinls.obj
 0002:00004ed8       ??_C@_1M@IKDBHEEM@?$AAd?$AAe?$AA?9?$AAc?$AAh?$AA?$AA@ 0000000180027ed8     libcpmt:winapinls.obj
 0002:00004ee8       ??_C@_1M@GFFOJMCJ@?$AAd?$AAe?$AA?9?$AAd?$AAe?$AA?$AA@ 0000000180027ee8     libcpmt:winapinls.obj
 0002:00004ef8       ??_C@_1M@MDNLKBPM@?$AAd?$AAe?$AA?9?$AAl?$AAi?$AA?$AA@ 0000000180027ef8     libcpmt:winapinls.obj
 0002:00004f08       ??_C@_1M@NJBEEJNL@?$AAd?$AAe?$AA?9?$AAl?$AAu?$AA?$AA@ 0000000180027f08     libcpmt:winapinls.obj
 0002:00004f18       ??_C@_1O@GNNELBAP@?$AAd?$AAi?$AAv?$AA?9?$AAm?$AAv?$AA?$AA@ 0000000180027f18     libcpmt:winapinls.obj
 0002:00004f28       ??_C@_1M@EJLEOGAE@?$AAe?$AAl?$AA?9?$AAg?$AAr?$AA?$AA@ 0000000180027f28     libcpmt:winapinls.obj
 0002:00004f38       ??_C@_1M@GMPONJN@?$AAe?$AAn?$AA?9?$AAa?$AAu?$AA?$AA@ 0000000180027f38     libcpmt:winapinls.obj
 0002:00004f48       ??_C@_1M@NIDIIPGF@?$AAe?$AAn?$AA?9?$AAb?$AAz?$AA?$AA@ 0000000180027f48     libcpmt:winapinls.obj
 0002:00004f58       ??_C@_1M@JEHMIMFO@?$AAe?$AAn?$AA?9?$AAc?$AAa?$AA?$AA@ 0000000180027f58     libcpmt:winapinls.obj
 0002:00004f68       ??_C@_1M@IGMJCDLA@?$AAe?$AAn?$AA?9?$AAc?$AAb?$AA?$AA@ 0000000180027f68     libcpmt:winapinls.obj
 0002:00004f78       ??_C@_1M@BNFIGBKG@?$AAe?$AAn?$AA?9?$AAg?$AAb?$AA?$AA@ 0000000180027f78     libcpmt:winapinls.obj
 0002:00004f88       ??_C@_1M@LKIFDIGP@?$AAe?$AAn?$AA?9?$AAi?$AAe?$AA?$AA@ 0000000180027f88     libcpmt:winapinls.obj
 0002:00004f98       ??_C@_1M@PJKFGCCO@?$AAe?$AAn?$AA?9?$AAj?$AAm?$AA?$AA@ 0000000180027f98     libcpmt:winapinls.obj
 0002:00004fa8       ??_C@_1M@KPPKEPBO@?$AAe?$AAn?$AA?9?$AAn?$AAz?$AA?$AA@ 0000000180027fa8     libcpmt:winapinls.obj
 0002:00004fb8       ??_C@_1M@GMDGLDOB@?$AAe?$AAn?$AA?9?$AAp?$AAh?$AA?$AA@ 0000000180027fb8     libcpmt:winapinls.obj
 0002:00004fc8       ??_C@_1M@ONGIBJNA@?$AAe?$AAn?$AA?9?$AAt?$AAt?$AA?$AA@ 0000000180027fc8     libcpmt:winapinls.obj
 0002:00004fd8       ??_C@_1M@LLODPCMM@?$AAe?$AAn?$AA?9?$AAu?$AAs?$AA?$AA@ 0000000180027fd8     libcpmt:winapinls.obj
 0002:00004fe8       ??_C@_1M@LAKFNPAN@?$AAe?$AAn?$AA?9?$AAz?$AAa?$AA?$AA@ 0000000180027fe8     libcpmt:winapinls.obj
 0002:00004ff8       ??_C@_1M@MFNHNHEO@?$AAe?$AAn?$AA?9?$AAz?$AAw?$AA?$AA@ 0000000180027ff8     libcpmt:winapinls.obj
 0002:00005008       ??_C@_1M@EJEINPHM@?$AAe?$AAs?$AA?9?$AAa?$AAr?$AA?$AA@ 0000000180028008     libcpmt:winapinls.obj
 0002:00005018       ??_C@_1M@GNKPCCJA@?$AAe?$AAs?$AA?9?$AAb?$AAo?$AA?$AA@ 0000000180028018     libcpmt:winapinls.obj
 0002:00005028       ??_C@_1M@LEEGFONL@?$AAe?$AAs?$AA?9?$AAc?$AAl?$AA?$AA@ 0000000180028028     libcpmt:winapinls.obj
 0002:00005038       ??_C@_1M@KGPDPBDF@?$AAe?$AAs?$AA?9?$AAc?$AAo?$AA?$AA@ 0000000180028038     libcpmt:winapinls.obj
 0002:00005048       ??_C@_1M@EIAHOHH@?$AAe?$AAs?$AA?9?$AAc?$AAr?$AA?$AA@ 0000000180028048     libcpmt:winapinls.obj
 0002:00005058       ??_C@_1M@LLPGMBIN@?$AAe?$AAs?$AA?9?$AAd?$AAo?$AA?$AA@ 0000000180028058     libcpmt:winapinls.obj
 0002:00005068       ??_C@_1M@DKHMKNJA@?$AAe?$AAs?$AA?9?$AAe?$AAc?$AA?$AA@ 0000000180028068     libcpmt:winapinls.obj
 0002:00005078       ??_C@_1M@GKGFPKAP@?$AAe?$AAs?$AA?9?$AAe?$AAs?$AA?$AA@ 0000000180028078     libcpmt:winapinls.obj
 0002:00005088       ??_C@_1M@LKHKGDLN@?$AAe?$AAs?$AA?9?$AAg?$AAt?$AA?$AA@ 0000000180028088     libcpmt:winapinls.obj
 0002:00005098       ??_C@_1M@HEIIGGJD@?$AAe?$AAs?$AA?9?$AAh?$AAn?$AA?$AA@ 0000000180028098     libcpmt:winapinls.obj
 0002:000050a8       ??_C@_1M@FBDHPPGD@?$AAe?$AAs?$AA?9?$AAm?$AAx?$AA?$AA@ 00000001800280a8     libcpmt:winapinls.obj
 0002:000050b8       ??_C@_1M@DPAGLNDH@?$AAe?$AAs?$AA?9?$AAn?$AAi?$AA?$AA@ 00000001800280b8     libcpmt:winapinls.obj
 0002:000050c8       ??_C@_1M@MDGOPGDD@?$AAe?$AAs?$AA?9?$AAp?$AAa?$AA?$AA@ 00000001800280c8     libcpmt:winapinls.obj
 0002:000050d8       ??_C@_1M@EMAMGBGE@?$AAe?$AAs?$AA?9?$AAp?$AAe?$AA?$AA@ 00000001800280d8     libcpmt:winapinls.obj
 0002:000050e8       ??_C@_1M@IBMCAOEC@?$AAe?$AAs?$AA?9?$AAp?$AAr?$AA?$AA@ 00000001800280e8     libcpmt:winapinls.obj
 0002:000050f8       ??_C@_1M@FGMDIJED@?$AAe?$AAs?$AA?9?$AAp?$AAy?$AA?$AA@ 00000001800280f8     libcpmt:winapinls.obj
 0002:00005108       ??_C@_1M@IIDEOLLL@?$AAe?$AAs?$AA?9?$AAs?$AAv?$AA?$AA@ 0000000180028108     libcpmt:winapinls.obj
 0002:00005118       ??_C@_1M@GAOBIPA@?$AAe?$AAs?$AA?9?$AAu?$AAy?$AA?$AA@ 0000000180028118     libcpmt:winapinls.obj
 0002:00005124       ??_C@_01JOAMLHOP@?9?$AA@   0000000180028124     libcpmt:wlocale.obj
 0002:000051c8       _pDefaultRawDllMain        00000001800281c8     LIBCMT:dll_dllmain.obj
 0002:000051c8       _pRawDllMain               00000001800281c8     LIBCMT:dll_dllmain.obj
 0002:000051d8       ??_7type_info@@6B@         00000001800281d8     LIBCMT:std_type_info_static.obj
 0002:000051f8       ??_7bad_array_new_length@std@@6B@ 00000001800281f8     LIBCMT:throw_bad_alloc.obj
 0002:00005208       ??_C@_0BF@KINCDENJ@bad?5array?5new?5length?$AA@ 0000000180028208     LIBCMT:throw_bad_alloc.obj
 0002:00005220       _pDestructExceptionObject  0000000180028220     libvcruntime:frame.obj
 0002:00005230       ??_7bad_exception@std@@6B@ 0000000180028230     libvcruntime:frame.obj
 0002:00005240       ??_C@_0O@DPKOEFFH@bad?5exception?$AA@ 0000000180028240     libvcruntime:frame.obj
 0002:00005348       ??_C@_1BC@DNHGCMLG@?$AAa?$AAd?$AAv?$AAa?$AAp?$AAi?$AA3?$AA2?$AA?$AA@ 0000000180028348     libvcruntime:winapi_downlevel.obj
 0002:00005360       ??_C@_1DM@KHCHBNEB@?$AAa?$AAp?$AAi?$AA?9?$AAm?$AAs?$AA?9?$AAw?$AAi?$AAn?$AA?9?$AAc?$AAo?$AAr?$AAe?$AA?9?$AAf?$AAi?$AAb?$AAe?$AAr?$AAs?$AA?9?$AAl?$AA1?$AA?9?$AA1?$AA?9?$AA1?$AA?$AA@ 0000000180028360     libvcruntime:winapi_downlevel.obj
 0002:000053a0       ??_C@_1DK@LPPGFMPP@?$AAa?$AAp?$AAi?$AA?9?$AAm?$AAs?$AA?9?$AAw?$AAi?$AAn?$AA?9?$AAc?$AAo?$AAr?$AAe?$AA?9?$AAs?$AAy?$AAn?$AAc?$AAh?$AA?9?$AAl?$AA1?$AA?9?$AA2?$AA?9?$AA0?$AA?$AA@ 00000001800283a0     libvcruntime:winapi_downlevel.obj
 0002:000053e0       ??_C@_1BC@GDMECMAK@?$AAk?$AAe?$AAr?$AAn?$AAe?$AAl?$AA3?$AA2?$AA?$AA@ 00000001800283e0     libvcruntime:winapi_downlevel.obj
 0002:00005740       ??_C@_08EHJDFFNH@__based?$CI?$AA@ 0000000180028740     libvcruntime:undname.obj
 0002:00005750       ??_C@_07KOLFKCDI@__cdecl?$AA@ 0000000180028750     libvcruntime:undname.obj
 0002:00005758       ??_C@_08GHMPAG@__pascal?$AA@ 0000000180028758     libvcruntime:undname.obj
 0002:00005768       ??_C@_09IFJBGAPI@__stdcall?$AA@ 0000000180028768     libvcruntime:undname.obj
 0002:00005778       ??_C@_0L@NPHFGOKO@__thiscall?$AA@ 0000000180028778     libvcruntime:undname.obj
 0002:00005788       ??_C@_0L@JMKHOMEK@__fastcall?$AA@ 0000000180028788     libvcruntime:undname.obj
 0002:00005798       ??_C@_0N@BCKKPABJ@__vectorcall?$AA@ 0000000180028798     libvcruntime:undname.obj
 0002:000057a8       ??_C@_09HIJEGCPM@__clrcall?$AA@ 00000001800287a8     libvcruntime:undname.obj
 0002:000057b4       ??_C@_06GHPCKEAG@__eabi?$AA@ 00000001800287b4     libvcruntime:undname.obj
 0002:000057c0       ??_C@_07JOMMBBKO@__ptr64?$AA@ 00000001800287c0     libvcruntime:undname.obj
 0002:000057c8       ??_C@_0L@PILCLIHE@__restrict?$AA@ 00000001800287c8     libvcruntime:undname.obj
 0002:000057d8       ??_C@_0M@GFIIJFMG@__unaligned?$AA@ 00000001800287d8     libvcruntime:undname.obj
 0002:000057e8       ??_C@_09DHDLOLLB@restrict?$CI?$AA@ 00000001800287e8     libvcruntime:undname.obj
 0002:000057f4       ??_C@_04NIHEBCM@?5new?$AA@ 00000001800287f4     libvcruntime:undname.obj
 0002:00005800       ??_C@_07FPCDHGMM@?5delete?$AA@ 0000000180028800     libvcruntime:undname.obj
 0002:00005808       ??_C@_01NEMOKFLO@?$DN?$AA@ 0000000180028808     libvcruntime:undname.obj
 0002:0000580c       ??_C@_02GPIOPFAK@?$DO?$DO?$AA@ 000000018002880c     libvcruntime:undname.obj
 0002:00005810       ??_C@_02FODMEDOG@?$DM?$DM?$AA@ 0000000180028810     libvcruntime:undname.obj
 0002:00005814       ??_C@_01DCLJPIOD@?$CB?$AA@ 0000000180028814     libvcruntime:undname.obj
 0002:00005818       ??_C@_02EGOFBIJA@?$DN?$DN?$AA@ 0000000180028818     libvcruntime:undname.obj
 0002:0000581c       ??_C@_02FDNJECIE@?$CB?$DN?$AA@ 000000018002881c     libvcruntime:undname.obj
 0002:00005820       ??_C@_02GPECMEKF@?$FL?$FN?$AA@ 0000000180028820     libvcruntime:undname.obj
 0002:00005828       ??_C@_08LHJFAFGD@operator?$AA@ 0000000180028828     libvcruntime:undname.obj
 0002:00005834       ??_C@_02HBOOOICD@?9?$DO?$AA@ 0000000180028834     libvcruntime:undname.obj
 0002:00005838       ??_C@_02ECNGHCIF@?$CL?$CL?$AA@ 0000000180028838     libvcruntime:undname.obj
 0002:0000583c       ??_C@_02BAABKJLB@?9?9?$AA@ 000000018002883c     libvcruntime:undname.obj
 0002:00005840       ??_C@_01MIFGBAGJ@?$CL?$AA@ 0000000180028840     libvcruntime:undname.obj
 0002:00005844       ??_C@_01HNPIGOCE@?$CG?$AA@ 0000000180028844     libvcruntime:undname.obj
 0002:00005848       ??_C@_03MNHNFDLC@?9?$DO?$CK?$AA@ 0000000180028848     libvcruntime:undname.obj
 0002:0000584c       ??_C@_01KMDKNFGN@?1?$AA@   000000018002884c     libvcruntime:undname.obj
 0002:00005850       ??_C@_01FGNFDNOH@?$CF?$AA@ 0000000180028850     libvcruntime:undname.obj
 0002:00005854       ??_C@_01MNNFJEPP@?$DM?$AA@ 0000000180028854     libvcruntime:undname.obj
 0002:00005858       ??_C@_02EHCHHCKH@?$DM?$DN?$AA@ 0000000180028858     libvcruntime:undname.obj
 0002:0000585c       ??_C@_01PPODPGHN@?$DO?$AA@ 000000018002885c     libvcruntime:undname.obj
 0002:00005860       ??_C@_02EEKDKGMJ@?$DO?$DN?$AA@ 0000000180028860     libvcruntime:undname.obj
 0002:00005864       ??_C@_01IHBHIGKO@?0?$AA@   0000000180028864     libvcruntime:undname.obj
 0002:00005868       ??_C@_02HCKGKOFO@?$CI?$CJ?$AA@ 0000000180028868     libvcruntime:undname.obj
 0002:0000586c       ??_C@_01PJKLJHI@?$HO?$AA@  000000018002886c     libvcruntime:undname.obj
 0002:00005870       ??_C@_01JKBOJNNK@?$FO?$AA@ 0000000180028870     libvcruntime:undname.obj
 0002:00005874       ??_C@_01DNKMNLPK@?$HM?$AA@ 0000000180028874     libvcruntime:undname.obj
 0002:00005878       ??_C@_02PPKAJPJL@?$CG?$CG?$AA@ 0000000180028878     libvcruntime:undname.obj
 0002:0000587c       ??_C@_02NONPIBCD@?$HM?$HM?$AA@ 000000018002887c     libvcruntime:undname.obj
 0002:00005880       ??_C@_02FPIMKNGF@?$CK?$DN?$AA@ 0000000180028880     libvcruntime:undname.obj
 0002:00005884       ??_C@_02FOEOMHFC@?$CL?$DN?$AA@ 0000000180028884     libvcruntime:undname.obj
 0002:00005888       ??_C@_02FKMDLLOA@?9?$DN?$AA@ 0000000180028888     libvcruntime:undname.obj
 0002:0000588c       ??_C@_02FJEHGPIO@?1?$DN?$AA@ 000000018002888c     libvcruntime:undname.obj
 0002:00005890       ??_C@_02FENAOKFI@?$CF?$DN?$AA@ 0000000180028890     libvcruntime:undname.obj
 0002:00005894       ??_C@_03IKFCCPFF@?$DO?$DO?$DN?$AA@ 0000000180028894     libvcruntime:undname.obj
 0002:00005898       ??_C@_03CDNPDDLA@?$DM?$DM?$DN?$AA@ 0000000180028898     libvcruntime:undname.obj
 0002:0000589c       ??_C@_02FGJGFEAB@?$CG?$DN?$AA@ 000000018002889c     libvcruntime:undname.obj
 0002:000058a0       ??_C@_02DHLNPPGH@?$HM?$DN?$AA@ 00000001800288a0     libvcruntime:undname.obj
 0002:000058a4       ??_C@_02MHEGNOJ@?$FO?$DN?$AA@ 00000001800288a4     libvcruntime:undname.obj
 0002:000058a8       ??_C@_09IFPLHPGF@?$GAvftable?8?$AA@ 00000001800288a8     libvcruntime:undname.obj
 0002:000058b8       ??_C@_09BLBHBJP@?$GAvbtable?8?$AA@ 00000001800288b8     libvcruntime:undname.obj
 0002:000058c8       ??_C@_07FEEIOKP@?$GAvcall?8?$AA@ 00000001800288c8     libvcruntime:undname.obj
 0002:000058d0       ??_C@_08LLFFHHDJ@?$GAtypeof?8?$AA@ 00000001800288d0     libvcruntime:undname.obj
 0002:000058e0       ??_C@_0BF@KDPPACIK@?$GAlocal?5static?5guard?8?$AA@ 00000001800288e0     libvcruntime:undname.obj
 0002:000058f8       ??_C@_08OBABFOLI@?$GAstring?8?$AA@ 00000001800288f8     libvcruntime:undname.obj
 0002:00005908       ??_C@_0BD@JDLKDPAB@?$GAvbase?5destructor?8?$AA@ 0000000180028908     libvcruntime:undname.obj
 0002:00005920       ??_C@_0BN@DEGPLNFK@?$GAvector?5deleting?5destructor?8?$AA@ 0000000180028920     libvcruntime:undname.obj
 0002:00005940       ??_C@_0BO@OBMKPJIG@?$GAdefault?5constructor?5closure?8?$AA@ 0000000180028940     libvcruntime:undname.obj
 0002:00005960       ??_C@_0BN@IMDCHIKM@?$GAscalar?5deleting?5destructor?8?$AA@ 0000000180028960     libvcruntime:undname.obj
 0002:00005980       ??_C@_0BO@PFGOCPJJ@?$GAvector?5constructor?5iterator?8?$AA@ 0000000180028980     libvcruntime:undname.obj
 0002:000059a0       ??_C@_0BN@LFPFMEDL@?$GAvector?5destructor?5iterator?8?$AA@ 00000001800289a0     libvcruntime:undname.obj
 0002:000059c0       ??_C@_0CE@IKBNEHA@?$GAvector?5vbase?5constructor?5iterat@ 00000001800289c0     libvcruntime:undname.obj
 0002:000059e8       ??_C@_0BL@NILFHHPC@?$GAvirtual?5displacement?5map?8?$AA@ 00000001800289e8     libvcruntime:undname.obj
 0002:00005a08       ??_C@_0CB@JONCMFFK@?$GAeh?5vector?5constructor?5iterator?8@ 0000000180028a08     libvcruntime:undname.obj
 0002:00005a30       ??_C@_0CA@GCEOPDGL@?$GAeh?5vector?5destructor?5iterator?8?$AA@ 0000000180028a30     libvcruntime:undname.obj
 0002:00005a50       ??_C@_0CH@OOJPLCPH@?$GAeh?5vector?5vbase?5constructor?5ite@ 0000000180028a50     libvcruntime:undname.obj
 0002:00005a78       ??_C@_0BL@LLKPOHJI@?$GAcopy?5constructor?5closure?8?$AA@ 0000000180028a78     libvcruntime:undname.obj
 0002:00005a98       ??_C@_0BA@KBCDOMBN@?$GAudt?5returning?8?$AA@ 0000000180028a98     libvcruntime:undname.obj
 0002:00005aa8       ??_C@_03KLGMFNMG@?$GAEH?$AA@ 0000000180028aa8     libvcruntime:undname.obj
 0002:00005aac       ??_C@_05KHLCHHI@?$GARTTI?$AA@ 0000000180028aac     libvcruntime:undname.obj
 0002:00005ab8       ??_C@_0BA@KKLDJDLB@?$GAlocal?5vftable?8?$AA@ 0000000180028ab8     libvcruntime:undname.obj
 0002:00005ac8       ??_C@_0CE@IIHCMGGL@?$GAlocal?5vftable?5constructor?5closu@ 0000000180028ac8     libvcruntime:undname.obj
 0002:00005aec       ??_C@_06FHBGPFGH@?5new?$FL?$FN?$AA@ 0000000180028aec     libvcruntime:undname.obj
 0002:00005af8       ??_C@_09LBNFPBCA@?5delete?$FL?$FN?$AA@ 0000000180028af8     libvcruntime:undname.obj
 0002:00005b08       ??_C@_0P@HJKNJFNN@?$GAomni?5callsig?8?$AA@ 0000000180028b08     libvcruntime:undname.obj
 0002:00005b18       ??_C@_0BL@CNOONJFP@?$GAplacement?5delete?5closure?8?$AA@ 0000000180028b18     libvcruntime:undname.obj
 0002:00005b38       ??_C@_0BN@CKNJLHMB@?$GAplacement?5delete?$FL?$FN?5closure?8?$AA@ 0000000180028b38     libvcruntime:undname.obj
 0002:00005b58       ??_C@_0CG@CFDHKGGD@?$GAmanaged?5vector?5constructor?5iter@ 0000000180028b58     libvcruntime:undname.obj
 0002:00005b80       ??_C@_0CF@IMGKMJNO@?$GAmanaged?5vector?5destructor?5itera@ 0000000180028b80     libvcruntime:undname.obj
 0002:00005ba8       ??_C@_0CG@HLDDJMAG@?$GAeh?5vector?5copy?5constructor?5iter@ 0000000180028ba8     libvcruntime:undname.obj
 0002:00005bd0       ??_C@_0CM@FCBBDIGB@?$GAeh?5vector?5vbase?5copy?5constructo@ 0000000180028bd0     libvcruntime:undname.obj
 0002:00005c00       ??_C@_0BL@CLIPGLGB@?$GAdynamic?5initializer?5for?5?8?$AA@ 0000000180028c00     libvcruntime:undname.obj
 0002:00005c20       ??_C@_0CB@PDBIFEP@?$GAdynamic?5atexit?5destructor?5for?5?8@ 0000000180028c20     libvcruntime:undname.obj
 0002:00005c48       ??_C@_0CD@CGAJBKEJ@?$GAvector?5copy?5constructor?5iterato@ 0000000180028c48     libvcruntime:undname.obj
 0002:00005c70       ??_C@_0CJ@GJELGAMM@?$GAvector?5vbase?5copy?5constructor?5i@ 0000000180028c70     libvcruntime:undname.obj
 0002:00005ca0       ??_C@_0CL@FGIJHLCE@?$GAmanaged?5vector?5copy?5constructor@ 0000000180028ca0     libvcruntime:undname.obj
 0002:00005cd0       ??_C@_0BM@PMGGMLDN@?$GAlocal?5static?5thread?5guard?8?$AA@ 0000000180028cd0     libvcruntime:undname.obj
 0002:00005cf0       ??_C@_0N@BDNMDMOL@operator?5?$CC?$CC?5?$AA@ 0000000180028cf0     libvcruntime:undname.obj
 0002:00005d00       ??_C@_0BC@DAFEJGAK@?5Type?5Descriptor?8?$AA@ 0000000180028d00     libvcruntime:undname.obj
 0002:00005d18       ??_C@_0BM@LDKODKLH@?5Base?5Class?5Descriptor?5at?5?$CI?$AA@ 0000000180028d18     libvcruntime:undname.obj
 0002:00005d38       ??_C@_0BD@LGICGFMM@?5Base?5Class?5Array?8?$AA@ 0000000180028d38     libvcruntime:undname.obj
 0002:00005d50       ??_C@_0BN@MECKDCOJ@?5Class?5Hierarchy?5Descriptor?8?$AA@ 0000000180028d50     libvcruntime:undname.obj
 0002:00005d70       ??_C@_0BK@CFCOFLF@?5Complete?5Object?5Locator?8?$AA@ 0000000180028d70     libvcruntime:undname.obj
 0002:00005f00       __newctype                 0000000180028f00     libucrt:ctype.obj
 0002:00006200       __newclmap                 0000000180029200     libucrt:ctype.obj
 0002:00006380       __newcumap                 0000000180029380     libucrt:ctype.obj
 0002:00006500       _wctype                    0000000180029500     libucrt:ctype.obj
 0002:000083c0       __acrt_exception_action_table 000000018002b3c0     libucrt:exception_filter.obj
 0002:00008480       __acrt_signal_action_table_count 000000018002b480     libucrt:exception_filter.obj
 0002:00008488       __acrt_signal_action_first_fpe_index 000000018002b488     libucrt:exception_filter.obj
 0002:00008490       __acrt_signal_action_fpe_count 000000018002b490     libucrt:exception_filter.obj
 0002:00008498       ??_C@_1BI@BGOHAHKC@?$AAm?$AAs?$AAc?$AAo?$AAr?$AAe?$AAe?$AA?4?$AAd?$AAl?$AAl?$AA?$AA@ 000000018002b498     libucrt:exit.obj
 0002:000084b0       ??_C@_0P@MIGLKIOC@CorExitProcess?$AA@ 000000018002b4b0     libucrt:exit.obj
 0002:000085b0       __lc_category              000000018002b5b0     libucrt:wsetlocale.obj
 0002:00008640       ??_C@_1O@GIFLHMA@?$AAL?$AAC?$AA_?$AAA?$AAL?$AAL?$AA?$AA@ 000000018002b640     libucrt:wsetlocale.obj
 0002:00008650       ??_C@_1BG@PPOMIBNJ@?$AAL?$AAC?$AA_?$AAC?$AAO?$AAL?$AAL?$AAA?$AAT?$AAE?$AA?$AA@ 000000018002b650     libucrt:wsetlocale.obj
 0002:00008668       ??_C@_1BC@FFJGAPJM@?$AAL?$AAC?$AA_?$AAC?$AAT?$AAY?$AAP?$AAE?$AA?$AA@ 000000018002b668     libucrt:wsetlocale.obj
 0002:00008680       ??_C@_1BI@PCKFNJFB@?$AAL?$AAC?$AA_?$AAM?$AAO?$AAN?$AAE?$AAT?$AAA?$AAR?$AAY?$AA?$AA@ 000000018002b680     libucrt:wsetlocale.obj
 0002:00008698       ??_C@_1BG@ENIEDKID@?$AAL?$AAC?$AA_?$AAN?$AAU?$AAM?$AAE?$AAR?$AAI?$AAC?$AA?$AA@ 000000018002b698     libucrt:wsetlocale.obj
 0002:000086b0       ??_C@_1BA@HAAOMIIG@?$AAL?$AAC?$AA_?$AAT?$AAI?$AAM?$AAE?$AA?$AA@ 000000018002b6b0     libucrt:wsetlocale.obj
 0002:00008740       ??_C@_15NBPDDFIP@?$AA?$DN?$AA?$DL?$AA?$AA@ 000000018002b740     libucrt:wsetlocale.obj
 0002:00008748       ??_C@_13PJJBFPED@?$AA?$DL?$AA?$AA@ 000000018002b748     libucrt:wsetlocale.obj
 0002:0000874c       ??_C@_13NMPKAAJP@?$AA?$DN?$AA?$AA@ 000000018002b74c     libucrt:wsetlocale.obj
 0002:00008750       ??_C@_13FHBKNHDA@?$AAC?$AA?$AA@ 000000018002b750     libucrt:wsetlocale.obj
 0002:00008758       ??_C@_17MBJJLFDM@?$AA_?$AA?4?$AA?0?$AA?$AA@ 000000018002b758     libucrt:wsetlocale.obj
 0002:00008760       ??_C@_13ENNFDPBH@?$AA_?$AA?$AA@ 000000018002b760     libucrt:wsetlocale.obj
 0002:00008764       ??_C@_13JOFGPIOO@?$AA?4?$AA?$AA@ 000000018002b764     libucrt:wsetlocale.obj
 0002:00008770       __lc_time_c                000000018002b770     libucrt:nlsdata.obj
 0002:00008a30       ??_C@_03KOEHGMDN@Sun?$AA@  000000018002ba30     libucrt:nlsdata.obj
 0002:00008a34       ??_C@_03PDAGKDH@Mon?$AA@   000000018002ba34     libucrt:nlsdata.obj
 0002:00008a38       ??_C@_03NAGEINEP@Tue?$AA@  000000018002ba38     libucrt:nlsdata.obj
 0002:00008a3c       ??_C@_03MHOMLAJA@Wed?$AA@  000000018002ba3c     libucrt:nlsdata.obj
 0002:00008a40       ??_C@_03IOFIKPDN@Thu?$AA@  000000018002ba40     libucrt:nlsdata.obj
 0002:00008a44       ??_C@_03IDIOELNC@Fri?$AA@  000000018002ba44     libucrt:nlsdata.obj
 0002:00008a48       ??_C@_03FEFJNEK@Sat?$AA@   000000018002ba48     libucrt:nlsdata.obj
 0002:00008a4c       ??_C@_06OOPIFAJ@Sunday?$AA@ 000000018002ba4c     libucrt:nlsdata.obj
 0002:00008a54       ??_C@_06JLEDEDGH@Monday?$AA@ 000000018002ba54     libucrt:nlsdata.obj
 0002:00008a60       ??_C@_07BAAGCFCM@Tuesday?$AA@ 000000018002ba60     libucrt:nlsdata.obj
 0002:00008a68       ??_C@_09DLIGFAKA@Wednesday?$AA@ 000000018002ba68     libucrt:nlsdata.obj
 0002:00008a78       ??_C@_08HACCIKIA@Thursday?$AA@ 000000018002ba78     libucrt:nlsdata.obj
 0002:00008a84       ??_C@_06JECMNKMI@Friday?$AA@ 000000018002ba84     libucrt:nlsdata.obj
 0002:00008a90       ??_C@_08INBOOONO@Saturday?$AA@ 000000018002ba90     libucrt:nlsdata.obj
 0002:00008a9c       ??_C@_03JIHJHPIE@Jan?$AA@  000000018002ba9c     libucrt:nlsdata.obj
 0002:00008aa0       ??_C@_03HJBDCHOM@Feb?$AA@  000000018002baa0     libucrt:nlsdata.obj
 0002:00008aa4       ??_C@_03ODNJBKGA@Mar?$AA@  000000018002baa4     libucrt:nlsdata.obj
 0002:00008aa8       ??_C@_03LEOLGMJP@Apr?$AA@  000000018002baa8     libucrt:nlsdata.obj
 0002:00008aac       ??_C@_03CNMDKL@May?$AA@    000000018002baac     libucrt:nlsdata.obj
 0002:00008ab0       ??_C@_03IDFGHECI@Jun?$AA@  000000018002bab0     libucrt:nlsdata.obj
 0002:00008ab4       ??_C@_03LBGABGKK@Jul?$AA@  000000018002bab4     libucrt:nlsdata.obj
 0002:00008ab8       ??_C@_03IFJFEIGA@Aug?$AA@  000000018002bab8     libucrt:nlsdata.obj
 0002:00008abc       ??_C@_03GGCAPAJC@Sep?$AA@  000000018002babc     libucrt:nlsdata.obj
 0002:00008ac0       ??_C@_03BMAOKBAD@Oct?$AA@  000000018002bac0     libucrt:nlsdata.obj
 0002:00008ac4       ??_C@_03JPJOFNIA@Nov?$AA@  000000018002bac4     libucrt:nlsdata.obj
 0002:00008ac8       ??_C@_03MKABNOCG@Dec?$AA@  000000018002bac8     libucrt:nlsdata.obj
 0002:00008ad0       ??_C@_07CGJPFGJA@January?$AA@ 000000018002bad0     libucrt:nlsdata.obj
 0002:00008ad8       ??_C@_08GNJGEPFN@February?$AA@ 000000018002bad8     libucrt:nlsdata.obj
 0002:00008ae4       ??_C@_05HPCKOFNC@March?$AA@ 000000018002bae4     libucrt:nlsdata.obj
 0002:00008aec       ??_C@_05DMJDNLEJ@April?$AA@ 000000018002baec     libucrt:nlsdata.obj
 0002:00008af4       ??_C@_04CNLMGBGM@June?$AA@ 000000018002baf4     libucrt:nlsdata.obj
 0002:00008afc       ??_C@_04MIEPOIFP@July?$AA@ 000000018002bafc     libucrt:nlsdata.obj
 0002:00008b04       ??_C@_06LBBHFDDG@August?$AA@ 000000018002bb04     libucrt:nlsdata.obj
 0002:00008b10       ??_C@_09BHHEALKD@September?$AA@ 000000018002bb10     libucrt:nlsdata.obj
 0002:00008b20       ??_C@_07JJNFCEND@October?$AA@ 000000018002bb20     libucrt:nlsdata.obj
 0002:00008b28       ??_C@_08HCHEGEOA@November?$AA@ 000000018002bb28     libucrt:nlsdata.obj
 0002:00008b38       ??_C@_08EDHMEBNP@December?$AA@ 000000018002bb38     libucrt:nlsdata.obj
 0002:00008b44       ??_C@_02DEDBPAFC@AM?$AA@   000000018002bb44     libucrt:nlsdata.obj
 0002:00008b48       ??_C@_02CJNFDJBF@PM?$AA@   000000018002bb48     libucrt:nlsdata.obj
 0002:00008b50       ??_C@_08BPBNCDIB@MM?1dd?1yy?$AA@ 000000018002bb50     libucrt:nlsdata.obj
 0002:00008b60       ??_C@_0BE@CKGJFCPC@dddd?0?5MMMM?5dd?0?5yyyy?$AA@ 000000018002bb60     libucrt:nlsdata.obj
 0002:00008b78       ??_C@_08JCCMCCIL@HH?3mm?3ss?$AA@ 000000018002bb78     libucrt:nlsdata.obj
 0002:00008b88       ??_C@_17MBGCMIPB@?$AAS?$AAu?$AAn?$AA?$AA@ 000000018002bb88     libucrt:nlsdata.obj
 0002:00008b90       ??_C@_17KBOMKBF@?$AAM?$AAo?$AAn?$AA?$AA@ 000000018002bb90     libucrt:nlsdata.obj
 0002:00008b98       ??_C@_17BMKGEGOJ@?$AAT?$AAu?$AAe?$AA?$AA@ 000000018002bb98     libucrt:nlsdata.obj
 0002:00008ba0       ??_C@_17CJEDCEPE@?$AAW?$AAe?$AAd?$AA?$AA@ 000000018002bba0     libucrt:nlsdata.obj
 0002:00008ba8       ??_C@_17PDPHAADD@?$AAT?$AAh?$AAu?$AA?$AA@ 000000018002bba8     libucrt:nlsdata.obj
 0002:00008bb0       ??_C@_17HFOLPPLP@?$AAF?$AAr?$AAi?$AA?$AA@ 000000018002bbb0     libucrt:nlsdata.obj
 0002:00008bb8       ??_C@_17GGIBDPIH@?$AAS?$AAa?$AAt?$AA?$AA@ 000000018002bbb8     libucrt:nlsdata.obj
 0002:00008bc0       ??_C@_1O@IHNHDHPB@?$AAS?$AAu?$AAn?$AAd?$AAa?$AAy?$AA?$AA@ 000000018002bbc0     libucrt:nlsdata.obj
 0002:00008bd0       ??_C@_1O@MMNBFLIA@?$AAM?$AAo?$AAn?$AAd?$AAa?$AAy?$AA?$AA@ 000000018002bbd0     libucrt:nlsdata.obj
 0002:00008be0       ??_C@_1BA@ENFBFFEK@?$AAT?$AAu?$AAe?$AAs?$AAd?$AAa?$AAy?$AA?$AA@ 000000018002bbe0     libucrt:nlsdata.obj
 0002:00008bf0       ??_C@_1BE@EBOGMDOH@?$AAW?$AAe?$AAd?$AAn?$AAe?$AAs?$AAd?$AAa?$AAy?$AA?$AA@ 000000018002bbf0     libucrt:nlsdata.obj
 0002:00008c08       ??_C@_1BC@HHMNLIHE@?$AAT?$AAh?$AAu?$AAr?$AAs?$AAd?$AAa?$AAy?$AA?$AA@ 000000018002bc08     libucrt:nlsdata.obj
 0002:00008c20       ??_C@_1O@PDICJHAG@?$AAF?$AAr?$AAi?$AAd?$AAa?$AAy?$AA?$AA@ 000000018002bc20     libucrt:nlsdata.obj
 0002:00008c30       ??_C@_1BC@ENMNNPAJ@?$AAS?$AAa?$AAt?$AAu?$AAr?$AAd?$AAa?$AAy?$AA?$AA@ 000000018002bc30     libucrt:nlsdata.obj
 0002:00008c48       ??_C@_17DKNBKCHM@?$AAJ?$AAa?$AAn?$AA?$AA@ 000000018002bc48     libucrt:nlsdata.obj
 0002:00008c50       ??_C@_17LMDJEKJN@?$AAF?$AAe?$AAb?$AA?$AA@ 000000018002bc50     libucrt:nlsdata.obj
 0002:00008c58       ??_C@_17CKNLEDEC@?$AAM?$AAa?$AAr?$AA?$AA@ 000000018002bc58     libucrt:nlsdata.obj
 0002:00008c60       ??_C@_17LFPOIHDD@?$AAA?$AAp?$AAr?$AA?$AA@ 000000018002bc60     libucrt:nlsdata.obj
 0002:00008c68       ??_C@_17PNNKMEED@?$AAM?$AAa?$AAy?$AA?$AA@ 000000018002bc68     libucrt:nlsdata.obj
 0002:00008c70       ??_C@_17KCJGOCPB@?$AAJ?$AAu?$AAn?$AA?$AA@ 000000018002bc70     libucrt:nlsdata.obj
 0002:00008c78       ??_C@_17IJPCKHK@?$AAJ?$AAu?$AAl?$AA?$AA@ 000000018002bc78     libucrt:nlsdata.obj
 0002:00008c80       ??_C@_17ICPELBCN@?$AAA?$AAu?$AAg?$AA?$AA@ 000000018002bc80     libucrt:nlsdata.obj
 0002:00008c88       ??_C@_17HCHCOKMG@?$AAS?$AAe?$AAp?$AA?$AA@ 000000018002bc88     libucrt:nlsdata.obj
 0002:00008c90       ??_C@_17FNLKOI@?$AAO?$AAc?$AAt?$AA?$AA@ 000000018002bc90     libucrt:nlsdata.obj
 0002:00008c98       ??_C@_17BBDMLCIG@?$AAN?$AAo?$AAv?$AA?$AA@ 000000018002bc98     libucrt:nlsdata.obj
 0002:00008ca0       ??_C@_17EGKACKIF@?$AAD?$AAe?$AAc?$AA?$AA@ 000000018002bca0     libucrt:nlsdata.obj
 0002:00008ca8       ??_C@_1BA@EFMEIEBA@?$AAJ?$AAa?$AAn?$AAu?$AAa?$AAr?$AAy?$AA?$AA@ 000000018002bca8     libucrt:nlsdata.obj
 0002:00008cb8       ??_C@_1BC@JGDDFFAM@?$AAF?$AAe?$AAb?$AAr?$AAu?$AAa?$AAr?$AAy?$AA?$AA@ 000000018002bcb8     libucrt:nlsdata.obj
 0002:00008cd0       ??_C@_1M@IKEENEDF@?$AAM?$AAa?$AAr?$AAc?$AAh?$AA?$AA@ 000000018002bcd0     libucrt:nlsdata.obj
 0002:00008ce0       ??_C@_1M@GJNLMHFD@?$AAA?$AAp?$AAr?$AAi?$AAl?$AA?$AA@ 000000018002bce0     libucrt:nlsdata.obj
 0002:00008cf0       ??_C@_19EPFLPGAP@?$AAJ?$AAu?$AAn?$AAe?$AA?$AA@ 000000018002bcf0     libucrt:nlsdata.obj
 0002:00008d00       ??_C@_19BIFMLPCD@?$AAJ?$AAu?$AAl?$AAy?$AA?$AA@ 000000018002bd00     libucrt:nlsdata.obj
 0002:00008d10       ??_C@_1O@PAHLKOAC@?$AAA?$AAu?$AAg?$AAu?$AAs?$AAt?$AA?$AA@ 000000018002bd10     libucrt:nlsdata.obj
 0002:00008d20       ??_C@_1BE@DKAAMBJL@?$AAS?$AAe?$AAp?$AAt?$AAe?$AAm?$AAb?$AAe?$AAr?$AA?$AA@ 000000018002bd20     libucrt:nlsdata.obj
 0002:00008d38       ??_C@_1BA@EPANDLNG@?$AAO?$AAc?$AAt?$AAo?$AAb?$AAe?$AAr?$AA?$AA@ 000000018002bd38     libucrt:nlsdata.obj
 0002:00008d48       ??_C@_1BC@BGLIFPF@?$AAN?$AAo?$AAv?$AAe?$AAm?$AAb?$AAe?$AAr?$AA?$AA@ 000000018002bd48     libucrt:nlsdata.obj
 0002:00008d60       ??_C@_1BC@FEMKIFH@?$AAD?$AAe?$AAc?$AAe?$AAm?$AAb?$AAe?$AAr?$AA?$AA@ 000000018002bd60     libucrt:nlsdata.obj
 0002:00008d74       ??_C@_15ODEHAHHF@?$AAA?$AAM?$AA?$AA@ 000000018002bd74     libucrt:nlsdata.obj
 0002:00008d7c       ??_C@_15CLMNNGEL@?$AAP?$AAM?$AA?$AA@ 000000018002bd7c     libucrt:nlsdata.obj
 0002:00008d88       ??_C@_1BC@IEBCMHCM@?$AAM?$AAM?$AA?1?$AAd?$AAd?$AA?1?$AAy?$AAy?$AA?$AA@ 000000018002bd88     libucrt:nlsdata.obj
 0002:00008da0       ??_C@_1CI@KNAKOEBC@?$AAd?$AAd?$AAd?$AAd?$AA?0?$AA?5?$AAM?$AAM?$AAM?$AAM?$AA?5?$AAd?$AAd?$AA?0?$AA?5?$AAy?$AAy?$AAy?$AAy?$AA?$AA@ 000000018002bda0     libucrt:nlsdata.obj
 0002:00008dc8       ??_C@_1BC@GDGBMEMK@?$AAH?$AAH?$AA?3?$AAm?$AAm?$AA?3?$AAs?$AAs?$AA?$AA@ 000000018002bdc8     libucrt:nlsdata.obj
 0002:00008e80       ??_C@_1EG@CNNIPFIM@?$AAa?$AAp?$AAi?$AA?9?$AAm?$AAs?$AA?9?$AAw?$AAi?$AAn?$AA?9?$AAa?$AAp?$AAp?$AAm?$AAo?$AAd?$AAe?$AAl?$AA?9?$AAr?$AAu?$AAn?$AAt?$AAi?$AAm?$AAe?$AA?9?$AAl?$AA1?$AA?9?$AA1@ 000000018002be80     libucrt:winapi_thunks.obj
 0002:00008ed0       ??_C@_1EA@JGEFHKEI@?$AAa?$AAp?$AAi?$AA?9?$AAm?$AAs?$AA?9?$AAw?$AAi?$AAn?$AA?9?$AAc?$AAo?$AAr?$AAe?$AA?9?$AAd?$AAa?$AAt?$AAe?$AAt?$AAi?$AAm?$AAe?$AA?9?$AAl?$AA1?$AA?9?$AA1?$AA?9?$AA1?$AA?$AA@ 000000018002bed0     libucrt:winapi_thunks.obj
 0002:00008f10       ??_C@_1DI@GCIAAENM@?$AAa?$AAp?$AAi?$AA?9?$AAm?$AAs?$AA?9?$AAw?$AAi?$AAn?$AA?9?$AAc?$AAo?$AAr?$AAe?$AA?9?$AAf?$AAi?$AAl?$AAe?$AA?9?$AAl?$AA2?$AA?9?$AA1?$AA?9?$AA1?$AA?$AA@ 000000018002bf10     libucrt:winapi_thunks.obj
 0002:00008f50       ??_C@_1EI@MPIAOHOC@?$AAa?$AAp?$AAi?$AA?9?$AAm?$AAs?$AA?9?$AAw?$AAi?$AAn?$AA?9?$AAc?$AAo?$AAr?$AAe?$AA?9?$AAl?$AAo?$AAc?$AAa?$AAl?$AAi?$AAz?$AAa?$AAt?$AAi?$AAo?$AAn?$AA?9?$AAl?$AA1?$AA?9@ 000000018002bf50     libucrt:winapi_thunks.obj
 0002:00008fa0       ??_C@_1FK@FPHCKFIE@?$AAa?$AAp?$AAi?$AA?9?$AAm?$AAs?$AA?9?$AAw?$AAi?$AAn?$AA?9?$AAc?$AAo?$AAr?$AAe?$AA?9?$AAl?$AAo?$AAc?$AAa?$AAl?$AAi?$AAz?$AAa?$AAt?$AAi?$AAo?$AAn?$AA?9?$AAo?$AAb?$AAs@ 000000018002bfa0     libucrt:winapi_thunks.obj
 0002:00009000       ??_C@_1EM@DILCGIIO@?$AAa?$AAp?$AAi?$AA?9?$AAm?$AAs?$AA?9?$AAw?$AAi?$AAn?$AA?9?$AAc?$AAo?$AAr?$AAe?$AA?9?$AAp?$AAr?$AAo?$AAc?$AAe?$AAs?$AAs?$AAt?$AAh?$AAr?$AAe?$AAa?$AAd?$AAs?$AA?9?$AAl@ 000000018002c000     libucrt:winapi_thunks.obj
 0002:00009050       ??_C@_1DM@LNCGDDPN@?$AAa?$AAp?$AAi?$AA?9?$AAm?$AAs?$AA?9?$AAw?$AAi?$AAn?$AA?9?$AAc?$AAo?$AAr?$AAe?$AA?9?$AAs?$AAt?$AAr?$AAi?$AAn?$AAg?$AA?9?$AAl?$AA1?$AA?9?$AA1?$AA?9?$AA0?$AA?$AA@ 000000018002c050     libucrt:winapi_thunks.obj
 0002:00009090       ??_C@_1DO@FPAPJEMD@?$AAa?$AAp?$AAi?$AA?9?$AAm?$AAs?$AA?9?$AAw?$AAi?$AAn?$AA?9?$AAc?$AAo?$AAr?$AAe?$AA?9?$AAs?$AAy?$AAs?$AAi?$AAn?$AAf?$AAo?$AA?9?$AAl?$AA1?$AA?9?$AA2?$AA?9?$AA1?$AA?$AA@ 000000018002c090     libucrt:winapi_thunks.obj
 0002:000090d0       ??_C@_1DK@NDHNAHIO@?$AAa?$AAp?$AAi?$AA?9?$AAm?$AAs?$AA?9?$AAw?$AAi?$AAn?$AA?9?$AAc?$AAo?$AAr?$AAe?$AA?9?$AAw?$AAi?$AAn?$AAr?$AAt?$AA?9?$AAl?$AA1?$AA?9?$AA1?$AA?9?$AA0?$AA?$AA@ 000000018002c0d0     libucrt:winapi_thunks.obj
 0002:00009110       ??_C@_1DM@KGHDGBCM@?$AAa?$AAp?$AAi?$AA?9?$AAm?$AAs?$AA?9?$AAw?$AAi?$AAn?$AA?9?$AAc?$AAo?$AAr?$AAe?$AA?9?$AAx?$AAs?$AAt?$AAa?$AAt?$AAe?$AA?9?$AAl?$AA2?$AA?9?$AA1?$AA?9?$AA0?$AA?$AA@ 000000018002c110     libucrt:winapi_thunks.obj
 0002:00009150       ??_C@_1EO@IJIOEFOH@?$AAa?$AAp?$AAi?$AA?9?$AAm?$AAs?$AA?9?$AAw?$AAi?$AAn?$AA?9?$AAr?$AAt?$AAc?$AAo?$AAr?$AAe?$AA?9?$AAn?$AAt?$AAu?$AAs?$AAe?$AAr?$AA?9?$AAw?$AAi?$AAn?$AAd?$AAo?$AAw?$AA?9@ 000000018002c150     libucrt:winapi_thunks.obj
 0002:000091a0       ??_C@_1FG@HHGEKANL@?$AAa?$AAp?$AAi?$AA?9?$AAm?$AAs?$AA?9?$AAw?$AAi?$AAn?$AA?9?$AAs?$AAe?$AAc?$AAu?$AAr?$AAi?$AAt?$AAy?$AA?9?$AAs?$AAy?$AAs?$AAt?$AAe?$AAm?$AAf?$AAu?$AAn?$AAc?$AAt?$AAi@ 000000018002c1a0     libucrt:winapi_thunks.obj
 0002:00009200       ??_C@_1FG@NCKKOLKO@?$AAe?$AAx?$AAt?$AA?9?$AAm?$AAs?$AA?9?$AAw?$AAi?$AAn?$AA?9?$AAk?$AAe?$AAr?$AAn?$AAe?$AAl?$AA3?$AA2?$AA?9?$AAp?$AAa?$AAc?$AAk?$AAa?$AAg?$AAe?$AA?9?$AAc?$AAu?$AAr?$AAr@ 000000018002c200     libucrt:winapi_thunks.obj
 0002:00009260       ??_C@_1EG@DBIOJECG@?$AAe?$AAx?$AAt?$AA?9?$AAm?$AAs?$AA?9?$AAw?$AAi?$AAn?$AA?9?$AAn?$AAt?$AAu?$AAs?$AAe?$AAr?$AA?9?$AAd?$AAi?$AAa?$AAl?$AAo?$AAg?$AAb?$AAo?$AAx?$AA?9?$AAl?$AA1?$AA?9?$AA1@ 000000018002c260     libucrt:winapi_thunks.obj
 0002:000092b0       ??_C@_1EO@FIHMJCLF@?$AAe?$AAx?$AAt?$AA?9?$AAm?$AAs?$AA?9?$AAw?$AAi?$AAn?$AA?9?$AAn?$AAt?$AAu?$AAs?$AAe?$AAr?$AA?9?$AAw?$AAi?$AAn?$AAd?$AAo?$AAw?$AAs?$AAt?$AAa?$AAt?$AAi?$AAo?$AAn?$AA?9@ 000000018002c2b0     libucrt:winapi_thunks.obj
 0002:00009300       ??_C@_1O@BCCLBEOE@?$AAu?$AAs?$AAe?$AAr?$AA3?$AA2?$AA?$AA@ 000000018002c300     libucrt:winapi_thunks.obj
 0002:00009320       ??_C@_0BE@LJANKFHF@EnumSystemLocalesEx?$AA@ 000000018002c320     libucrt:winapi_thunks.obj
 0002:00009370       ??_C@_0BJ@PBCCBIPI@GetUserDefaultLocaleName?$AA@ 000000018002c370     libucrt:winapi_thunks.obj
 0002:000093a0       ??_C@_0BC@CELBKLLA@IsValidLocaleName?$AA@ 000000018002c3a0     libucrt:winapi_thunks.obj
 0002:000093c8       ??_C@_0BB@CDHDDLLP@LCIDToLocaleName?$AA@ 000000018002c3c8     libucrt:winapi_thunks.obj
 0002:000093e8       ??_C@_0BB@HBDEELFH@LocaleNameToLCID?$AA@ 000000018002c3e8     libucrt:winapi_thunks.obj
 0002:000093fc       ??_C@_03JGHBODFD@pow?$AA@  000000018002c3fc     libucrt:fpexcept.obj
 0002:00009400       ??_C@_05HGHHAHAP@log10?$AA@ 000000018002c400     libucrt:fpexcept.obj
 0002:00009410       __log_256_lead             000000018002c410     libucrt:log_256_lead_tail_table.obj
 0002:00009c20       __log_256_tail             000000018002cc20     libucrt:log_256_lead_tail_table.obj
 0002:0000a430       __two_to_jby64_head_table  000000018002d430     libucrt:two_to_jby64_head_tail_table.obj
 0002:0000a630       __two_to_jby64_tail_table  000000018002d630     libucrt:two_to_jby64_head_tail_table.obj
 0002:0000a830       ??_C@_04MBFDLNIM@powf?$AA@ 000000018002d830     libucrt:pow_special.obj
 0002:0000a840       __two_to_jby64_table       000000018002d840     libucrt:two_to_jby64_table.obj
 0002:0000aa40       __log_F_inv_qword          000000018002da40     libucrt:log_f_inv_qword_table.obj
 0002:0000b270       __acrt_rg_language         000000018002e270     libucrt:get_qualified_locale.obj
 0002:0000b680       __acrt_rg_language_count   000000018002e680     libucrt:get_qualified_locale.obj
 0002:0000b690       __acrt_rg_country          000000018002e690     libucrt:get_qualified_locale.obj
 0002:0000b800       __acrt_rg_country_count    000000018002e800     libucrt:get_qualified_locale.obj
 0002:0000b808       ??_C@_1BC@LLOKLNP@?$AAa?$AAm?$AAe?$AAr?$AAi?$AAc?$AAa?$AAn?$AA?$AA@ 000000018002e808     libucrt:get_qualified_locale.obj
 0002:0000b820       ??_C@_1CC@HEIGCDGG@?$AAa?$AAm?$AAe?$AAr?$AAi?$AAc?$AAa?$AAn?$AA?5?$AAe?$AAn?$AAg?$AAl?$AAi?$AAs?$AAh?$AA?$AA@ 000000018002e820     libucrt:get_qualified_locale.obj
 0002:0000b848       ??_C@_1CC@IHCNOMIN@?$AAa?$AAm?$AAe?$AAr?$AAi?$AAc?$AAa?$AAn?$AA?9?$AAe?$AAn?$AAg?$AAl?$AAi?$AAs?$AAh?$AA?$AA@ 000000018002e848     libucrt:get_qualified_locale.obj
 0002:0000b870       ??_C@_1BG@GKAGPCGG@?$AAa?$AAu?$AAs?$AAt?$AAr?$AAa?$AAl?$AAi?$AAa?$AAn?$AA?$AA@ 000000018002e870     libucrt:get_qualified_locale.obj
 0002:0000b888       ??_C@_1BA@GMENCENF@?$AAb?$AAe?$AAl?$AAg?$AAi?$AAa?$AAn?$AA?$AA@ 000000018002e888     libucrt:get_qualified_locale.obj
 0002:0000b898       ??_C@_1BC@PJMIIAAN@?$AAc?$AAa?$AAn?$AAa?$AAd?$AAi?$AAa?$AAn?$AA?$AA@ 000000018002e898     libucrt:get_qualified_locale.obj
 0002:0000b8b0       ??_C@_17NOIMNFBF@?$AAc?$AAh?$AAh?$AA?$AA@ 000000018002e8b0     libucrt:get_qualified_locale.obj
 0002:0000b8b8       ??_C@_17GGDALCHA@?$AAc?$AAh?$AAi?$AA?$AA@ 000000018002e8b8     libucrt:get_qualified_locale.obj
 0002:0000b8c0       ??_C@_1BA@NPNJKIBL@?$AAc?$AAh?$AAi?$AAn?$AAe?$AAs?$AAe?$AA?$AA@ 000000018002e8c0     libucrt:get_qualified_locale.obj
 0002:0000b8d0       ??_C@_1CC@DINBAMMJ@?$AAc?$AAh?$AAi?$AAn?$AAe?$AAs?$AAe?$AA?9?$AAh?$AAo?$AAn?$AAg?$AAk?$AAo?$AAn?$AAg?$AA?$AA@ 000000018002e8d0     libucrt:get_qualified_locale.obj
 0002:0000b8f8       ??_C@_1CG@IOBJPACO@?$AAc?$AAh?$AAi?$AAn?$AAe?$AAs?$AAe?$AA?9?$AAs?$AAi?$AAm?$AAp?$AAl?$AAi?$AAf?$AAi?$AAe?$AAd?$AA?$AA@ 000000018002e8f8     libucrt:get_qualified_locale.obj
 0002:0000b920       ??_C@_1CE@GAJNDCKG@?$AAc?$AAh?$AAi?$AAn?$AAe?$AAs?$AAe?$AA?9?$AAs?$AAi?$AAn?$AAg?$AAa?$AAp?$AAo?$AAr?$AAe?$AA?$AA@ 000000018002e920     libucrt:get_qualified_locale.obj
 0002:0000b948       ??_C@_1CI@PAJPIOOD@?$AAc?$AAh?$AAi?$AAn?$AAe?$AAs?$AAe?$AA?9?$AAt?$AAr?$AAa?$AAd?$AAi?$AAt?$AAi?$AAo?$AAn?$AAa?$AAl?$AA?$AA@ 000000018002e948     libucrt:get_qualified_locale.obj
 0002:0000b970       ??_C@_1BM@NILJBMMD@?$AAd?$AAu?$AAt?$AAc?$AAh?$AA?9?$AAb?$AAe?$AAl?$AAg?$AAi?$AAa?$AAn?$AA?$AA@ 000000018002e970     libucrt:get_qualified_locale.obj
 0002:0000b990       ??_C@_1CC@OOJPJNEJ@?$AAe?$AAn?$AAg?$AAl?$AAi?$AAs?$AAh?$AA?9?$AAa?$AAm?$AAe?$AAr?$AAi?$AAc?$AAa?$AAn?$AA?$AA@ 000000018002e990     libucrt:get_qualified_locale.obj
 0002:0000b9b8       ??_C@_1BI@IOLFEEM@?$AAe?$AAn?$AAg?$AAl?$AAi?$AAs?$AAh?$AA?9?$AAa?$AAu?$AAs?$AA?$AA@ 000000018002e9b8     libucrt:get_qualified_locale.obj
 0002:0000b9d0       ??_C@_1BO@HFFNLENJ@?$AAe?$AAn?$AAg?$AAl?$AAi?$AAs?$AAh?$AA?9?$AAb?$AAe?$AAl?$AAi?$AAz?$AAe?$AA?$AA@ 000000018002e9d0     libucrt:get_qualified_locale.obj
 0002:0000b9f0       ??_C@_1BI@HAPKJMPO@?$AAe?$AAn?$AAg?$AAl?$AAi?$AAs?$AAh?$AA?9?$AAc?$AAa?$AAn?$AA?$AA@ 000000018002e9f0     libucrt:get_qualified_locale.obj
 0002:0000ba08       ??_C@_1CE@HLNDMIOJ@?$AAe?$AAn?$AAg?$AAl?$AAi?$AAs?$AAh?$AA?9?$AAc?$AAa?$AAr?$AAi?$AAb?$AAb?$AAe?$AAa?$AAn?$AA?$AA@ 000000018002ea08     libucrt:get_qualified_locale.obj
 0002:0000ba30       ??_C@_1BI@LDHJHHAC@?$AAe?$AAn?$AAg?$AAl?$AAi?$AAs?$AAh?$AA?9?$AAi?$AAr?$AAe?$AA?$AA@ 000000018002ea30     libucrt:get_qualified_locale.obj
 0002:0000ba48       ??_C@_1CA@NJMMCFOC@?$AAe?$AAn?$AAg?$AAl?$AAi?$AAs?$AAh?$AA?9?$AAj?$AAa?$AAm?$AAa?$AAi?$AAc?$AAa?$AA?$AA@ 000000018002ea48     libucrt:get_qualified_locale.obj
 0002:0000ba68       ??_C@_1BG@BHJEBBGG@?$AAe?$AAn?$AAg?$AAl?$AAi?$AAs?$AAh?$AA?9?$AAn?$AAz?$AA?$AA@ 000000018002ea68     libucrt:get_qualified_locale.obj
 0002:0000ba80       ??_C@_1CK@FGOEJJCO@?$AAe?$AAn?$AAg?$AAl?$AAi?$AAs?$AAh?$AA?9?$AAs?$AAo?$AAu?$AAt?$AAh?$AA?5?$AAa?$AAf?$AAr?$AAi?$AAc?$AAa?$AA?$AA@ 000000018002ea80     libucrt:get_qualified_locale.obj
 0002:0000bab0       ??_C@_1DE@PDBJPCJ@?$AAe?$AAn?$AAg?$AAl?$AAi?$AAs?$AAh?$AA?9?$AAt?$AAr?$AAi?$AAn?$AAi?$AAd?$AAa?$AAd?$AA?5?$AAy?$AA?5?$AAt?$AAo?$AAb?$AAa?$AAg?$AAo?$AA?$AA@ 000000018002eab0     libucrt:get_qualified_locale.obj
 0002:0000bae8       ??_C@_1BG@JGCANDME@?$AAe?$AAn?$AAg?$AAl?$AAi?$AAs?$AAh?$AA?9?$AAu?$AAk?$AA?$AA@ 000000018002eae8     libucrt:get_qualified_locale.obj
 0002:0000bb00       ??_C@_1BG@DINKMLE@?$AAe?$AAn?$AAg?$AAl?$AAi?$AAs?$AAh?$AA?9?$AAu?$AAs?$AA?$AA@ 000000018002eb00     libucrt:get_qualified_locale.obj
 0002:0000bb18       ??_C@_1BI@NMFDBHJE@?$AAe?$AAn?$AAg?$AAl?$AAi?$AAs?$AAh?$AA?9?$AAu?$AAs?$AAa?$AA?$AA@ 000000018002eb18     libucrt:get_qualified_locale.obj
 0002:0000bb30       ??_C@_1BO@OIHKJKII@?$AAf?$AAr?$AAe?$AAn?$AAc?$AAh?$AA?9?$AAb?$AAe?$AAl?$AAg?$AAi?$AAa?$AAn?$AA?$AA@ 000000018002eb30     libucrt:get_qualified_locale.obj
 0002:0000bb50       ??_C@_1CA@NKAELJKI@?$AAf?$AAr?$AAe?$AAn?$AAc?$AAh?$AA?9?$AAc?$AAa?$AAn?$AAa?$AAd?$AAi?$AAa?$AAn?$AA?$AA@ 000000018002eb50     libucrt:get_qualified_locale.obj
 0002:0000bb70       ??_C@_1CE@MGKCNLGN@?$AAf?$AAr?$AAe?$AAn?$AAc?$AAh?$AA?9?$AAl?$AAu?$AAx?$AAe?$AAm?$AAb?$AAo?$AAu?$AAr?$AAg?$AA?$AA@ 000000018002eb70     libucrt:get_qualified_locale.obj
 0002:0000bb98       ??_C@_1BK@CEGEAILM@?$AAf?$AAr?$AAe?$AAn?$AAc?$AAh?$AA?9?$AAs?$AAw?$AAi?$AAs?$AAs?$AA?$AA@ 000000018002eb98     libucrt:get_qualified_locale.obj
 0002:0000bbb8       ??_C@_1CA@PAFKEOCC@?$AAg?$AAe?$AAr?$AAm?$AAa?$AAn?$AA?9?$AAa?$AAu?$AAs?$AAt?$AAr?$AAi?$AAa?$AAn?$AA?$AA@ 000000018002ebb8     libucrt:get_qualified_locale.obj
 0002:0000bbd8       ??_C@_1CI@HCFHGOFD@?$AAg?$AAe?$AAr?$AAm?$AAa?$AAn?$AA?9?$AAl?$AAi?$AAc?$AAh?$AAt?$AAe?$AAn?$AAs?$AAt?$AAe?$AAi?$AAn?$AA?$AA@ 000000018002ebd8     libucrt:get_qualified_locale.obj
 0002:0000bc00       ??_C@_1CE@FEDDNPDG@?$AAg?$AAe?$AAr?$AAm?$AAa?$AAn?$AA?9?$AAl?$AAu?$AAx?$AAe?$AAm?$AAb?$AAo?$AAu?$AAr?$AAg?$AA?$AA@ 000000018002ec00     libucrt:get_qualified_locale.obj
 0002:0000bc28       ??_C@_1BK@LIMINNMN@?$AAg?$AAe?$AAr?$AAm?$AAa?$AAn?$AA?9?$AAs?$AAw?$AAi?$AAs?$AAs?$AA?$AA@ 000000018002ec28     libucrt:get_qualified_locale.obj
 0002:0000bc48       ??_C@_1BM@LGMDBEPD@?$AAi?$AAr?$AAi?$AAs?$AAh?$AA?9?$AAe?$AAn?$AAg?$AAl?$AAi?$AAs?$AAh?$AA?$AA@ 000000018002ec48     libucrt:get_qualified_locale.obj
 0002:0000bc68       ??_C@_1BM@NNCFBAEE@?$AAi?$AAt?$AAa?$AAl?$AAi?$AAa?$AAn?$AA?9?$AAs?$AAw?$AAi?$AAs?$AAs?$AA?$AA@ 000000018002ec68     libucrt:get_qualified_locale.obj
 0002:0000bc88       ??_C@_1BE@FEDJNPIB@?$AAn?$AAo?$AAr?$AAw?$AAe?$AAg?$AAi?$AAa?$AAn?$AA?$AA@ 000000018002ec88     libucrt:get_qualified_locale.obj
 0002:0000bca0       ??_C@_1CC@CILKDEIE@?$AAn?$AAo?$AAr?$AAw?$AAe?$AAg?$AAi?$AAa?$AAn?$AA?9?$AAb?$AAo?$AAk?$AAm?$AAa?$AAl?$AA?$AA@ 000000018002eca0     libucrt:get_qualified_locale.obj
 0002:0000bcc8       ??_C@_1CE@DHMMHEPL@?$AAn?$AAo?$AAr?$AAw?$AAe?$AAg?$AAi?$AAa?$AAn?$AA?9?$AAn?$AAy?$AAn?$AAo?$AAr?$AAs?$AAk?$AA?$AA@ 000000018002ecc8     libucrt:get_qualified_locale.obj
 0002:0000bcf0       ??_C@_1CK@OPNMHECD@?$AAp?$AAo?$AAr?$AAt?$AAu?$AAg?$AAu?$AAe?$AAs?$AAe?$AA?9?$AAb?$AAr?$AAa?$AAz?$AAi?$AAl?$AAi?$AAa?$AAn?$AA?$AA@ 000000018002ecf0     libucrt:get_qualified_locale.obj
 0002:0000bd20       ??_C@_1CE@KEEHCDB@?$AAs?$AAp?$AAa?$AAn?$AAi?$AAs?$AAh?$AA?9?$AAa?$AAr?$AAg?$AAe?$AAn?$AAt?$AAi?$AAn?$AAa?$AA?$AA@ 000000018002ed20     libucrt:get_qualified_locale.obj
 0002:0000bd48       ??_C@_1CA@GIAOLHJD@?$AAs?$AAp?$AAa?$AAn?$AAi?$AAs?$AAh?$AA?9?$AAb?$AAo?$AAl?$AAi?$AAv?$AAi?$AAa?$AA?$AA@ 000000018002ed48     libucrt:get_qualified_locale.obj
 0002:0000bd68       ??_C@_1BM@OJNDFNPD@?$AAs?$AAp?$AAa?$AAn?$AAi?$AAs?$AAh?$AA?9?$AAc?$AAh?$AAi?$AAl?$AAe?$AA?$AA@ 000000018002ed68     libucrt:get_qualified_locale.obj
 0002:0000bd88       ??_C@_1CC@OCOLPALL@?$AAs?$AAp?$AAa?$AAn?$AAi?$AAs?$AAh?$AA?9?$AAc?$AAo?$AAl?$AAo?$AAm?$AAb?$AAi?$AAa?$AA?$AA@ 000000018002ed88     libucrt:get_qualified_locale.obj
 0002:0000bdb0       ??_C@_1CG@BPOFMKBB@?$AAs?$AAp?$AAa?$AAn?$AAi?$AAs?$AAh?$AA?9?$AAc?$AAo?$AAs?$AAt?$AAa?$AA?5?$AAr?$AAi?$AAc?$AAa?$AA?$AA@ 000000018002edb0     libucrt:get_qualified_locale.obj
 0002:0000bdd8       ??_C@_1DG@IGOBAPBB@?$AAs?$AAp?$AAa?$AAn?$AAi?$AAs?$AAh?$AA?9?$AAd?$AAo?$AAm?$AAi?$AAn?$AAi?$AAc?$AAa?$AAn?$AA?5?$AAr?$AAe?$AAp?$AAu?$AAb?$AAl?$AAi?$AAc?$AA?$AA@ 000000018002edd8     libucrt:get_qualified_locale.obj
 0002:0000be10       ??_C@_1CA@JHAPGEGI@?$AAs?$AAp?$AAa?$AAn?$AAi?$AAs?$AAh?$AA?9?$AAe?$AAc?$AAu?$AAa?$AAd?$AAo?$AAr?$AA?$AA@ 000000018002ee10     libucrt:get_qualified_locale.obj
 0002:0000be30       ??_C@_1CI@LAPALJPP@?$AAs?$AAp?$AAa?$AAn?$AAi?$AAs?$AAh?$AA?9?$AAe?$AAl?$AA?5?$AAs?$AAa?$AAl?$AAv?$AAa?$AAd?$AAo?$AAr?$AA?$AA@ 000000018002ee30     libucrt:get_qualified_locale.obj
 0002:0000be58       ??_C@_1CE@PDGBOFOM@?$AAs?$AAp?$AAa?$AAn?$AAi?$AAs?$AAh?$AA?9?$AAg?$AAu?$AAa?$AAt?$AAe?$AAm?$AAa?$AAl?$AAa?$AA?$AA@ 000000018002ee58     libucrt:get_qualified_locale.obj
 0002:0000be80       ??_C@_1CC@NBEBAODI@?$AAs?$AAp?$AAa?$AAn?$AAi?$AAs?$AAh?$AA?9?$AAh?$AAo?$AAn?$AAd?$AAu?$AAr?$AAa?$AAs?$AA?$AA@ 000000018002ee80     libucrt:get_qualified_locale.obj
 0002:0000bea8       ??_C@_1CA@LLKGHBMF@?$AAs?$AAp?$AAa?$AAn?$AAi?$AAs?$AAh?$AA?9?$AAm?$AAe?$AAx?$AAi?$AAc?$AAa?$AAn?$AA?$AA@ 000000018002eea8     libucrt:get_qualified_locale.obj
 0002:0000bec8       ??_C@_1BO@LKNDOIGD@?$AAs?$AAp?$AAa?$AAn?$AAi?$AAs?$AAh?$AA?9?$AAm?$AAo?$AAd?$AAe?$AAr?$AAn?$AA?$AA@ 000000018002eec8     libucrt:get_qualified_locale.obj
 0002:0000bee8       ??_C@_1CE@NMDMOEEB@?$AAs?$AAp?$AAa?$AAn?$AAi?$AAs?$AAh?$AA?9?$AAn?$AAi?$AAc?$AAa?$AAr?$AAa?$AAg?$AAu?$AAa?$AA?$AA@ 000000018002eee8     libucrt:get_qualified_locale.obj
 0002:0000bf10       ??_C@_1BO@LLCBEJGB@?$AAs?$AAp?$AAa?$AAn?$AAi?$AAs?$AAh?$AA?9?$AAp?$AAa?$AAn?$AAa?$AAm?$AAa?$AA?$AA@ 000000018002ef10     libucrt:get_qualified_locale.obj
 0002:0000bf30       ??_C@_1CC@FKPGGIHO@?$AAs?$AAp?$AAa?$AAn?$AAi?$AAs?$AAh?$AA?9?$AAp?$AAa?$AAr?$AAa?$AAg?$AAu?$AAa?$AAy?$AA?$AA@ 000000018002ef30     libucrt:get_qualified_locale.obj
 0002:0000bf58       ??_C@_1BK@CDEIHOOP@?$AAs?$AAp?$AAa?$AAn?$AAi?$AAs?$AAh?$AA?9?$AAp?$AAe?$AAr?$AAu?$AA?$AA@ 000000018002ef58     libucrt:get_qualified_locale.obj
 0002:0000bf78       ??_C@_1CI@GAHAKKGP@?$AAs?$AAp?$AAa?$AAn?$AAi?$AAs?$AAh?$AA?9?$AAp?$AAu?$AAe?$AAr?$AAt?$AAo?$AA?5?$AAr?$AAi?$AAc?$AAo?$AA?$AA@ 000000018002ef78     libucrt:get_qualified_locale.obj
 0002:0000bfa0       ??_C@_1CA@NKJBCAGP@?$AAs?$AAp?$AAa?$AAn?$AAi?$AAs?$AAh?$AA?9?$AAu?$AAr?$AAu?$AAg?$AAu?$AAa?$AAy?$AA?$AA@ 000000018002efa0     libucrt:get_qualified_locale.obj
 0002:0000bfc0       ??_C@_1CE@ODILCONM@?$AAs?$AAp?$AAa?$AAn?$AAi?$AAs?$AAh?$AA?9?$AAv?$AAe?$AAn?$AAe?$AAz?$AAu?$AAe?$AAl?$AAa?$AA?$AA@ 000000018002efc0     libucrt:get_qualified_locale.obj
 0002:0000bfe8       ??_C@_1CA@OBNMCGFO@?$AAs?$AAw?$AAe?$AAd?$AAi?$AAs?$AAh?$AA?9?$AAf?$AAi?$AAn?$AAl?$AAa?$AAn?$AAd?$AA?$AA@ 000000018002efe8     libucrt:get_qualified_locale.obj
 0002:0000c008       ??_C@_1M@PIPDDPPI@?$AAs?$AAw?$AAi?$AAs?$AAs?$AA?$AA@ 000000018002f008     libucrt:get_qualified_locale.obj
 0002:0000c014       ??_C@_15GMFIMNFM@?$AAu?$AAs?$AA?$AA@ 000000018002f014     libucrt:get_qualified_locale.obj
 0002:0000c020       ??_C@_17HAEBFAGL@?$AAu?$AAs?$AAa?$AA?$AA@ 000000018002f020     libucrt:get_qualified_locale.obj
 0002:0000c028       ??_C@_1BA@DPFJEPHB@?$AAa?$AAm?$AAe?$AAr?$AAi?$AAc?$AAa?$AA?$AA@ 000000018002f028     libucrt:get_qualified_locale.obj
 0002:0000c038       ??_C@_1BA@ELOGGFK@?$AAb?$AAr?$AAi?$AAt?$AAa?$AAi?$AAn?$AA?$AA@ 000000018002f038     libucrt:get_qualified_locale.obj
 0002:0000c048       ??_C@_1M@GHBGIGDA@?$AAc?$AAh?$AAi?$AAn?$AAa?$AA?$AA@ 000000018002f048     libucrt:get_qualified_locale.obj
 0002:0000c058       ??_C@_1M@NCHEJOPO@?$AAc?$AAz?$AAe?$AAc?$AAh?$AA?$AA@ 000000018002f058     libucrt:get_qualified_locale.obj
 0002:0000c068       ??_C@_1BA@BKPAPBLA@?$AAe?$AAn?$AAg?$AAl?$AAa?$AAn?$AAd?$AA?$AA@ 000000018002f068     libucrt:get_qualified_locale.obj
 0002:0000c078       ??_C@_1BM@HKBCKIPC@?$AAg?$AAr?$AAe?$AAa?$AAt?$AA?5?$AAb?$AAr?$AAi?$AAt?$AAa?$AAi?$AAn?$AA?$AA@ 000000018002f078     libucrt:get_qualified_locale.obj
 0002:0000c098       ??_C@_1BA@PPCHPGJB@?$AAh?$AAo?$AAl?$AAl?$AAa?$AAn?$AAd?$AA?$AA@ 000000018002f098     libucrt:get_qualified_locale.obj
 0002:0000c0a8       ??_C@_1BE@JBMPEGDG@?$AAh?$AAo?$AAn?$AAg?$AA?9?$AAk?$AAo?$AAn?$AAg?$AA?$AA@ 000000018002f0a8     libucrt:get_qualified_locale.obj
 0002:0000c0c0       ??_C@_1BI@KOELBBPJ@?$AAn?$AAe?$AAw?$AA?9?$AAz?$AAe?$AAa?$AAl?$AAa?$AAn?$AAd?$AA?$AA@ 000000018002f0c0     libucrt:get_qualified_locale.obj
 0002:0000c0d8       ??_C@_15HIEBHAIO@?$AAn?$AAz?$AA?$AA@ 000000018002f0d8     libucrt:get_qualified_locale.obj
 0002:0000c0e0       ??_C@_1BC@CHBCPFPI@?$AAp?$AAr?$AA?5?$AAc?$AAh?$AAi?$AAn?$AAa?$AA?$AA@ 000000018002f0e0     libucrt:get_qualified_locale.obj
 0002:0000c0f8       ??_C@_1BC@JAOIIFKD@?$AAp?$AAr?$AA?9?$AAc?$AAh?$AAi?$AAn?$AAa?$AA?$AA@ 000000018002f0f8     libucrt:get_qualified_locale.obj
 0002:0000c110       ??_C@_1BI@BEHPPHKC@?$AAp?$AAu?$AAe?$AAr?$AAt?$AAo?$AA?9?$AAr?$AAi?$AAc?$AAo?$AA?$AA@ 000000018002f110     libucrt:get_qualified_locale.obj
 0002:0000c128       ??_C@_1O@PAEOFKDI@?$AAs?$AAl?$AAo?$AAv?$AAa?$AAk?$AA?$AA@ 000000018002f128     libucrt:get_qualified_locale.obj
 0002:0000c138       ??_C@_1BK@FIHMCKAM@?$AAs?$AAo?$AAu?$AAt?$AAh?$AA?5?$AAa?$AAf?$AAr?$AAi?$AAc?$AAa?$AA?$AA@ 000000018002f138     libucrt:get_qualified_locale.obj
 0002:0000c158       ??_C@_1BI@NAEOODKB@?$AAs?$AAo?$AAu?$AAt?$AAh?$AA?5?$AAk?$AAo?$AAr?$AAe?$AAa?$AA?$AA@ 000000018002f158     libucrt:get_qualified_locale.obj
 0002:0000c170       ??_C@_1BK@FBDGGIFF@?$AAs?$AAo?$AAu?$AAt?$AAh?$AA?9?$AAa?$AAf?$AAr?$AAi?$AAc?$AAa?$AA?$AA@ 000000018002f170     libucrt:get_qualified_locale.obj
 0002:0000c190       ??_C@_1BI@GHLEJDPK@?$AAs?$AAo?$AAu?$AAt?$AAh?$AA?9?$AAk?$AAo?$AAr?$AAe?$AAa?$AA?$AA@ 000000018002f190     libucrt:get_qualified_locale.obj
 0002:0000c1a8       ??_C@_1CE@PLHLOMJF@?$AAt?$AAr?$AAi?$AAn?$AAi?$AAd?$AAa?$AAd?$AA?5?$AA?$CG?$AA?5?$AAt?$AAo?$AAb?$AAa?$AAg?$AAo?$AA?$AA@ 000000018002f1a8     libucrt:get_qualified_locale.obj
 0002:0000c1d0       ??_C@_1BO@MODIMHHI@?$AAu?$AAn?$AAi?$AAt?$AAe?$AAd?$AA?9?$AAk?$AAi?$AAn?$AAg?$AAd?$AAo?$AAm?$AA?$AA@ 000000018002f1d0     libucrt:get_qualified_locale.obj
 0002:0000c1f0       ??_C@_1BM@FFHJONBJ@?$AAu?$AAn?$AAi?$AAt?$AAe?$AAd?$AA?9?$AAs?$AAt?$AAa?$AAt?$AAe?$AAs?$AA?$AA@ 000000018002f1f0     libucrt:get_qualified_locale.obj
 0002:0000c210       ??_C@_17DNCLJFIF@?$AAA?$AAC?$AAP?$AA?$AA@ 000000018002f210     libucrt:get_qualified_locale.obj
 0002:0000c218       ??_C@_17CIKBIHLH@?$AAO?$AAC?$AAP?$AA?$AA@ 000000018002f218     libucrt:get_qualified_locale.obj
 0002:0000c220       __rglangidNotDefault       000000018002f220     libucrt:getqloc_downlevel.obj
 0002:0000ded0       ??_C@_1BA@BALFACEM@?$AAC?$AAO?$AAN?$AAO?$AAU?$AAT?$AA$?$AA?$AA@ 0000000180030ed0     libucrt:initcon.obj
 0002:0000e130       __log10_256_lead           0000000180031130     libucrt:log10_256_lead_tail_table.obj
 0002:0000e940       __log10_256_tail           0000000180031940     libucrt:log10_256_lead_tail_table.obj
 0002:0000f148       ??_C@_1BK@DBDEIDLH@?$AAK?$AAE?$AAR?$AAN?$AAE?$AAL?$AA3?$AA2?$AA?4?$AAD?$AAL?$AAL?$AA?$AA@ 0000000180032148     DelayImp:delayhlp.obj
 0002:0000f168       __pfnDliFailureHook2       0000000180032168     DelayImp:delayhk1.obj
 0002:0000f170       _load_config_used          0000000180032170     LIBCMT:loadcfg.obj
 0002:0000f208       ??_C@_0BC@BDKFLDHL@unknown?5exception?$AA@ 0000000180032208     familyTree.obj
 0002:0000f21a       ??_C@_00CNPNBAHC@?$AA@     000000018003221a     familyTree.obj
 0002:0000f21c       ??_C@_02LMMGGCAJ@?3?5?$AA@ 000000018003221c     familyTree.obj
 0002:0000f220       ??_C@_08LLGCOLLL@iostream?$AA@ 0000000180032220     familyTree.obj
 0002:0000f230       ??_C@_0BG@PADBLCHM@iostream?5stream?5error?$AA@ 0000000180032230     familyTree.obj
 0002:0000f248       ??_C@_0BF@PHHKMMFD@ios_base?3?3badbit?5set?$AA@ 0000000180032248     familyTree.obj
 0002:0000f260       ??_C@_0BG@FMKFHCIL@ios_base?3?3failbit?5set?$AA@ 0000000180032260     familyTree.obj
 0002:0000f278       ??_C@_0BF@OOHOMBOF@ios_base?3?3eofbit?5set?$AA@ 0000000180032278     familyTree.obj
 0002:0000f290       ??_C@_02GAHGKHJM@Me?$AA@   0000000180032290     familyTree.obj
 0002:0000f298       ??_C@_0DG@BBIDGOBN@You?5cannot?5add?5borther?5while?5you@ 0000000180032298     familyTree.obj
 0002:0000f2d0       ??_C@_0CA@GNLPBDDC@You?5cannot?5delete?5the?5root?5node?$AA@ 00000001800322d0     familyTree.obj
 0002:0000f2f0       ??_C@_07IFDINNEA@?$DM?1span?$DO?$AA@ 00000001800322f0     familyTree.obj
 0002:0000f2f8       ??_C@_01CLKCMJKC@?5?$AA@   00000001800322f8     familyTree.obj
 0002:0000f2fc       ??_C@_02HKLCKPBO@?$CC?$DO?$AA@ 00000001800322fc     familyTree.obj
 0002:0000f300       ??_C@_04EDGDKJNK@Male?$AA@ 0000000180032300     familyTree.obj
 0002:0000f308       ??_C@_06KGAOHABH@Female?$AA@ 0000000180032308     familyTree.obj
 0002:0000f310       ??_C@_09EIAPDOHP@?$CC?5class?$DN?$CC?$AA@ 0000000180032310     familyTree.obj
 0002:0000f320       ??_C@_0L@DANGLNKG@?$DMspan?5id?$DN?$CC?$AA@ 0000000180032320     familyTree.obj
 0002:0000f32c       ??_C@_04CKDPPOAM@?$DMli?$DO?$AA@ 000000018003232c     familyTree.obj
 0002:0000f334       ??_C@_05JCHICDG@?$DM?1li?$DO?$AA@ 0000000180032334     familyTree.obj
 0002:0000f33c       ??_C@_04BOFCEPC@?$DMul?$DO?$AA@ 000000018003233c     familyTree.obj
 0002:0000f348       ??_C@_0L@IKGIPOJO@?$DM?1ul?$DO?$DM?1li?$DO?$AA@ 0000000180032348     familyTree.obj
 0002:0000f354       ??_C@_05CCPNFIMI@?$DM?1ul?$DO?$AA@ 0000000180032354     familyTree.obj
 0002:0000f360       ??_C@_07MLMKIGLO@isError?$AA@ 0000000180032360     familyTree.obj
 0002:0000f368       ??_C@_04PJOLNDGD@data?$AA@ 0000000180032368     familyTree.obj
 0002:0000f370       ??_C@_09KPNGHGBC@firstName?$AA@ 0000000180032370     familyTree.obj
 0002:0000f380       ??_C@_08MOAPANHK@lastName?$AA@ 0000000180032380     familyTree.obj
 0002:0000f390       ??_C@_08EFFPOHHI@birthDay?$AA@ 0000000180032390     familyTree.obj
 0002:0000f3a0       ??_C@_07BLHGEMCF@deadDay?$AA@ 00000001800323a0     familyTree.obj
 0002:0000f3a8       ??_C@_06ILLFPHOA@isMale?$AA@ 00000001800323a8     familyTree.obj
 0002:0000f3b0       ??_C@_01NOFIACDB@w?$AA@    00000001800323b0     familyTree.obj
 0002:0000f3b8       ??_C@_07FLMNHPPG@exports?$AA@ 00000001800323b8     familyTree.obj
 0002:0000f3c0       ??_C@_0BB@OPFPFILL@?4?4?2familyTree?4cc?$AA@ 00000001800323c0     familyTree.obj
 0002:0000f3d8       ??_C@_0L@EKLMENOI@familyTree?$AA@ 00000001800323d8     familyTree.obj
 0002:0000f3e8       ??_C@_0BD@OLBABOEK@vector?$DMT?$DO?5too?5long?$AA@ 00000001800323e8     familyTree.obj
 0002:0000f400       ??_C@_0BA@JFNIOLAK@string?5too?5long?$AA@ 0000000180032400     familyTree.obj
 0002:0000f410       ??_C@_0BI@CFPLBAOH@invalid?5string?5position?$AA@ 0000000180032410     familyTree.obj
 0002:0000f428       ??_7exception@stdext@@6B@  0000000180032428     familyTree.obj
 0002:0000f440       ??_C@_08HCOMDCCD@iojs?4exe?$AA@ 0000000180032440     win_delay_load_hook.obj
 0002:0000f450       ??_C@_08JDDNMFDB@node?4exe?$AA@ 0000000180032450     win_delay_load_hook.obj
 0002:0000f460       __pfnDliNotifyHook2        0000000180032460     win_delay_load_hook.obj
 0002:0000f4c8       _tls_used                  00000001800324c8     LIBCMT:tlssup.obj
 0002:0000f4f0       ??_R4exception@std@@6B@    00000001800324f0     libcpmt:cout.obj
 0002:0000f518       ??_R3exception@std@@8      0000000180032518     libcpmt:cout.obj
 0002:0000f530       ??_R2exception@std@@8      0000000180032530     libcpmt:cout.obj
 0002:0000f540       ??_R1A@?0A@EA@exception@std@@8 0000000180032540     libcpmt:cout.obj
 0002:0000f568       ??_R4ios_base@std@@6B@     0000000180032568     libcpmt:cout.obj
 0002:0000f590       ??_R3ios_base@std@@8       0000000180032590     libcpmt:cout.obj
 0002:0000f5a8       ??_R2ios_base@std@@8       00000001800325a8     libcpmt:cout.obj
 0002:0000f5c0       ??_R1A@?0A@EA@ios_base@std@@8 00000001800325c0     libcpmt:cout.obj
 0002:0000f5e8       ??_R17?0A@EA@?$_Iosb@H@std@@8 00000001800325e8     libcpmt:cout.obj
 0002:0000f610       ??_R3?$_Iosb@H@std@@8      0000000180032610     libcpmt:cout.obj
 0002:0000f628       ??_R2?$_Iosb@H@std@@8      0000000180032628     libcpmt:cout.obj
 0002:0000f638       ??_R1A@?0A@EA@?$_Iosb@H@std@@8 0000000180032638     libcpmt:cout.obj
 0002:0000f660       ??_R4?$basic_ios@DU?$char_traits@D@std@@@std@@6B@ 0000000180032660     libcpmt:cout.obj
 0002:0000f688       ??_R3?$basic_ios@DU?$char_traits@D@std@@@std@@8 0000000180032688     libcpmt:cout.obj
 0002:0000f6a0       ??_R2?$basic_ios@DU?$char_traits@D@std@@@std@@8 00000001800326a0     libcpmt:cout.obj
 0002:0000f6c0       ??_R1A@?0A@EA@?$basic_ios@DU?$char_traits@D@std@@@std@@8 00000001800326c0     libcpmt:cout.obj
 0002:0000f6e8       ??_R4?$basic_streambuf@DU?$char_traits@D@std@@@std@@6B@ 00000001800326e8     libcpmt:cout.obj
 0002:0000f710       ??_R3?$basic_streambuf@DU?$char_traits@D@std@@@std@@8 0000000180032710     libcpmt:cout.obj
 0002:0000f728       ??_R2?$basic_streambuf@DU?$char_traits@D@std@@@std@@8 0000000180032728     libcpmt:cout.obj
 0002:0000f738       ??_R1A@?0A@EA@?$basic_streambuf@DU?$char_traits@D@std@@@std@@8 0000000180032738     libcpmt:cout.obj
 0002:0000f760       ??_R1A@A@3FA@?$basic_ios@DU?$char_traits@D@std@@@std@@8 0000000180032760     libcpmt:cout.obj
 0002:0000f788       ??_R1A@A@3EA@ios_base@std@@8 0000000180032788     libcpmt:cout.obj
 0002:0000f7b0       ??_R17A@3EA@?$_Iosb@H@std@@8 00000001800327b0     libcpmt:cout.obj
 0002:0000f7d8       ??_R4?$basic_ostream@DU?$char_traits@D@std@@@std@@6B@ 00000001800327d8     libcpmt:cout.obj
 0002:0000f800       ??_R3?$basic_ostream@DU?$char_traits@D@std@@@std@@8 0000000180032800     libcpmt:cout.obj
 0002:0000f818       ??_R2?$basic_ostream@DU?$char_traits@D@std@@@std@@8 0000000180032818     libcpmt:cout.obj
 0002:0000f840       ??_R1A@?0A@EA@?$basic_ostream@DU?$char_traits@D@std@@@std@@8 0000000180032840     libcpmt:cout.obj
 0002:0000f868       ??_R4?$basic_filebuf@DU?$char_traits@D@std@@@std@@6B@ 0000000180032868     libcpmt:cout.obj
 0002:0000f890       ??_R3?$basic_filebuf@DU?$char_traits@D@std@@@std@@8 0000000180032890     libcpmt:cout.obj
 0002:0000f8a8       ??_R2?$basic_filebuf@DU?$char_traits@D@std@@@std@@8 00000001800328a8     libcpmt:cout.obj
 0002:0000f8c0       ??_R1A@?0A@EA@?$basic_filebuf@DU?$char_traits@D@std@@@std@@8 00000001800328c0     libcpmt:cout.obj
 0002:0000f8e8       ??_R4runtime_error@std@@6B@ 00000001800328e8     libcpmt:cout.obj
 0002:0000f910       ??_R3runtime_error@std@@8  0000000180032910     libcpmt:cout.obj
 0002:0000f928       ??_R2runtime_error@std@@8  0000000180032928     libcpmt:cout.obj
 0002:0000f940       ??_R1A@?0A@EA@runtime_error@std@@8 0000000180032940     libcpmt:cout.obj
 0002:0000f968       ??_R4bad_cast@std@@6B@     0000000180032968     libcpmt:cout.obj
 0002:0000f990       ??_R3bad_cast@std@@8       0000000180032990     libcpmt:cout.obj
 0002:0000f9a8       ??_R2bad_cast@std@@8       00000001800329a8     libcpmt:cout.obj
 0002:0000f9c0       ??_R1A@?0A@EA@bad_cast@std@@8 00000001800329c0     libcpmt:cout.obj
 0002:0000f9e8       ??_R4_Facet_base@std@@6B@  00000001800329e8     libcpmt:cout.obj
 0002:0000fa10       ??_R3_Facet_base@std@@8    0000000180032a10     libcpmt:cout.obj
 0002:0000fa28       ??_R2_Facet_base@std@@8    0000000180032a28     libcpmt:cout.obj
 0002:0000fa38       ??_R1A@?0A@EA@_Facet_base@std@@8 0000000180032a38     libcpmt:cout.obj
 0002:0000fa60       ??_R1A@?0A@EA@facet@locale@std@@8 0000000180032a60     libcpmt:cout.obj
 0002:0000fa88       ??_R3facet@locale@std@@8   0000000180032a88     libcpmt:cout.obj
 0002:0000faa0       ??_R2facet@locale@std@@8   0000000180032aa0     libcpmt:cout.obj
 0002:0000fac0       ??_R17?0A@EA@_Crt_new_delete@std@@8 0000000180032ac0     libcpmt:cout.obj
 0002:0000fae8       ??_R3_Crt_new_delete@std@@8 0000000180032ae8     libcpmt:cout.obj
 0002:0000fb00       ??_R2_Crt_new_delete@std@@8 0000000180032b00     libcpmt:cout.obj
 0002:0000fb10       ??_R1A@?0A@EA@_Crt_new_delete@std@@8 0000000180032b10     libcpmt:cout.obj
 0002:0000fb38       ??_R3codecvt_base@std@@8   0000000180032b38     libcpmt:cout.obj
 0002:0000fb50       ??_R2codecvt_base@std@@8   0000000180032b50     libcpmt:cout.obj
 0002:0000fb78       ??_R1A@?0A@EA@codecvt_base@std@@8 0000000180032b78     libcpmt:cout.obj
 0002:0000fba0       ??_R3ctype_base@std@@8     0000000180032ba0     libcpmt:cout.obj
 0002:0000fbb8       ??_R2ctype_base@std@@8     0000000180032bb8     libcpmt:cout.obj
 0002:0000fbe0       ??_R1A@?0A@EA@ctype_base@std@@8 0000000180032be0     libcpmt:cout.obj
 0002:0000fc08       ??_R4?$ctype@D@std@@6B@    0000000180032c08     libcpmt:cout.obj
 0002:0000fc30       ??_R3?$ctype@D@std@@8      0000000180032c30     libcpmt:cout.obj
 0002:0000fc48       ??_R2?$ctype@D@std@@8      0000000180032c48     libcpmt:cout.obj
 0002:0000fc78       ??_R1A@?0A@EA@?$ctype@D@std@@8 0000000180032c78     libcpmt:cout.obj
 0002:0000fca0       ??_R4error_category@std@@6B@ 0000000180032ca0     libcpmt:cout.obj
 0002:0000fcc8       ??_R3error_category@std@@8 0000000180032cc8     libcpmt:cout.obj
 0002:0000fce0       ??_R2error_category@std@@8 0000000180032ce0     libcpmt:cout.obj
 0002:0000fcf0       ??_R1A@?0A@EA@error_category@std@@8 0000000180032cf0     libcpmt:cout.obj
 0002:0000fd18       ??_R4_System_error@std@@6B@ 0000000180032d18     libcpmt:cout.obj
 0002:0000fd40       ??_R3_System_error@std@@8  0000000180032d40     libcpmt:cout.obj
 0002:0000fd58       ??_R2_System_error@std@@8  0000000180032d58     libcpmt:cout.obj
 0002:0000fd78       ??_R1A@?0A@EA@_System_error@std@@8 0000000180032d78     libcpmt:cout.obj
 0002:0000fda0       ??_R3system_error@std@@8   0000000180032da0     libcpmt:cout.obj
 0002:0000fdb8       ??_R2system_error@std@@8   0000000180032db8     libcpmt:cout.obj
 0002:0000fde0       ??_R1A@?0A@EA@system_error@std@@8 0000000180032de0     libcpmt:cout.obj
 0002:0000fe08       ??_R3_Generic_error_category@std@@8 0000000180032e08     libcpmt:cout.obj
 0002:0000fe20       ??_R2_Generic_error_category@std@@8 0000000180032e20     libcpmt:cout.obj
 0002:0000fe38       ??_R1A@?0A@EA@_Generic_error_category@std@@8 0000000180032e38     libcpmt:cout.obj
 0002:0000fe60       ??_R4_Iostream_error_category@std@@6B@ 0000000180032e60     libcpmt:cout.obj
 0002:0000fe88       ??_R3_Iostream_error_category@std@@8 0000000180032e88     libcpmt:cout.obj
 0002:0000fea0       ??_R2_Iostream_error_category@std@@8 0000000180032ea0     libcpmt:cout.obj
 0002:0000fec0       ??_R1A@?0A@EA@_Iostream_error_category@std@@8 0000000180032ec0     libcpmt:cout.obj
 0002:0000fee8       ??_R4failure@ios_base@std@@6B@ 0000000180032ee8     libcpmt:cout.obj
 0002:0000ff10       ??_R3failure@ios_base@std@@8 0000000180032f10     libcpmt:cout.obj
 0002:0000ff28       ??_R2failure@ios_base@std@@8 0000000180032f28     libcpmt:cout.obj
 0002:0000ff58       ??_R1A@?0A@EA@failure@ios_base@std@@8 0000000180032f58     libcpmt:cout.obj
 0002:0000ff80       ??_R4?$codecvt@DDU_Mbstatet@@@std@@6B@ 0000000180032f80     libcpmt:cout.obj
 0002:0000ffa8       ??_R3?$codecvt@DDU_Mbstatet@@@std@@8 0000000180032fa8     libcpmt:cout.obj
 0002:0000ffc0       ??_R2?$codecvt@DDU_Mbstatet@@@std@@8 0000000180032fc0     libcpmt:cout.obj
 0002:0000fff0       ??_R1A@?0A@EA@?$codecvt@DDU_Mbstatet@@@std@@8 0000000180032ff0     libcpmt:cout.obj
 0002:00010018       ??_R4bad_alloc@std@@6B@    0000000180033018     libcpmt:xthrow.obj
 0002:00010040       ??_R3bad_alloc@std@@8      0000000180033040     libcpmt:xthrow.obj
 0002:00010058       ??_R2bad_alloc@std@@8      0000000180033058     libcpmt:xthrow.obj
 0002:00010070       ??_R1A@?0A@EA@bad_alloc@std@@8 0000000180033070     libcpmt:xthrow.obj
 0002:00010098       ??_R4logic_error@std@@6B@  0000000180033098     libcpmt:xthrow.obj
 0002:000100c0       ??_R3logic_error@std@@8    00000001800330c0     libcpmt:xthrow.obj
 0002:000100d8       ??_R2logic_error@std@@8    00000001800330d8     libcpmt:xthrow.obj
 0002:000100f0       ??_R1A@?0A@EA@logic_error@std@@8 00000001800330f0     libcpmt:xthrow.obj
 0002:00010118       ??_R4length_error@std@@6B@ 0000000180033118     libcpmt:xthrow.obj
 0002:00010140       ??_R3length_error@std@@8   0000000180033140     libcpmt:xthrow.obj
 0002:00010158       ??_R2length_error@std@@8   0000000180033158     libcpmt:xthrow.obj
 0002:00010178       ??_R1A@?0A@EA@length_error@std@@8 0000000180033178     libcpmt:xthrow.obj
 0002:000101a0       ??_R4out_of_range@std@@6B@ 00000001800331a0     libcpmt:xthrow.obj
 0002:000101c8       ??_R3out_of_range@std@@8   00000001800331c8     libcpmt:xthrow.obj
 0002:000101e0       ??_R2out_of_range@std@@8   00000001800331e0     libcpmt:xthrow.obj
 0002:00010200       ??_R1A@?0A@EA@out_of_range@std@@8 0000000180033200     libcpmt:xthrow.obj
 0002:00010228       ??_R4_Locimp@locale@std@@6B@ 0000000180033228     libcpmt:locale0.obj
 0002:00010250       ??_R3_Locimp@locale@std@@8 0000000180033250     libcpmt:locale0.obj
 0002:00010268       ??_R2_Locimp@locale@std@@8 0000000180033268     libcpmt:locale0.obj
 0002:00010290       ??_R1A@?0A@EA@_Locimp@locale@std@@8 0000000180033290     libcpmt:locale0.obj
 0002:000102b8       ??_R4type_info@@6B@        00000001800332b8     LIBCMT:std_type_info_static.obj
 0002:000102e0       ??_R3type_info@@8          00000001800332e0     LIBCMT:std_type_info_static.obj
 0002:000102f8       ??_R2type_info@@8          00000001800332f8     LIBCMT:std_type_info_static.obj
 0002:00010308       ??_R1A@?0A@EA@type_info@@8 0000000180033308     LIBCMT:std_type_info_static.obj
 0002:00010330       ??_R4bad_array_new_length@std@@6B@ 0000000180033330     LIBCMT:throw_bad_alloc.obj
 0002:00010358       ??_R3bad_array_new_length@std@@8 0000000180033358     LIBCMT:throw_bad_alloc.obj
 0002:00010370       ??_R2bad_array_new_length@std@@8 0000000180033370     LIBCMT:throw_bad_alloc.obj
 0002:00010390       ??_R1A@?0A@EA@bad_array_new_length@std@@8 0000000180033390     LIBCMT:throw_bad_alloc.obj
 0002:000103b8       ??_R4bad_exception@std@@6B@ 00000001800333b8     libvcruntime:frame.obj
 0002:000103e0       ??_R3bad_exception@std@@8  00000001800333e0     libvcruntime:frame.obj
 0002:000103f8       ??_R2bad_exception@std@@8  00000001800333f8     libvcruntime:frame.obj
 0002:00010410       ??_R1A@?0A@EA@bad_exception@std@@8 0000000180033410     libvcruntime:frame.obj
 0002:000108f0       __rtc_iaa                  00000001800338f0     LIBCMT:_initsect_.obj
 0002:000108f8       __rtc_izz                  00000001800338f8     LIBCMT:_initsect_.obj
 0002:00010900       __rtc_taa                  0000000180033900     LIBCMT:_initsect_.obj
 0002:00010908       __rtc_tzz                  0000000180033908     LIBCMT:_initsect_.obj
 0002:000127f0       _TI2?AVruntime_error@std@@ 00000001800357f0     libcpmt:cout.obj
 0002:00012810       _CTA2?AVruntime_error@std@@ 0000000180035810     libcpmt:cout.obj
 0002:00012828       _CT??_R0?AVruntime_error@std@@@8??0runtime_error@std@@QEAA@AEBV01@@Z24 0000000180035828     libcpmt:cout.obj
 0002:00012850       _CT??_R0?AVexception@std@@@8??0exception@std@@QEAA@AEBV01@@Z24 0000000180035850     libcpmt:cout.obj
 0002:00012878       _TI2?AVbad_cast@std@@      0000000180035878     libcpmt:cout.obj
 0002:00012898       _CTA2?AVbad_cast@std@@     0000000180035898     libcpmt:cout.obj
 0002:000128b0       _CT??_R0?AVbad_cast@std@@@8??0bad_cast@std@@QEAA@AEBV01@@Z24 00000001800358b0     libcpmt:cout.obj
 0002:000128d8       _TI2?AVbad_alloc@std@@     00000001800358d8     libcpmt:xthrow.obj
 0002:000128f8       _CTA2?AVbad_alloc@std@@    00000001800358f8     libcpmt:xthrow.obj
 0002:00012910       _CT??_R0?AVbad_alloc@std@@@8??0bad_alloc@std@@QEAA@AEBV01@@Z24 0000000180035910     libcpmt:xthrow.obj
 0002:00012938       _CT??_R0?AVlogic_error@std@@@8??0logic_error@std@@QEAA@AEBV01@@Z24 0000000180035938     libcpmt:xthrow.obj
 0002:00012960       _TI3?AVlength_error@std@@  0000000180035960     libcpmt:xthrow.obj
 0002:00012980       _CTA3?AVlength_error@std@@ 0000000180035980     libcpmt:xthrow.obj
 0002:000129a0       _CT??_R0?AVlength_error@std@@@8??0length_error@std@@QEAA@AEBV01@@Z24 00000001800359a0     libcpmt:xthrow.obj
 0002:000129c8       _TI3?AVout_of_range@std@@  00000001800359c8     libcpmt:xthrow.obj
 0002:000129e8       _CTA3?AVout_of_range@std@@ 00000001800359e8     libcpmt:xthrow.obj
 0002:00012a08       _CT??_R0?AVout_of_range@std@@@8??0out_of_range@std@@QEAA@AEBV01@@Z24 0000000180035a08     libcpmt:xthrow.obj
 0002:00012a30       _TI3?AVbad_array_new_length@std@@ 0000000180035a30     LIBCMT:throw_bad_alloc.obj
 0002:00012a50       _CTA3?AVbad_array_new_length@std@@ 0000000180035a50     LIBCMT:throw_bad_alloc.obj
 0002:00012a70       _CT??_R0?AVbad_array_new_length@std@@@8??0bad_array_new_length@std@@QEAA@AEBV01@@Z24 0000000180035a70     LIBCMT:throw_bad_alloc.obj
 0002:00012a98       _TI2?AVbad_exception@std@@ 0000000180035a98     libvcruntime:frame.obj
 0002:00012ab8       _CTA2?AVbad_exception@std@@ 0000000180035ab8     libvcruntime:frame.obj
 0002:00012ad0       _CT??_R0?AVbad_exception@std@@@8??0bad_exception@std@@QEAA@AEBV01@@Z24 0000000180035ad0     libvcruntime:frame.obj
 0002:00012af4       __DELAY_IMPORT_DESCRIPTOR_node_exe 0000000180035af4     node:node.exe
 0002:00012b14       __NULL_DELAY_IMPORT_DESCRIPTOR 0000000180035b14     node:node.exe
 0002:00012bb8       \177node_NULL_THUNK_DATA_DLN 0000000180035bb8     node:node.exe
 0002:00012f60       \177node_NULL_THUNK_DATA_DLB 0000000180035f60     node:node.exe
 0002:00013038       __IMPORT_DESCRIPTOR_KERNEL32 0000000180036038     kernel32:KERNEL32.dll
 0002:0001304c       __NULL_IMPORT_DESCRIPTOR   000000018003604c     kernel32:KERNEL32.dll
 0003:00000004       ?_Sync@ios_base@std@@0_NA  0000000180037004     libcpmt:ios.obj
 0003:00000020       ?_PJP_CPP_Copyright@@3PADA 0000000180037020     libcpmt:iosptrs.obj
 0003:00000080       _Init_global_epoch         0000000180037080     LIBCMT:thread_safe_statics.obj
 0003:00000084       __scrt_native_dllmain_reason 0000000180037084     LIBCMT:utility.obj
 0003:00000088       __security_cookie          0000000180037088     LIBCMT:gs_cookie.obj
 0003:00000090       __security_cookie_complement 0000000180037090     LIBCMT:gs_cookie.obj
 0003:000000a0       _fltused                   00000001800370a0     LIBCMT:fltused.obj
 0003:000000a8       __isa_available            00000001800370a8     LIBCMT:_cpu_disp_.obj
 0003:000000ac       __isa_enabled              00000001800370ac     LIBCMT:_cpu_disp_.obj
 0003:000000b0       __memcpy_nt_iters          00000001800370b0     LIBCMT:_cpu_disp_.obj
 0003:000000e0       _iob                       00000001800370e0     libucrt:_file.obj
 0003:000001e8       _pctype                    00000001800371e8     libucrt:ctype.obj
 0003:000001f0       _pwctype                   00000001800371f0     libucrt:ctype.obj
 0003:000001f8       __abort_behavior           00000001800371f8     libucrt:abort.obj
 0003:00000200       __acrt_lconv_c             0000000180037200     libucrt:localeconv.obj
 0003:00000298       __acrt_lconv               0000000180037298     libucrt:localeconv.obj
 0003:000002a0       __acrt_lconv_static_decimal 00000001800372a0     libucrt:localeconv.obj
 0003:000002a4       __acrt_lconv_static_W_decimal 00000001800372a4     libucrt:localeconv.obj
 0003:000002c0       __acrt_initial_locale_data 00000001800372c0     libucrt:nlsdata.obj
 0003:00000418       __acrt_initial_locale_pointers 0000000180037418     libucrt:nlsdata.obj
 0003:00000428       __acrt_wide_c_locale_string 0000000180037428     libucrt:nlsdata.obj
 0003:0000042c       __mb_cur_max               000000018003742c     libucrt:nlsdata.obj
 0003:00000430       __badioinfo                0000000180037430     libucrt:ioinit.obj
 0003:00000470       __globallocalestatus       0000000180037470     libucrt:glstatus.obj
 0003:00000510       __acrt_initial_multibyte_data 0000000180037510     libucrt:mbctype.obj
 0003:00000738       __acrt_current_multibyte_data 0000000180037738     libucrt:mbctype.obj
 0003:00000840       _mbctype                   0000000180037840     libucrt:mbctype.obj
 0003:00000950       _mbcasemap                 0000000180037950     libucrt:mbctype.obj
 0003:00000a50       _lookuptrailbytes          0000000180037a50     libucrt:read.obj
 0003:00000b50       __dcrt_lowio_console_output_handle 0000000180037b50     libucrt:initcon.obj
 0003:00000ba0       ??_R0?AVruntime_error@std@@@8 0000000180037ba0     libcpmt:cout.obj
 0003:00000bc8       ??_R0?AVexception@std@@@8  0000000180037bc8     libcpmt:cout.obj
 0003:00000bf0       ??_R0?AVfailure@ios_base@std@@@8 0000000180037bf0     libcpmt:cout.obj
 0003:00000c20       ??_R0?AVsystem_error@std@@@8 0000000180037c20     libcpmt:cout.obj
 0003:00000c48       ??_R0?AV_System_error@std@@@8 0000000180037c48     libcpmt:cout.obj
 0003:00000c70       ??_R0?AVbad_cast@std@@@8   0000000180037c70     libcpmt:cout.obj
 0003:00000c98       ??_R0?AVios_base@std@@@8   0000000180037c98     libcpmt:cout.obj
 0003:00000cc0       ??_R0?AV?$_Iosb@H@std@@@8  0000000180037cc0     libcpmt:cout.obj
 0003:00000ce8       ??_R0?AV?$basic_ios@DU?$char_traits@D@std@@@std@@@8 0000000180037ce8     libcpmt:cout.obj
 0003:00000d30       ??_R0?AV?$basic_streambuf@DU?$char_traits@D@std@@@std@@@8 0000000180037d30     libcpmt:cout.obj
 0003:00000d80       ??_R0?AV?$basic_ostream@DU?$char_traits@D@std@@@std@@@8 0000000180037d80     libcpmt:cout.obj
 0003:00000dd0       ??_R0?AV?$basic_filebuf@DU?$char_traits@D@std@@@std@@@8 0000000180037dd0     libcpmt:cout.obj
 0003:00000e18       ??_R0?AV_Facet_base@std@@@8 0000000180037e18     libcpmt:cout.obj
 0003:00000e40       ??_R0?AVfacet@locale@std@@@8 0000000180037e40     libcpmt:cout.obj
 0003:00000e68       ??_R0?AU_Crt_new_delete@std@@@8 0000000180037e68     libcpmt:cout.obj
 0003:00000e98       ??_R0?AVcodecvt_base@std@@@8 0000000180037e98     libcpmt:cout.obj
 0003:00000ec0       ??_R0?AUctype_base@std@@@8 0000000180037ec0     libcpmt:cout.obj
 0003:00000ee8       ??_R0?AV?$ctype@D@std@@@8  0000000180037ee8     libcpmt:cout.obj
 0003:00000f10       ??_R0?AVerror_category@std@@@8 0000000180037f10     libcpmt:cout.obj
 0003:00000f40       ??_R0?AV_Generic_error_category@std@@@8 0000000180037f40     libcpmt:cout.obj
 0003:00000f78       ??_R0?AV_Iostream_error_category@std@@@8 0000000180037f78     libcpmt:cout.obj
 0003:00000fb0       ??_R0?AV?$codecvt@DDU_Mbstatet@@@std@@@8 0000000180037fb0     libcpmt:cout.obj
 0003:00000fe8       ??_R0?AVbad_alloc@std@@@8  0000000180037fe8     libcpmt:xthrow.obj
 0003:00001010       ??_R0?AVlogic_error@std@@@8 0000000180038010     libcpmt:xthrow.obj
 0003:00001038       ??_R0?AVlength_error@std@@@8 0000000180038038     libcpmt:xthrow.obj
 0003:00001060       ??_R0?AVout_of_range@std@@@8 0000000180038060     libcpmt:xthrow.obj
 0003:00001088       ??_R0?AV_Locimp@locale@std@@@8 0000000180038088     libcpmt:locale0.obj
 0003:000010b8       ??_R0?AVtype_info@@@8      00000001800380b8     LIBCMT:std_type_info_static.obj
 0003:000010d8       ??_R0?AVbad_array_new_length@std@@@8 00000001800380d8     LIBCMT:throw_bad_alloc.obj
 0003:00001108       ??_R0?AVbad_exception@std@@@8 0000000180038108     libvcruntime:frame.obj
 0003:00001130       __imp_?GetCurrent@Isolate@v8@@SAPEAV12@XZ 0000000180038130     node:node.exe
 0003:00001138       __imp_??1HandleScope@v8@@QEAA@XZ 0000000180038138     node:node.exe
 0003:00001140       __imp_??0HandleScope@v8@@QEAA@PEAVIsolate@1@@Z 0000000180038140     node:node.exe
 0003:00001148       __imp_?GetFunction@FunctionTemplate@v8@@QEAA?AV?$Local@VFunction@v8@@@2@XZ 0000000180038148     node:node.exe
 0003:00001150       __imp_?New@FunctionTemplate@v8@@SA?AV?$Local@VFunctionTemplate@v8@@@2@PEAVIsolate@2@P6AXAEBV?$FunctionCallbackInfo@VValue@v8@@@2@@ZV?$Local@VValue@v8@@@2@V?$Local@VSignature@v8@@@2@HW4ConstructorBehavior@2@@Z 0000000180038150     node:node.exe
 0003:00001158       __imp_?Int32Value@Value@v8@@QEBAHXZ 0000000180038158     node:node.exe
 0003:00001160       __imp_?Uint32Value@Value@v8@@QEBAIXZ 0000000180038160     node:node.exe
 0003:00001168       __imp_?BooleanValue@Value@v8@@QEBA_NXZ 0000000180038168     node:node.exe
 0003:00001170       __imp_??1Utf8Value@String@v8@@QEAA@XZ 0000000180038170     node:node.exe
 0003:00001178       __imp_??0Utf8Value@String@v8@@QEAA@V?$Local@VValue@v8@@@2@@Z 0000000180038178     node:node.exe
 0003:00001180       __imp_?NewFromUtf8@String@v8@@SA?AV?$Local@VString@v8@@@2@PEAVIsolate@2@PEBDW4NewStringType@12@H@Z 0000000180038180     node:node.exe
 0003:00001188       __imp_?New@Object@v8@@SA?AV?$Local@VObject@v8@@@2@PEAVIsolate@2@@Z 0000000180038188     node:node.exe
 0003:00001190       __imp_?Set@Object@v8@@QEAA_NV?$Local@VValue@v8@@@2@0@Z 0000000180038190     node:node.exe
 0003:00001198       __imp_?SetName@Function@v8@@QEAAXV?$Local@VString@v8@@@2@@Z 0000000180038198     node:node.exe
 0003:000011a0       __imp_node_module_register 00000001800381a0     node:node.exe
 0003:000011a8       __imp_??DUtf8Value@String@v8@@QEAAPEADXZ 00000001800381a8     node:node.exe
 0003:000011b0       \177node_NULL_THUNK_DATA_DLA 00000001800381b0     node:node.exe
 0003:000011c0       __hmod__node_exe           00000001800381c0     node:node.exe
 0003:000011e0       ?cout@std@@3V?$basic_ostream@DU?$char_traits@D@std@@@1@A 00000001800381e0     libcpmt:cout.obj
 0003:000012e8       ?id@?$codecvt@DDU_Mbstatet@@@std@@2V0locale@2@A 00000001800382e8     libcpmt:cout.obj
 0003:000012f0       ?_Stinit@?1??_Init@?$basic_filebuf@DU?$char_traits@D@std@@@std@@IEAAXPEAU_iobuf@@W4_Initfl@23@@Z@4U_Mbstatet@@A 00000001800382f0     libcpmt:cout.obj
 0003:000012f8       ?_Psave@?$_Facetptr@V?$ctype@D@std@@@std@@2PEBVfacet@locale@2@EB 00000001800382f8     libcpmt:cout.obj
 0003:00001300       ?_Psave@?$_Facetptr@V?$codecvt@DDU_Mbstatet@@@std@@@std@@2PEBVfacet@locale@2@EB 0000000180038300     libcpmt:cout.obj
 0003:00001308       ?_Raise_handler@std@@3P6AXAEBVexception@stdext@@@ZEA 0000000180038308     libcpmt:raisehan.obj
 0003:00001468       ?_Id_cnt@id@locale@std@@0HA 0000000180038468     libcpmt:locale0.obj
 0003:00001470       ?_Clocptr@_Locimp@locale@std@@0PEAV123@EA 0000000180038470     libcpmt:locale0.obj
 0003:00001480       ?id@?$ctype@_W@std@@2V0locale@2@A 0000000180038480     libcpmt:locale0.obj
 0003:00001488       ?id@?$ctype@D@std@@2V0locale@2@A 0000000180038488     libcpmt:locale0.obj
 0003:00001490       ?id@?$codecvt@GDU_Mbstatet@@@std@@2V0locale@2@A 0000000180038490     libcpmt:locale0.obj
 0003:00001498       ?id@?$ctype@G@std@@2V0locale@2@A 0000000180038498     libcpmt:locale0.obj
 0003:000014b0       ?id@?$codecvt@_WDU_Mbstatet@@@std@@2V0locale@2@A 00000001800384b0     libcpmt:locale0.obj
 0003:0000151c       ?_Index@ios_base@std@@0HA  000000018003851c     libcpmt:ios.obj
 0003:00001520       ?_Ptr_cin@std@@3PEAV?$basic_istream@DU?$char_traits@D@std@@@1@EA 0000000180038520     libcpmt:iosptrs.obj
 0003:00001528       ?_Ptr_cout@std@@3PEAV?$basic_ostream@DU?$char_traits@D@std@@@1@EA 0000000180038528     libcpmt:iosptrs.obj
 0003:00001530       ?_Ptr_cerr@std@@3PEAV?$basic_ostream@DU?$char_traits@D@std@@@1@EA 0000000180038530     libcpmt:iosptrs.obj
 0003:00001538       ?_Ptr_clog@std@@3PEAV?$basic_ostream@DU?$char_traits@D@std@@@1@EA 0000000180038538     libcpmt:iosptrs.obj
 0003:00001540       ?_Ptr_wcin@std@@3PEAV?$basic_istream@_WU?$char_traits@_W@std@@@1@EA 0000000180038540     libcpmt:iosptrs.obj
 0003:00001548       ?_Ptr_wcout@std@@3PEAV?$basic_ostream@_WU?$char_traits@_W@std@@@1@EA 0000000180038548     libcpmt:iosptrs.obj
 0003:00001550       ?_Ptr_wcerr@std@@3PEAV?$basic_ostream@_WU?$char_traits@_W@std@@@1@EA 0000000180038550     libcpmt:iosptrs.obj
 0003:00001558       ?_Ptr_wclog@std@@3PEAV?$basic_ostream@_WU?$char_traits@_W@std@@@1@EA 0000000180038558     libcpmt:iosptrs.obj
 0003:000015b8       ?_OptionsStorage@?1??__local_stdio_printf_options@@9@4_KA 00000001800385b8     libcpmt:locale.obj
 0003:000015c0       ?id@?$num_get@DV?$istreambuf_iterator@DU?$char_traits@D@std@@@std@@@std@@2V0locale@2@A 00000001800385c0     libcpmt:locale.obj
 0003:000015c8       ?id@?$num_put@DV?$ostreambuf_iterator@DU?$char_traits@D@std@@@std@@@std@@2V0locale@2@A 00000001800385c8     libcpmt:locale.obj
 0003:000015d0       ?id@?$numpunct@D@std@@2V0locale@2@A 00000001800385d0     libcpmt:locale.obj
 0003:000015e0       __encodedKERNEL32Functions 00000001800385e0     libcpmt:winapisupp.obj
 0003:00001720       ?id@?$time_put@_WV?$ostreambuf_iterator@_WU?$char_traits@_W@std@@@std@@@std@@2V0locale@2@A 0000000180038720     libcpmt:wlocale.obj
 0003:00001728       ?id@?$num_get@_WV?$istreambuf_iterator@_WU?$char_traits@_W@std@@@std@@@std@@2V0locale@2@A 0000000180038728     libcpmt:wlocale.obj
 0003:00001730       ?id@?$num_put@_WV?$ostreambuf_iterator@_WU?$char_traits@_W@std@@@std@@@std@@2V0locale@2@A 0000000180038730     libcpmt:wlocale.obj
 0003:00001738       ?id@?$numpunct@_W@std@@2V0locale@2@A 0000000180038738     libcpmt:wlocale.obj
 0003:00001740       ?id@?$collate@_W@std@@2V0locale@2@A 0000000180038740     libcpmt:wlocale.obj
 0003:00001748       ?id@?$messages@_W@std@@2V0locale@2@A 0000000180038748     libcpmt:wlocale.obj
 0003:00001750       ?id@?$money_get@_WV?$istreambuf_iterator@_WU?$char_traits@_W@std@@@std@@@std@@2V0locale@2@A 0000000180038750     libcpmt:wlocale.obj
 0003:00001758       ?id@?$money_put@_WV?$ostreambuf_iterator@_WU?$char_traits@_W@std@@@std@@@std@@2V0locale@2@A 0000000180038758     libcpmt:wlocale.obj
 0003:00001760       ?id@?$moneypunct@_W$0A@@std@@2V0locale@2@A 0000000180038760     libcpmt:wlocale.obj
 0003:00001768       ?id@?$moneypunct@_W$00@std@@2V0locale@2@A 0000000180038768     libcpmt:wlocale.obj
 0003:00001770       ?id@?$time_get@_WV?$istreambuf_iterator@_WU?$char_traits@_W@std@@@std@@@std@@2V0locale@2@A 0000000180038770     libcpmt:wlocale.obj
 0003:00001778       ?id@?$num_get@GV?$istreambuf_iterator@GU?$char_traits@G@std@@@std@@@std@@2V0locale@2@A 0000000180038778     libcpmt:wlocale.obj
 0003:00001780       ?id@?$num_put@GV?$ostreambuf_iterator@GU?$char_traits@G@std@@@std@@@std@@2V0locale@2@A 0000000180038780     libcpmt:wlocale.obj
 0003:00001788       ?id@?$numpunct@G@std@@2V0locale@2@A 0000000180038788     libcpmt:wlocale.obj
 0003:00001790       ?id@?$collate@G@std@@2V0locale@2@A 0000000180038790     libcpmt:wlocale.obj
 0003:00001798       ?id@?$messages@G@std@@2V0locale@2@A 0000000180038798     libcpmt:wlocale.obj
 0003:000017a0       ?id@?$money_get@GV?$istreambuf_iterator@GU?$char_traits@G@std@@@std@@@std@@2V0locale@2@A 00000001800387a0     libcpmt:wlocale.obj
 0003:000017a8       ?id@?$money_put@GV?$ostreambuf_iterator@GU?$char_traits@G@std@@@std@@@std@@2V0locale@2@A 00000001800387a8     libcpmt:wlocale.obj
 0003:000017b0       ?id@?$moneypunct@G$0A@@std@@2V0locale@2@A 00000001800387b0     libcpmt:wlocale.obj
 0003:000017b8       ?id@?$moneypunct@G$00@std@@2V0locale@2@A 00000001800387b8     libcpmt:wlocale.obj
 0003:000017c0       ?id@?$time_get@GV?$istreambuf_iterator@GU?$char_traits@G@std@@@std@@@std@@2V0locale@2@A 00000001800387c0     libcpmt:wlocale.obj
 0003:000017c8       ?id@?$time_put@GV?$ostreambuf_iterator@GU?$char_traits@G@std@@@std@@@std@@2V0locale@2@A 00000001800387c8     libcpmt:wlocale.obj
 0003:000017d0       ?id@?$collate@D@std@@2V0locale@2@A 00000001800387d0     libcpmt:xlocale.obj
 0003:000017d8       ?id@?$messages@D@std@@2V0locale@2@A 00000001800387d8     libcpmt:xlocale.obj
 0003:000017e0       ?id@?$money_get@DV?$istreambuf_iterator@DU?$char_traits@D@std@@@std@@@std@@2V0locale@2@A 00000001800387e0     libcpmt:xlocale.obj
 0003:000017e8       ?id@?$money_put@DV?$ostreambuf_iterator@DU?$char_traits@D@std@@@std@@@std@@2V0locale@2@A 00000001800387e8     libcpmt:xlocale.obj
 0003:000017f0       ?id@?$moneypunct@D$0A@@std@@2V0locale@2@A 00000001800387f0     libcpmt:xlocale.obj
 0003:000017f8       ?id@?$moneypunct@D$00@std@@2V0locale@2@A 00000001800387f8     libcpmt:xlocale.obj
 0003:00001800       ?id@?$time_get@DV?$istreambuf_iterator@DU?$char_traits@D@std@@@std@@@std@@2V0locale@2@A 0000000180038800     libcpmt:xlocale.obj
 0003:00001808       ?id@?$time_put@DV?$ostreambuf_iterator@DU?$char_traits@D@std@@@std@@@std@@2V0locale@2@A 0000000180038808     libcpmt:xlocale.obj
 0003:00001858       __scrt_current_native_startup_state 0000000180038858     LIBCMT:utility.obj
 0003:00001860       __scrt_native_startup_lock 0000000180038860     LIBCMT:utility.obj
 0003:00001e10       __scrt_debugger_hook_flag  0000000180038e10     LIBCMT:utility_desktop.obj
 0003:00001e14       _tls_index                 0000000180038e14     LIBCMT:tlssup.obj
 0003:00001e18       __favor                    0000000180038e18     LIBCMT:_cpu_disp_.obj
 0003:00001e20       ?__type_info_root_node@@3U__type_info_node@@A 0000000180038e20     LIBCMT:tncleanup.obj
 0003:00001e30       ?_OptionsStorage@?1??__local_stdio_scanf_options@@9@4_KA 0000000180038e30     LIBCMT:default_local_stdio_options.obj
 0003:00001e38       ?g_OutOfMemoryExceptionCallback@@3P6APEAXXZEA 0000000180038e38     libvcruntime:frame.obj
 0003:00001ea8       __pPurecall                0000000180038ea8     libvcruntime:purevirt_data.obj
 0003:00001f58       ?pArgList@UnDecorator@@0PEAVReplicator@@EA 0000000180038f58     libvcruntime:undname.obj
 0003:00001f60       ?pZNameList@UnDecorator@@0PEAVReplicator@@EA 0000000180038f60     libvcruntime:undname.obj
 0003:00001f68       ?pTemplateArgList@UnDecorator@@0PEAVReplicator@@EA 0000000180038f68     libvcruntime:undname.obj
 0003:00001f70       ?gName@UnDecorator@@0PEBDEB 0000000180038f70     libvcruntime:undname.obj
 0003:00001f78       ?name@UnDecorator@@0PEBDEB 0000000180038f78     libvcruntime:undname.obj
 0003:00001f80       ?outputString@UnDecorator@@0PEADEA 0000000180038f80     libvcruntime:undname.obj
 0003:00001f88       ?maxStringLength@UnDecorator@@0HA 0000000180038f88     libvcruntime:undname.obj
 0003:00001f8c       ?disableFlags@UnDecorator@@0KA 0000000180038f8c     libvcruntime:undname.obj
 0003:00001f90       ?fExplicitTemplateParams@UnDecorator@@0_NA 0000000180038f90     libvcruntime:undname.obj
 0003:00001f91       ?fGetTemplateArgumentList@UnDecorator@@0_NA 0000000180038f91     libvcruntime:undname.obj
 0003:00001f98       ?m_pGetParameter@UnDecorator@@0P6APEADJ@ZEA 0000000180038f98     libvcruntime:undname.obj
 0003:00001fd0       _nstream                   0000000180038fd0     libucrt:_file.obj
 0003:00001fd8       __piob                     0000000180038fd8     libucrt:_file.obj
 0003:00001fe0       _cflush                    0000000180038fe0     libucrt:_file.obj
 0003:000021fc       __acrt_lconv_static_null   00000001800391fc     libucrt:localeconv.obj
 0003:00002200       __acrt_lconv_static_W_null 0000000180039200     libucrt:localeconv.obj
 0003:00002338       _environ_table             0000000180039338     libucrt:environment_initialization.obj
 0003:00002340       _wenviron_table            0000000180039340     libucrt:environment_initialization.obj
 0003:00002348       __dcrt_initial_wide_environment 0000000180039348     libucrt:environment_initialization.obj
 0003:00002350       __dcrt_initial_narrow_environment 0000000180039350     libucrt:environment_initialization.obj
 0003:00002358       __acrt_atexit_table        0000000180039358     libucrt:onexit.obj
 0003:00002370       __acrt_at_quick_exit_table 0000000180039370     libucrt:onexit.obj
 0003:00002388       __acrt_locale_changed_data 0000000180039388     libucrt:wsetlocale.obj
 0003:00002390       __acrt_current_locale_data 0000000180039390     libucrt:nlsdata.obj
 0003:00002550       __pioinfo                  0000000180039550     libucrt:ioinit.obj
 0003:00002950       _nhandle                   0000000180039950     libucrt:ioinit.obj
 0003:00002958       __acrt_stdout_buffer       0000000180039958     libucrt:_sftbuf.obj
 0003:00002960       __acrt_stderr_buffer       0000000180039960     libucrt:_sftbuf.obj
 0003:00002970       __acrt_heap                0000000180039970     libucrt:heap_handle.obj
 0003:00002998       __fma3_is_available        0000000180039998     libucrt:fma3_available.obj
 0003:0000299c       __use_fma3_lib             000000018003999c     libucrt:fma3_available.obj
 0003:000029a0       ?_timezone@@3V?$dual_state_global@J@__crt_state_management@@A 00000001800399a0     libucrt:timeset.obj
 0003:000029a4       ?_daylight@@3V?$dual_state_global@H@__crt_state_management@@A 00000001800399a4     libucrt:timeset.obj
 0003:000029a8       ?_dstbias@@3V?$dual_state_global@J@__crt_state_management@@A 00000001800399a8     libucrt:timeset.obj
 0003:00002a7c       __mbcodepage               0000000180039a7c     libucrt:mbctype.obj
 0003:00002a80       __ismbcodepage             0000000180039a80     libucrt:mbctype.obj
 0003:00002a88       __mbulinfo                 0000000180039a88     libucrt:mbctype.obj
 0003:00002a98       __mblocalename             0000000180039a98     libucrt:mbctype.obj
 0003:00002aa4       __argc                     0000000180039aa4     libucrt:argv_data.obj
 0003:00002aa8       __argv                     0000000180039aa8     libucrt:argv_data.obj
 0003:00002ab0       __wargv                    0000000180039ab0     libucrt:argv_data.obj
 0003:00002ab8       _acmdln                    0000000180039ab8     libucrt:argv_data.obj
 0003:00002ac0       _wcmdln                    0000000180039ac0     libucrt:argv_data.obj
 0003:00002ac8       _pgmptr                    0000000180039ac8     libucrt:argv_data.obj
 0003:00002ae0       ?DloadKernel32@@3PEAUHINSTANCE__@@EA 0000000180039ae0     DelayImp:delayhlp.obj
 0003:00002ae8       ?DloadAcquireSRWLockExclusive@@3P6AXPEA_K@ZEA 0000000180039ae8     DelayImp:delayhlp.obj
 0003:00002af0       ?DloadReleaseSRWLockExclusive@@3P6AXPEA_K@ZEA 0000000180039af0     DelayImp:delayhlp.obj
 0003:00002af8       ?DloadSrwLock@@3_KA        0000000180039af8     DelayImp:delayhlp.obj
 0003:00002b00       ?DloadSectionLockCount@@3KA 0000000180039b00     DelayImp:delayhlp.obj
 0003:00002b04       ?DloadSectionOldProtection@@3KA 0000000180039b04     DelayImp:delayhlp.obj
 0003:00002b08       ?DloadSectionCommitPermanent@@3KA 0000000180039b08     DelayImp:delayhlp.obj
 0003:00002b10       ?count@Node@@2IA           0000000180039b10     familyTree.obj
 0003:00002b18       ?root@@3VfamilyTree@@A     0000000180039b18     familyTree.obj
 0003:00002b20       ?$TSS0@?1???$_Immortalize@V_Iostream_error_category@std@@@std@@YAAEAV_Iostream_error_category@1@XZ@4HA 0000000180039b20     familyTree.obj
 0003:00002b28       ?_Static@?1???$_Immortalize@V_Iostream_error_category@std@@@std@@YAAEAV_Iostream_error_category@1@XZ@4U?$_Immortalizer@V_Iostream_error_category@std@@@1@A 0000000180039b28     familyTree.obj
 0003:00002b38       __dyn_tls_init_callback    0000000180039b38     <common>
 0003:00002b40       __scrt_ucrt_dll_is_in_use  0000000180039b40     <common>
 0006:00000000       _tls_start                 000000018003d000     LIBCMT:tlssup.obj
 0006:00000004       _Init_thread_epoch         000000018003d004     LIBCMT:thread_safe_statics.obj
 0006:00000008       _tls_end                   000000018003d008     LIBCMT:tlssup.obj

 entry point at        0001:0000a5ec

 Static symbols

 0000:fffc0000       .debug$S                   0000000180000000     node:node.exe
 0000:fffc0000       .debug$S                   0000000180000000     node:node.exe
 0000:fffc0000       .debug$S                   0000000180000000     node:node.exe
 0000:fffc0000       .debug$S                   0000000180000000     node:node.exe
 0000:fffc0000       .debug$S                   0000000180000000     node:node.exe
 0000:fffc0000       .debug$S                   0000000180000000     node:node.exe
 0000:fffc0000       .debug$S                   0000000180000000     node:node.exe
 0000:fffc0000       .debug$S                   0000000180000000     node:node.exe
 0000:fffc0000       .debug$S                   0000000180000000     node:node.exe
 0000:fffc0000       .debug$S                   0000000180000000     node:node.exe
 0000:fffc0000       .debug$S                   0000000180000000     node:node.exe
 0000:fffc0000       .debug$S                   0000000180000000     node:node.exe
 0000:fffc0000       .debug$S                   0000000180000000     node:node.exe
 0000:fffc0000       .debug$S                   0000000180000000     kernel32:KERNEL32.dll
 0000:fffc0000       .debug$S                   0000000180000000     kernel32:KERNEL32.dll
 0000:fffc0000       .debug$S                   0000000180000000     kernel32:KERNEL32.dll
 0000:fffc0000       .debug$S                   0000000180000000     kernel32:KERNEL32.dll
 0000:fffc0000       .debug$S                   0000000180000000     kernel32:KERNEL32.dll
 0000:fffc0000       .debug$S                   0000000180000000     kernel32:KERNEL32.dll
 0000:fffc0000       .debug$S                   0000000180000000     kernel32:KERNEL32.dll
 0000:fffc0000       .debug$S                   0000000180000000     kernel32:KERNEL32.dll
 0000:fffc0000       .debug$S                   0000000180000000     kernel32:KERNEL32.dll
 0000:fffc0000       .debug$S                   0000000180000000     kernel32:KERNEL32.dll
 0000:fffc0000       .debug$S                   0000000180000000     kernel32:KERNEL32.dll
 0000:fffc0000       .debug$S                   0000000180000000     kernel32:KERNEL32.dll
 0000:fffc0000       .debug$S                   0000000180000000     kernel32:KERNEL32.dll
 0000:fffc0000       .debug$S                   0000000180000000     kernel32:KERNEL32.dll
 0000:fffc0000       .debug$S                   0000000180000000     kernel32:KERNEL32.dll
 0000:fffc0000       .debug$S                   0000000180000000     kernel32:KERNEL32.dll
 0000:fffc0000       .debug$S                   0000000180000000     kernel32:KERNEL32.dll
 0000:fffc0000       .debug$S                   0000000180000000     kernel32:KERNEL32.dll
 0000:fffc0000       .debug$S                   0000000180000000     kernel32:KERNEL32.dll
 0000:fffc0000       .debug$S                   0000000180000000     kernel32:KERNEL32.dll
 0000:fffc0000       .debug$S                   0000000180000000     kernel32:KERNEL32.dll
 0000:fffc0000       .debug$S                   0000000180000000     kernel32:KERNEL32.dll
 0000:fffc0000       .debug$S                   0000000180000000     kernel32:KERNEL32.dll
 0000:fffc0000       .debug$S                   0000000180000000     kernel32:KERNEL32.dll
 0000:fffc0000       .debug$S                   0000000180000000     kernel32:KERNEL32.dll
 0000:fffc0000       .debug$S                   0000000180000000     kernel32:KERNEL32.dll
 0000:fffc0000       .debug$S                   0000000180000000     kernel32:KERNEL32.dll
 0000:fffc0000       .debug$S                   0000000180000000     kernel32:KERNEL32.dll
 0000:fffc0000       .debug$S                   0000000180000000     kernel32:KERNEL32.dll
 0000:fffc0000       .debug$S                   0000000180000000     kernel32:KERNEL32.dll
 0000:fffc0000       .debug$S                   0000000180000000     kernel32:KERNEL32.dll
 0000:fffc0000       .debug$S                   0000000180000000     kernel32:KERNEL32.dll
 0000:fffc0000       .debug$S                   0000000180000000     kernel32:KERNEL32.dll
 0000:fffc0000       .debug$S                   0000000180000000     kernel32:KERNEL32.dll
 0000:fffc0000       .debug$S                   0000000180000000     kernel32:KERNEL32.dll
 0000:fffc0000       .debug$S                   0000000180000000     kernel32:KERNEL32.dll
 0000:fffc0000       .debug$S                   0000000180000000     kernel32:KERNEL32.dll
 0000:fffc0000       .debug$S                   0000000180000000     kernel32:KERNEL32.dll
 0000:fffc0000       .debug$S                   0000000180000000     kernel32:KERNEL32.dll
 0000:fffc0000       .debug$S                   0000000180000000     kernel32:KERNEL32.dll
 0000:fffc0000       .debug$S                   0000000180000000     kernel32:KERNEL32.dll
 0000:fffc0000       .debug$S                   0000000180000000     kernel32:KERNEL32.dll
 0000:fffc0000       .debug$S                   0000000180000000     kernel32:KERNEL32.dll
 0000:fffc0000       .debug$S                   0000000180000000     kernel32:KERNEL32.dll
 0000:fffc0000       .debug$S                   0000000180000000     kernel32:KERNEL32.dll
 0000:fffc0000       .debug$S                   0000000180000000     kernel32:KERNEL32.dll
 0000:fffc0000       .debug$S                   0000000180000000     kernel32:KERNEL32.dll
 0000:fffc0000       .debug$S                   0000000180000000     kernel32:KERNEL32.dll
 0000:fffc0000       .debug$S                   0000000180000000     kernel32:KERNEL32.dll
 0000:fffc0000       .debug$S                   0000000180000000     kernel32:KERNEL32.dll
 0000:fffc0000       .debug$S                   0000000180000000     kernel32:KERNEL32.dll
 0000:fffc0000       .debug$S                   0000000180000000     kernel32:KERNEL32.dll
 0000:fffc0000       .debug$S                   0000000180000000     kernel32:KERNEL32.dll
 0000:fffc0000       .debug$S                   0000000180000000     kernel32:KERNEL32.dll
 0000:fffc0000       .debug$S                   0000000180000000     node:node.exe
 0000:fffc0000       .debug$S                   0000000180000000     kernel32:KERNEL32.dll
 0000:fffc0000       .debug$S                   0000000180000000     kernel32:KERNEL32.dll
 0000:fffc0000       .debug$S                   0000000180000000     kernel32:KERNEL32.dll
 0000:fffc0000       .debug$S                   0000000180000000     kernel32:KERNEL32.dll
 0000:fffc0000       .debug$S                   0000000180000000     kernel32:KERNEL32.dll
 0000:fffc0000       .debug$S                   0000000180000000     kernel32:KERNEL32.dll
 0000:fffc0000       .debug$S                   0000000180000000     kernel32:KERNEL32.dll
 0000:fffc0000       .debug$S                   0000000180000000     kernel32:KERNEL32.dll
 0000:fffc0000       .debug$S                   0000000180000000     kernel32:KERNEL32.dll
 0000:fffc0000       .debug$S                   0000000180000000     kernel32:KERNEL32.dll
 0000:fffc0000       .debug$S                   0000000180000000     kernel32:KERNEL32.dll
 0000:fffc0000       .debug$S                   0000000180000000     kernel32:KERNEL32.dll
 0000:fffc0000       .debug$S                   0000000180000000     kernel32:KERNEL32.dll
 0000:fffc0000       .debug$S                   0000000180000000     kernel32:KERNEL32.dll
 0000:fffc0000       .debug$S                   0000000180000000     kernel32:KERNEL32.dll
 0000:fffc0000       .debug$S                   0000000180000000     kernel32:KERNEL32.dll
 0000:fffc0000       .debug$S                   0000000180000000     kernel32:KERNEL32.dll
 0000:fffc0000       .debug$S                   0000000180000000     kernel32:KERNEL32.dll
 0000:fffc0000       .debug$S                   0000000180000000     kernel32:KERNEL32.dll
 0000:fffc0000       .debug$S                   0000000180000000     kernel32:KERNEL32.dll
 0000:fffc0000       .debug$S                   0000000180000000     kernel32:KERNEL32.dll
 0000:fffc0000       .debug$S                   0000000180000000     kernel32:KERNEL32.dll
 0000:fffc0000       .debug$S                   0000000180000000     kernel32:KERNEL32.dll
 0000:fffc0000       .debug$S                   0000000180000000     kernel32:KERNEL32.dll
 0000:fffc0000       .debug$S                   0000000180000000     kernel32:KERNEL32.dll
 0000:fffc0000       .debug$S                   0000000180000000     kernel32:KERNEL32.dll
 0000:fffc0000       .debug$S                   0000000180000000     kernel32:KERNEL32.dll
 0000:fffc0000       .debug$S                   0000000180000000     kernel32:KERNEL32.dll
 0000:fffc0000       .debug$S                   0000000180000000     kernel32:KERNEL32.dll
 0000:fffc0000       .debug$S                   0000000180000000     kernel32:KERNEL32.dll
 0000:fffc0000       .debug$S                   0000000180000000     kernel32:KERNEL32.dll
 0000:fffc0000       .debug$S                   0000000180000000     kernel32:KERNEL32.dll
 0000:fffc0000       .debug$S                   0000000180000000     kernel32:KERNEL32.dll
 0000:fffc0000       .debug$S                   0000000180000000     kernel32:KERNEL32.dll
 0000:fffc0000       .debug$S                   0000000180000000     kernel32:KERNEL32.dll
 0000:fffc0000       .debug$S                   0000000180000000     kernel32:KERNEL32.dll
 0000:fffc0000       .debug$S                   0000000180000000     kernel32:KERNEL32.dll
 0000:fffc0000       .debug$S                   0000000180000000     kernel32:KERNEL32.dll
 0000:fffc0000       .debug$S                   0000000180000000     kernel32:KERNEL32.dll
 0000:fffc0000       .debug$S                   0000000180000000     kernel32:KERNEL32.dll
 0000:fffc0000       .debug$S                   0000000180000000     kernel32:KERNEL32.dll
 0000:fffc0000       .debug$S                   0000000180000000     kernel32:KERNEL32.dll
 0000:fffc0000       .debug$S                   0000000180000000     kernel32:KERNEL32.dll
 0000:fffc0000       .debug$S                   0000000180000000     kernel32:KERNEL32.dll
 0000:fffc0000       .debug$S                   0000000180000000     kernel32:KERNEL32.dll
 0000:fffc0000       .debug$S                   0000000180000000     kernel32:KERNEL32.dll
 0000:fffc0000       .debug$S                   0000000180000000     kernel32:KERNEL32.dll
 0000:fffc0000       .debug$S                   0000000180000000     kernel32:KERNEL32.dll
 0000:fffc0000       .debug$S                   0000000180000000     familyTree.exp
 0000:fffc0000       .debug$S                   0000000180000000     node:node.exe
 0000:fffc0000       .debug$S                   0000000180000000     node:node.exe
 0000:fffc0000       .debug$S                   0000000180000000     node:node.exe
 0000:fffc0000       .debug$S                   0000000180000000     node:node.exe
 0001:00000000       ??__Eroot@@YAXXZ           0000000180001000 f   familyTree.obj
 0001:0000001c       ??__Ecout@std@@YAXXZ       000000018000101c f   libcpmt:cout.obj
 0001:0000004c       ??__Efout@std@@YAXXZ       000000018000104c f   libcpmt:cout.obj
 0001:0000009c       ??__Einit_cout@std@@YAXXZ  000000018000109c f   libcpmt:cout.obj
 0001:000000a8       ??__Einitlocks@@YAXXZ      00000001800010a8 f   libcpmt:cout.obj
 0001:000000c8       ??__Einitlocks@std@@YAXXZ  00000001800010c8 f   libcpmt:xlock.obj
 0001:000000e8       ??__E_Fac_tidy_reg@std@@YAXXZ 00000001800010e8 f   libcpmt:locale0.obj
 0001:000000f4       ??__Eclassic_locale@std@@YAXXZ 00000001800010f4 f   libcpmt:locale0.obj
 0001:00000100       ??__Einit_atexit@@YAXXZ    0000000180001100 f   libcpmt:iosptrs.obj
 0001:0000010c       ??__Einitlocks@std@@YAXXZ  000000018000110c f   libcpmt:iosptrs.obj
 0001:00004390       $LN4163                    0000000180005390     familyTree.obj
 0001:000043d0       _register_familyTree       00000001800053d0 f   familyTree.obj
 0001:000063a0       ?load_exe_hook@@YAP6A_JXZIPEAUDelayLoadInfo@@@Z 00000001800073a0 f   win_delay_load_hook.obj
 0001:00007e88       no_op_initialize           0000000180008e88 f i libucrt:wsetlocale.obj
 0001:00008f60       tidy_global                0000000180009f60 f   libcpmt:locale0.obj
 0001:00009434       ?initialize_pointers@@YAHXZ 000000018000a434 f   libcpmt:winapisupp.obj
 0001:00009b40       $$000000                   000000018000ab40     LIBCMT:_amdsecgs_.obj
 0001:00009b74       ?__scrt_initialize_thread_safe_statics@@YAHXZ 000000018000ab74 f   LIBCMT:thread_safe_statics.obj
 0001:00009c94       ?__scrt_uninitialize_thread_safe_statics@@YAXXZ 000000018000ac94 f   LIBCMT:thread_safe_statics.obj
 0001:0000a2a0       ?dllmain_crt_dispatch@@YAHQEAUHINSTANCE__@@KQEAX@Z 000000018000b2a0 f   LIBCMT:dll_dllmain.obj
 0001:0000a2f0       ?dllmain_crt_process_attach@@YAHQEAUHINSTANCE__@@QEAX@Z 000000018000b2f0 f   LIBCMT:dll_dllmain.obj
 0001:0000a41c       ?dllmain_crt_process_detach@@YAH_N@Z 000000018000b41c f   LIBCMT:dll_dllmain.obj
 0001:0000a4a0       ?dllmain_dispatch@@YAHQEAUHINSTANCE__@@KQEAX@Z 000000018000b4a0 f   LIBCMT:dll_dllmain.obj
 0001:0000a598       ?dllmain_raw@@YAHQEAUHINSTANCE__@@KQEAX@Z 000000018000b598 f   LIBCMT:dll_dllmain.obj
 0001:0000a760       $$000000                   000000018000b760     LIBCMT:_chkstk_.obj
 0001:0000a97c       capture_current_context    000000018000b97c f   LIBCMT:gs_report.obj
 0001:0000a9ec       capture_previous_context   000000018000b9ec f   LIBCMT:gs_report.obj
 0001:0000afc0       $$000000                   000000018000bfc0     libvcruntime:memcpy.obj
 0001:0000b067       MoveSmall                  000000018000c067     libvcruntime:memcpy.obj
 0001:0000b52c       ?CatchIt@@YAXPEAUEHExceptionRecord@@PEA_KPEAU_CONTEXT@@PEAU_xDISPATCHER_CONTEXT@@PEBU_s_FuncInfo@@PEBU_s_HandlerType@@PEBU_s_CatchableType@@PEBU_s_TryBlockMapEntry@@H1EE@Z 000000018000c52c f   libvcruntime:frame.obj
 0001:0000b5f0       ?ExFilterRethrow@@YAHPEAU_EXCEPTION_POINTERS@@PEAUEHExceptionRecord@@PEAH@Z 000000018000c5f0 f   libvcruntime:frame.obj
 0001:0000b678       ?FindHandler@@YAXPEAUEHExceptionRecord@@PEA_KPEAU_CONTEXT@@PEAU_xDISPATCHER_CONTEXT@@PEBU_s_FuncInfo@@EH1@Z 000000018000c678 f   libvcruntime:frame.obj
 0001:0000bb48       ?FindHandlerForForeignException@@YAXPEAUEHExceptionRecord@@PEA_KPEAU_CONTEXT@@PEAU_xDISPATCHER_CONTEXT@@PEBU_s_FuncInfo@@HH1@Z 000000018000cb48 f   libvcruntime:frame.obj
 0001:0000bdb4       ?IsInExceptionSpec@@YAEPEAUEHExceptionRecord@@PEBU_s_ESTypeList@@@Z 000000018000cdb4 f   libvcruntime:frame.obj
 0001:0000d120       $$000000                   000000018000e120     libvcruntime:memset.obj
 0001:0000d20c       MsetTab                    000000018000e20c     libvcruntime:memset.obj
 0001:0000d2d0       $$000000                   000000018000e2d0     libvcruntime:memcmp.obj
 0001:0000d3a8       ?try_get_function@@YAPEAXW4function_id@?A0x679b24ab@@QEBDQEBW4module_id@2@2@Z 000000018000e3a8 f   libvcruntime:winapi_downlevel.obj
 0001:0000dd90       $$000000                   000000018000ed90     libvcruntime:handlers.obj
 0001:0000dde0       $$000000                   000000018000ede0     libvcruntime:_jmpuwind_.obj
 0001:0000e7d0       common_flush_all           000000018000f7d0 f   libucrt:fflush.obj
 0001:0000ebe4       ?common_fseek@@YAHV__crt_stdio_stream@@_JH@Z 000000018000fbe4 f   libucrt:fseek.obj
 0001:0000ec50       ?common_fseek_binary_mode_read_only_fast_track_nolock@@YA_NV__crt_stdio_stream@@_JH@Z 000000018000fc50 f   libucrt:fseek.obj
 0001:0000ed60       ?common_fseek_nolock@@YAHV__crt_stdio_stream@@_JH@Z 000000018000fd60 f   libucrt:fseek.obj
 0001:0000eea0       ??R<lambda_532e024f4337e6fc7ad266c2bef9f4ed>@@QEBA_KXZ 000000018000fea0 f   libucrt:fwrite.obj
 0001:0000f164       ??R<lambda_b721fa326cdb32351d23dfa67958c160>@@QEBAHXZ 0000000180010164 f   libucrt:setvbuf.obj
 0001:0000fd90       call_wsetlocale            0000000180010d90 f   libucrt:setlocale.obj
 0001:000101e0       $$000000                   00000001800111e0     libucrt:pow.obj
 0001:00011880       $$000000                   0000000180012880     libucrt:powf.obj
 0001:000129a0       ?x_ismbbtype_l@@YAHPEAU__crt_locale_pointers@@IHH@Z 00000001800139a0 f   libucrt:ismbbyte.obj
 0001:00012a2c       ?internal_isupper_l@@YA_NHQEAU__crt_locale_pointers@@@Z 0000000180013a2c f   libucrt:tolower_toupper.obj
 0001:00012ddc       ?atexit_exception_filter@@YAHK@Z 0000000180013ddc f   libucrt:exit.obj
 0001:00012de8       ?common_exit@@YAXHW4_crt_exit_cleanup_mode@@W4_crt_exit_return_mode@@@Z 0000000180013de8 f   libucrt:exit.obj
 0001:00012f54       ?exit_or_terminate_process@@YAXI@Z 0000000180013f54 f   libucrt:exit.obj
 0001:00012fa0       ?try_cor_exit_process@@YAXI@Z 0000000180013fa0 f   libucrt:exit.obj
 0001:00013038       ??$parse_command_line@D@@YAXPEADPEAPEAD0PEA_K2@Z 0000000180014038 f   libucrt:argv_parsing.obj
 0001:000133d0       ??$common_initialize_environment_nolock@D@@YAHXZ 00000001800143d0 f   libucrt:environment_initialization.obj
 0001:0001343c       ??$create_environment@D@@YAQEAPEADQEAD@Z 000000018001443c f   libucrt:environment_initialization.obj
 0001:00013538       ??$free_environment@D@@YAXQEAPEAD@Z 0000000180014538 f   libucrt:environment_initialization.obj
 0001:00013538       ??$free_environment@_W@@YAXQEAPEA_W@Z 0000000180014538 f   libucrt:environment_initialization.obj
 0001:0001357c       ??$uninitialize_environment_internal@D@@YAXAEAPEAPEAD@Z 000000018001457c f   libucrt:environment_initialization.obj
 0001:00013598       ??$uninitialize_environment_internal@_W@@YAXAEAPEAPEA_W@Z 0000000180014598 f   libucrt:environment_initialization.obj
 0001:000137d0       ??R<lambda_4e60a939b0d047cfe11ddc22648dfba9>@@QEBAHXZ 00000001800147d0 f   libucrt:onexit.obj
 0001:00013a80       initialize_global_variables 0000000180014a80 f   libucrt:initialization.obj
 0001:00013a94       initialize_c               0000000180014a94 f   libucrt:initialization.obj
 0001:00013ab8       uninitialize_environment   0000000180014ab8 f   libucrt:initialization.obj
 0001:00013ac8       initialize_global_state_isolation 0000000180014ac8 f   libucrt:initialization.obj
 0001:00013ac8       uninitialize_c             0000000180014ac8 f   libucrt:initialization.obj
 0001:00013ac8       uninitialize_global_state_isolation 0000000180014ac8 f   libucrt:initialization.obj
 0001:00013ac8       report_memory_leaks        0000000180014ac8 f   libucrt:initialization.obj
 0001:00013ac8       initialize_environment     0000000180014ac8 f   libucrt:initialization.obj
 0001:00013acc       initialize_pointers        0000000180014acc f   libucrt:initialization.obj
 0001:00013b20       uninitialize_vcruntime     0000000180014b20 f   libucrt:initialization.obj
 0001:00013b28       uninitialize_allocated_memory 0000000180014b28 f   libucrt:initialization.obj
 0001:000145c8       ?construct_ptd_array@@YAXQEAU__acrt_ptd@@@Z 00000001800155c8 f   libucrt:per_thread_data.obj
 0001:00014698       ?destroy_fls@@YAXPEAX@Z    0000000180015698 f   libucrt:per_thread_data.obj
 0001:000146b8       ?destroy_ptd_array@@YAXQEAU__acrt_ptd@@@Z 00000001800156b8 f   libucrt:per_thread_data.obj
 0001:000147b0       ?replace_current_thread_locale_nolock@@YAXQEAU__acrt_ptd@@QEAU__crt_locale_data@@@Z 00000001800157b0 f   libucrt:per_thread_data.obj
 0001:00014bc0       ??R<lambda_2af78c5f5901b1372d98f9ab3177dfa6>@@QEBAXXZ 0000000180015bc0 f   libucrt:wsetlocale.obj
 0001:00014f84       _copytlocinfo_nolock       0000000180015f84 f   libucrt:wsetlocale.obj
 0001:00015544       _wsetlocale_get_all        0000000180016544 f   libucrt:wsetlocale.obj
 0001:0001572c       _wsetlocale_nolock         000000018001672c f   libucrt:wsetlocale.obj
 0001:000159b4       _wsetlocale_set_cat        00000001800169b4 f   libucrt:wsetlocale.obj
 0001:00015cf4       ?<helper_func_cdecl>@<lambda_e2bb8337c48846e80c921ea5ddadc92d>@@CAHPEA_W@Z 0000000180016cf4 f   libucrt:winapi_thunks.obj
 0001:00015dd0       ?try_get_function@@YAPEAXW4function_id@?A0x63058377@@QEBDQEBW4module_id@2@2@Z 0000000180016dd0 f   libucrt:winapi_thunks.obj
 0001:00016780       ?initialize_inherited_file_handles_nolock@@YAXXZ 0000000180017780 f   libucrt:ioinit.obj
 0001:0001686c       ?initialize_stdio_handles_nolock@@YAXXZ 000000018001786c f   libucrt:ioinit.obj
 0001:00016d44       ?write_double_translated_ansi_nolock@@YA?AUwrite_result@?A0x9c548279@@HQEBDI@Z 0000000180017d44 f   libucrt:write.obj
 0001:00016f4c       ?write_text_ansi_nolock@@YA?AUwrite_result@?A0x9c548279@@HQEBDI@Z 0000000180017f4c f   libucrt:write.obj
 0001:00017054       ?write_text_utf16le_nolock@@YA?AUwrite_result@?A0x9c548279@@HQEBDI@Z 0000000180018054 f   libucrt:write.obj
 0001:00017170       ?write_text_utf8_nolock@@YA?AUwrite_result@?A0x9c548279@@HQEBDI@Z 0000000180018170 f   libucrt:write.obj
 0001:000176b4       ??$common_refill_and_read_nolock@D@@YAHV__crt_stdio_stream@@@Z 00000001800186b4 f   libucrt:_filbuf.obj
 0001:00017864       ??$common_ftell@_J@@YA_JV__crt_stdio_stream@@@Z 0000000180018864 f   libucrt:ftell.obj
 0001:000178b8       ??$common_ftell_nolock@_J@@YA_JV__crt_stdio_stream@@@Z 00000001800188b8 f   libucrt:ftell.obj
 0001:00017a30       ?common_ftell_read_mode_nolock@@YA_JV__crt_stdio_stream@@_J1@Z 0000000180018a30 f   libucrt:ftell.obj
 0001:00017ba8       ?common_ftell_translated_utf8_nolock@@YA_JV__crt_stdio_stream@@_J@Z 0000000180018ba8 f   libucrt:ftell.obj
 0001:00017d30       ??$write_buffer_nolock@D@@YA_NDV__crt_stdio_stream@@@Z 0000000180018d30 f   libucrt:_flsbuf.obj
 0001:00017f1c       ??$common_lseek@_J@@YA_JH_JH@Z 0000000180018f1c f   libucrt:lseek.obj
 0001:0001800c       ??$common_lseek_nolock@_J@@YA_JH_JH@Z 000000018001900c f   libucrt:lseek.obj
 0001:00018368       ?InternalGetLocaleInfoA@@YAHQEAU__crt_locale_pointers@@QEB_WKQEADH@Z 0000000180019368 f   libucrt:getlocaleinfoa.obj
 0001:00018884       ?__acrt_LCMapStringA_stat@@YAHPEAU__crt_locale_pointers@@PEB_WKPEBDHPEADHHH@Z 0000000180019884 f   libucrt:lcmapstringa.obj
 0001:00018c78       ?_mbstowcs_l_helper@@YA_KPEA_WPEBD_KPEAU__crt_locale_pointers@@@Z 0000000180019c78 f   libucrt:mbstowcs.obj
 0001:00018fa4       ?_wcstombs_l_helper@@YA_KPEADPEB_W_KPEAU__crt_locale_pointers@@@Z 0000000180019fa4 f   libucrt:wcstombs.obj
 0001:0001a228       ?<helper_func_cdecl>@<lambda_2feae5270eb4d0d5532525f423405775>@@CAHPEBX0@Z 000000018001b228 f   libucrt:argv_wildcards.obj
 0001:0001a23c       ??$common_expand_argv_wildcards@D@@YAHQEAPEADQEAPEAPEAD@Z 000000018001b23c f   libucrt:argv_wildcards.obj
 0001:0001a448       ??$copy_and_add_argument_to_buffer@D@@YAHQEBD0_KAEAV?$argument_list@D@?A0xca0879c4@@@Z 000000018001b448 f   libucrt:argv_wildcards.obj
 0001:0001a558       ??$expand_argument_wildcards@D@@YAHQEAD0AEAV?$argument_list@D@?A0xca0879c4@@@Z 000000018001b558 f   libucrt:argv_wildcards.obj
 0001:0001a80c       ??R<lambda_ad1ced32f4ac17aa236e5ef05d6b3b7c>@@QEBAXXZ 000000018001b80c f   libucrt:mbctype.obj
 0001:0001aa24       ?getSystemCP@@YAHH@Z       000000018001ba24 f   libucrt:mbctype.obj
 0001:0001aaa4       ?setSBCS@@YAXPEAU__crt_multibyte_data@@@Z 000000018001baa4 f   libucrt:mbctype.obj
 0001:0001ab34       ?setSBUpLow@@YAXPEAU__crt_multibyte_data@@@Z 000000018001bb34 f   libucrt:mbctype.obj
 0001:0001ad18       ?setmbcp_internal@@YAHH_N@Z 000000018001bd18 f   libucrt:mbctype.obj
 0001:0001c31c       ?free_crt_array_internal@@YAXQEAPEBX_K@Z 000000018001d31c f   libucrt:inittime.obj
 0001:0001c374       ?initialize_lc_time@@YA_NQEAU__crt_lc_time_data@@QEAU__crt_locale_data@@@Z 000000018001d374 f   libucrt:inittime.obj
 0001:0001ca64       GetLocaleNameFromDefault   000000018001da64 f   libucrt:get_qualified_locale.obj
 0001:0001cb0c       GetLocaleNameFromLangCountry 000000018001db0c f   libucrt:get_qualified_locale.obj
 0001:0001cbdc       GetLocaleNameFromLanguage  000000018001dbdc f   libucrt:get_qualified_locale.obj
 0001:0001cc78       LangCountryEnumProcEx      000000018001dc78 f   libucrt:get_qualified_locale.obj
 0001:0001d02c       LanguageEnumProcEx         000000018001e02c f   libucrt:get_qualified_locale.obj
 0001:0001d118       ProcessCodePage            000000018001e118 f   libucrt:get_qualified_locale.obj
 0001:0001d1cc       TestDefaultCountry         000000018001e1cc f   libucrt:get_qualified_locale.obj
 0001:0001d234       TranslateName              000000018001e234 f   libucrt:get_qualified_locale.obj
 0001:0001d4f0       CountryEnumProc            000000018001e4f0 f   libucrt:getqloc_downlevel.obj
 0001:0001d5dc       GetLcidFromLangCountry     000000018001e5dc f   libucrt:getqloc_downlevel.obj
 0001:0001d6ac       GetLcidFromLanguage        000000018001e6ac f   libucrt:getqloc_downlevel.obj
 0001:0001d744       LangCountryEnumProc        000000018001e744 f   libucrt:getqloc_downlevel.obj
 0001:0001d988       LanguageEnumProc           000000018001e988 f   libucrt:getqloc_downlevel.obj
 0001:0001da84       LcidFromHexString          000000018001ea84 f   libucrt:getqloc_downlevel.obj
 0001:0001dad4       ProcessCodePage            000000018001ead4 f   libucrt:getqloc_downlevel.obj
 0001:0001db84       TestDefaultLanguage        000000018001eb84 f   libucrt:getqloc_downlevel.obj
 0001:0001dc30       TranslateName              000000018001ec30 f   libucrt:getqloc_downlevel.obj
 0001:0001df4c       ?GetTableIndexFromLocaleName@@YAHPEB_W@Z 000000018001ef4c f   libucrt:lcidtoname_downlevel.obj
 0001:0001e504       ??$translate_text_mode_nolock@_W@@YAHHQEA_W_K@Z 000000018001f504 f   libucrt:read.obj
 0001:0001e734       ?translate_ansi_or_utf8_nolock@@YAHHQEAD_KQEA_W1@Z 000000018001f734 f   libucrt:read.obj
 0001:0001f090       $$000000                   0000000180020090     libucrt:fpsr.obj
 0001:0001f0f0       _call_matherr              00000001800200f0 f   libucrt:libm_error.obj
 0001:0001f158       _exception_enabled         0000000180020158 f   libucrt:libm_error.obj
 0001:0001f560       ?shortsort@@YAXPEAD0_KP6AHPEBX2@Z@Z 0000000180020560 f   libucrt:qsort.obj
 0001:0001faa4       ?initialize_multibyte@@YAHXZ 0000000180020aa4 f   libucrt:multibyte_initializer.obj
 0001:0001faf8       ??$common_xtox@K_W@@YAHKQEA_W_KI_N@Z 0000000180020af8 f   libucrt:xtoa.obj
 0001:0001fba4       ??$common_xtox_s@K_W@@YAHKQEA_W_KI_N@Z 0000000180020ba4 f   libucrt:xtoa.obj
 0001:0001fe90       $$000000                   0000000180020e90     libucrt:log10.obj
 0001:000204f0       _log_special_common        00000001800214f0 f   libucrt:log_special.obj
 0001:00020dc0       $$000000                   0000000180021dc0     LIBCMT:_guard_dispatch_.obj
 0001:00020de0       ?dtor$0@?0???$use_facet@V?$ctype@D@std@@@std@@YAAEBV?$ctype@D@0@AEBVlocale@0@@Z@4HA 0000000180021de0 f   libcpmt:cout.obj
 0001:00020de0       ?dtor$0@?0???$use_facet@V?$codecvt@DDU_Mbstatet@@@std@@@std@@YAAEBV?$codecvt@DDU_Mbstatet@@@0@AEBVlocale@0@@Z@4HA 0000000180021de0 f   libcpmt:cout.obj
 0001:00020dec       ?dtor$0@?0???0?$basic_ostream@DU?$char_traits@D@std@@@std@@QEAA@PEAV?$basic_streambuf@DU?$char_traits@D@std@@@1@_N@Z@4HA 0000000180021dec f   libcpmt:cout.obj
 0001:00020e16       ?dtor$0@?0???0_Locinfo@std@@QEAA@PEBD@Z@4HA 0000000180021e16 f   libcpmt:cout.obj
 0001:00020e22       ?dtor$1@?0???0_Locinfo@std@@QEAA@PEBD@Z@4HA 0000000180021e22 f   libcpmt:cout.obj
 0001:00020e32       ?dtor$2@?0???0_Locinfo@std@@QEAA@PEBD@Z@4HA 0000000180021e32 f   libcpmt:cout.obj
 0001:00020e42       ?dtor$3@?0???0_Locinfo@std@@QEAA@PEBD@Z@4HA 0000000180021e42 f   libcpmt:cout.obj
 0001:00020e52       ?dtor$4@?0???0_Locinfo@std@@QEAA@PEBD@Z@4HA 0000000180021e52 f   libcpmt:cout.obj
 0001:00020e62       ?dtor$5@?0???0_Locinfo@std@@QEAA@PEBD@Z@4HA 0000000180021e62 f   libcpmt:cout.obj
 0001:00020e72       ?dtor$6@?0???0_Locinfo@std@@QEAA@PEBD@Z@4HA 0000000180021e72 f   libcpmt:cout.obj
 0001:00020e82       ?dtor$0@?0??_Endwrite@?$basic_filebuf@DU?$char_traits@D@std@@@std@@IEAA_NXZ@4HA 0000000180021e82 f   libcpmt:cout.obj
 0001:00020e8e       ?dtor$0@?0??_Getcat@?$codecvt@DDU_Mbstatet@@@std@@SA_KPEAPEBVfacet@locale@2@PEBV42@@Z@4HA 0000000180021e8e f   libcpmt:cout.obj
 0001:00020eae       ?dtor$0@?0??_Getcat@?$ctype@D@std@@SA_KPEAPEBVfacet@locale@2@PEBV42@@Z@4HA 0000000180021eae f   libcpmt:cout.obj
 0001:00020ece       ?dtor$0@?0??uflow@?$basic_filebuf@DU?$char_traits@D@std@@@std@@MEAAHXZ@4HA 0000000180021ece f   libcpmt:cout.obj
 0001:00020ece       ?dtor$0@?0??overflow@?$basic_filebuf@DU?$char_traits@D@std@@@std@@MEAAHH@Z@4HA 0000000180021ece f   libcpmt:cout.obj
 0001:00020eda       ?dtor$0@?0??widen@?$basic_ios@DU?$char_traits@D@std@@@std@@QEBADD@Z@4HA 0000000180021eda f   libcpmt:cout.obj
 0001:00020ee6       ?dtor$0@?0??_Init@locale@std@@CAPEAV_Locimp@12@_N@Z@4HA 0000000180021ee6 f   libcpmt:locale0.obj
 0001:00020ee6       ?dtor$0@?0??_Locimp_dtor@_Locimp@locale@std@@CAXPEAV123@@Z@4HA 0000000180021ee6 f   libcpmt:locale0.obj
 0001:00020ef2       __scrt_is_nonwritable_in_current_image$filt$0 0000000180021ef2 f   LIBCMT:utility.obj
 0001:00020f0a       ?fin$0@?0??dllmain_crt_process_attach@@YAHQEAUHINSTANCE__@@QEAX@Z@4HA 0000000180021f0a f   LIBCMT:dll_dllmain.obj
 0001:00020f21       ?fin$0@?0??dllmain_crt_process_detach@@YAH_N@Z@4HA 0000000180021f21 f   LIBCMT:dll_dllmain.obj
 0001:00020f3d       ?filt$0@?0??dllmain_dispatch@@YAHQEAUHINSTANCE__@@KQEAX@Z@4HA 0000000180021f3d f   LIBCMT:dll_dllmain.obj
 0001:00020f73       __CxxCallCatchBlock$filt$0 0000000180021f73 f   libvcruntime:frame.obj
 0001:00020f98       __CxxCallCatchBlock$fin$1  0000000180021f98 f   libvcruntime:frame.obj
 0001:00021010       __DestructExceptionObject$filt$0 0000000180022010 f   libvcruntime:frame.obj
 0001:00021028       __FrameUnwindToState$filt$0 0000000180022028 f   libvcruntime:frame.obj
 0001:0002103e       __FrameUnwindToState$fin$1 000000018002203e f   libvcruntime:frame.obj
 0001:00021061       _CallSETranslator$filt$0   0000000180022061 f   libvcruntime:trnsctrl.obj
 0001:000210ad       common_flush_all$fin$0     00000001800220ad f   libucrt:fflush.obj
 0001:000210c7       common_flush_all$fin$1     00000001800220c7 f   libucrt:fflush.obj
 0001:000210e0       fclose$fin$0               00000001800220e0 f   libucrt:fclose.obj
 0001:000210e0       fflush$fin$0               00000001800220e0 f   libucrt:fflush.obj
 0001:000210f8       fgetc$fin$0                00000001800220f8 f   libucrt:fgetc.obj
 0001:00021112       fputc$fin$0                0000000180022112 f   libucrt:fputc.obj
 0001:0002112c       ?fin$0@?0??common_fseek@@YAHV__crt_stdio_stream@@_JH@Z@4HA 000000018002212c f   libucrt:fseek.obj
 0001:0002112c       ?fin$0@?0???$common_ftell@_J@@YA_JV__crt_stdio_stream@@@Z@4HA 000000018002212c f   libucrt:ftell.obj
 0001:00021146       ?fin$0@?0???$?RV<lambda_7a5ef57ff966f610505f1d28a3d40618>@@AEAV<lambda_b721fa326cdb32351d23dfa67958c160>@@V<lambda_5e0fb27672408a07956fe59e48ccb2aa>@@@?$__crt_seh_guarded_call@H@@QEAAH$$QEAV<lambda_7a5ef57ff966f610505f1d28a3d40618>@@AEAV<lambda_b721fa326cdb32351d23dfa67958c160>@@$$QEAV<lambda_5e0fb27672408a07956fe59e48ccb2aa>@@@Z@4HA 0000000180022146 f   libucrt:setvbuf.obj
 0001:00021146       ?fin$0@?0???$?RV<lambda_5d4c3fee44080f75d5d9762853974fe0>@@AEAV<lambda_532e024f4337e6fc7ad266c2bef9f4ed>@@V<lambda_c87bdc10097eb2402edb8ba9bdf0697b>@@@?$__crt_seh_guarded_call@_K@@QEAA_K$$QEAV<lambda_5d4c3fee44080f75d5d9762853974fe0>@@AEAV<lambda_532e024f4337e6fc7ad266c2bef9f4ed>@@$$QEAV<lambda_c87bdc10097eb2402edb8ba9bdf0697b>@@@Z@4HA 0000000180022146 f   libucrt:fwrite.obj
 0001:00021161       ungetc$fin$0               0000000180022161 f   libucrt:ungetc.obj
 0001:00021179       setlocale$fin$0            0000000180022179 f   libucrt:setlocale.obj
 0001:00021194       _query_new_handler$fin$0   0000000180022194 f   libucrt:new_handler.obj
 0001:000211aa       ?filt$0@?0??common_exit@@YAXHW4_crt_exit_cleanup_mode@@W4_crt_exit_return_mode@@@Z@4HA 00000001800221aa f   libucrt:exit.obj
 0001:000211c5       ?fin$1@?0??common_exit@@YAXHW4_crt_exit_cleanup_mode@@W4_crt_exit_return_mode@@@Z@4HA 00000001800221c5 f   libucrt:exit.obj
 0001:000211de       ?fin$0@?0???$?RV<lambda_e24bbb7b643b32fcea6fa61b31d4c984>@@AEAV<lambda_275893d493268fdec8709772e3fcec0e>@@V<lambda_9d71df4d7cf3f480f8d633942495c3b0>@@@?$__crt_seh_guarded_call@H@@QEAAH$$QEAV<lambda_e24bbb7b643b32fcea6fa61b31d4c984>@@AEAV<lambda_275893d493268fdec8709772e3fcec0e>@@$$QEAV<lambda_9d71df4d7cf3f480f8d633942495c3b0>@@@Z@4HA 00000001800221de f   libucrt:onexit.obj
 0001:000211fb       ?fin$0@?0???$?RV<lambda_fb3a7dec4e47f37f22dae91bb15c9095>@@AEAV<lambda_698284760c8add0bfb0756c19673e34b>@@V<lambda_dfb8eca1e75fef3034a8fb18dd509707>@@@?$__crt_seh_guarded_call@X@@QEAAX$$QEAV<lambda_fb3a7dec4e47f37f22dae91bb15c9095>@@AEAV<lambda_698284760c8add0bfb0756c19673e34b>@@$$QEAV<lambda_dfb8eca1e75fef3034a8fb18dd509707>@@@Z@4HA 00000001800221fb f   libucrt:per_thread_data.obj
 0001:000211fb       ?fin$0@?0???$?RV<lambda_d67e8342c384adda8f857579ab50b2ae>@@AEAV<lambda_30712929f77e709619002f448b6a9510>@@V<lambda_4525336fd7e478d965fb7ca7a337cad8>@@@?$__crt_seh_guarded_call@X@@QEAAX$$QEAV<lambda_d67e8342c384adda8f857579ab50b2ae>@@AEAV<lambda_30712929f77e709619002f448b6a9510>@@$$QEAV<lambda_4525336fd7e478d965fb7ca7a337cad8>@@@Z@4HA 00000001800221fb f   libucrt:wsetlocale.obj
 0001:000211fb       ?fin$0@?0???$?RV<lambda_630b2aca97f6d20d5b5ea6529ea6b6af>@@AEAV<lambda_af91936f1d075d609f72d9d8cba980af>@@V<lambda_e82fa975f615b5c7c7b0e4d178fdae67>@@@?$__crt_seh_guarded_call@H@@QEAAH$$QEAV<lambda_630b2aca97f6d20d5b5ea6529ea6b6af>@@AEAV<lambda_af91936f1d075d609f72d9d8cba980af>@@$$QEAV<lambda_e82fa975f615b5c7c7b0e4d178fdae67>@@@Z@4HA 00000001800221fb f   libucrt:winapi_thunks.obj
 0001:000211fb       ?fin$0@?0???$?RV<lambda_b8c45f8f788dd370798f47cfe8ac3a86>@@AEAV<lambda_4e60a939b0d047cfe11ddc22648dfba9>@@V<lambda_332c3edc96d0294ec56c57d38c1cdfd5>@@@?$__crt_seh_guarded_call@H@@QEAAH$$QEAV<lambda_b8c45f8f788dd370798f47cfe8ac3a86>@@AEAV<lambda_4e60a939b0d047cfe11ddc22648dfba9>@@$$QEAV<lambda_332c3edc96d0294ec56c57d38c1cdfd5>@@@Z@4HA 00000001800221fb f   libucrt:onexit.obj
 0001:000211fb       ?fin$0@?0???$?RV<lambda_c36588078e9f5dfd39652860aa6b3aaf>@@AEAV<lambda_ec61778202f4f5fc7e7711acc23c3bca>@@V<lambda_dc9d2797ccde5d239b4a0efae8ebd7db>@@@?$__crt_seh_guarded_call@P6AXH@Z@@QEAAP6AXH@Z$$QEAV<lambda_c36588078e9f5dfd39652860aa6b3aaf>@@AEAV<lambda_ec61778202f4f5fc7e7711acc23c3bca>@@$$QEAV<lambda_dc9d2797ccde5d239b4a0efae8ebd7db>@@@Z@4HA 00000001800221fb f   libucrt:signal.obj
 0001:000211fb       ?fin$0@?0???$?RV<lambda_99476a1ad63dd22509b5d3e65b0ffc95>@@AEAV<lambda_ad1ced32f4ac17aa236e5ef05d6b3b7c>@@V<lambda_f7424dd8d45958661754dc4f2697e9c3>@@@?$__crt_seh_guarded_call@X@@QEAAX$$QEAV<lambda_99476a1ad63dd22509b5d3e65b0ffc95>@@AEAV<lambda_ad1ced32f4ac17aa236e5ef05d6b3b7c>@@$$QEAV<lambda_f7424dd8d45958661754dc4f2697e9c3>@@@Z@4HA 00000001800221fb f   libucrt:mbctype.obj
 0001:000211fb       ?fin$0@?0???$?RV<lambda_72d1df2b273a38828b1ce30cbf4cdab5>@@AEAV<lambda_876a65b173b8412d3a47c70a915b0cf4>@@V<lambda_41932305e351933ebe8f8be3ed8bb5dc>@@@?$__crt_seh_guarded_call@X@@QEAAX$$QEAV<lambda_72d1df2b273a38828b1ce30cbf4cdab5>@@AEAV<lambda_876a65b173b8412d3a47c70a915b0cf4>@@$$QEAV<lambda_41932305e351933ebe8f8be3ed8bb5dc>@@@Z@4HA 00000001800221fb f   libucrt:per_thread_data.obj
 0001:000211fb       ?fin$0@?0???$?RV<lambda_5e887d1dcbef67a5eb4283622ba103bf>@@AEAV<lambda_4466841279450cc726390878d4a41900>@@V<lambda_341c25c0346d94847f1f3c463c57e077>@@@?$__crt_seh_guarded_call@X@@QEAAX$$QEAV<lambda_5e887d1dcbef67a5eb4283622ba103bf>@@AEAV<lambda_4466841279450cc726390878d4a41900>@@$$QEAV<lambda_341c25c0346d94847f1f3c463c57e077>@@@Z@4HA 00000001800221fb f   libucrt:per_thread_data.obj
 0001:000211fb       ?fin$0@?0???$?RV<lambda_46352004c1216016012b18bd6f87e700>@@AEAV<lambda_3bd07e1a1191394380780325891bf33f>@@V<lambda_334532d3f185bcaa59b5be82d7d22bff>@@@?$__crt_seh_guarded_call@X@@QEAAX$$QEAV<lambda_46352004c1216016012b18bd6f87e700>@@AEAV<lambda_3bd07e1a1191394380780325891bf33f>@@$$QEAV<lambda_334532d3f185bcaa59b5be82d7d22bff>@@@Z@4HA 00000001800221fb f   libucrt:per_thread_data.obj
 0001:00021215       ?fin$0@?0???$?RV<lambda_5df02c53a8f32f81fd64e5bbb78039f1>@@AEAV<lambda_2af78c5f5901b1372d98f9ab3177dfa6>@@AEAV<lambda_f51fe5fd7c79a33db34fc9310f277369>@@@?$__crt_seh_guarded_call@X@@QEAAX$$QEAV<lambda_5df02c53a8f32f81fd64e5bbb78039f1>@@AEAV<lambda_2af78c5f5901b1372d98f9ab3177dfa6>@@AEAV<lambda_f51fe5fd7c79a33db34fc9310f277369>@@@Z@4HA 0000000180022215 f   libucrt:wsetlocale.obj
 0001:00021236       __acrt_update_thread_locale_data$fin$0 0000000180022236 f   libucrt:locale_refcounting.obj
 0001:00021236       __acrt_uninitialize_locale$fin$0 0000000180022236 f   libucrt:wsetlocale.obj
 0001:0002124f       _fcloseall$fin$0           000000018002224f f   libucrt:closeall.obj
 0001:00021268       ?fin$0@?0???$?RV<lambda_bfedae4ebbf01fab1bb6dcc6a9e276e0>@@AEAV<lambda_2fe9b910cf3cbf4a0ab98a02ba45b3ec>@@V<lambda_237c231691f317818eb88cc1d5d642d6>@@@?$__crt_seh_guarded_call@H@@QEAAH$$QEAV<lambda_bfedae4ebbf01fab1bb6dcc6a9e276e0>@@AEAV<lambda_2fe9b910cf3cbf4a0ab98a02ba45b3ec>@@$$QEAV<lambda_237c231691f317818eb88cc1d5d642d6>@@@Z@4HA 0000000180022268 f   libucrt:close.obj
 0001:00021268       ?fin$0@?0???$?RV<lambda_b521505b218e5242e90febf6bfebc422>@@AEAV<lambda_6978c1fb23f02e42e1d9e99668cc68aa>@@V<lambda_314360699dd331753a4119843814e9a7>@@@?$__crt_seh_guarded_call@H@@QEAAH$$QEAV<lambda_b521505b218e5242e90febf6bfebc422>@@AEAV<lambda_6978c1fb23f02e42e1d9e99668cc68aa>@@$$QEAV<lambda_314360699dd331753a4119843814e9a7>@@@Z@4HA 0000000180022268 f   libucrt:commit.obj
 0001:00021282       raise$fin$0                0000000180022282 f   libucrt:signal.obj
 0001:000212a6       _ctrlfp$filt$0             00000001800222a6 f   libucrt:fpctrl.obj
 0001:000212d2       __acrt_update_thread_multibyte_data$fin$0 00000001800222d2 f   libucrt:mbctype.obj
 0001:000212eb       __acrt_initialize_lowio$fin$0 00000001800222eb f   libucrt:ioinit.obj
 0001:000212eb       __acrt_lowio_ensure_fh_exists$fin$0 00000001800222eb f   libucrt:osfinfo.obj
 0001:00021304       _read$fin$0                0000000180022304 f   libucrt:read.obj
 0001:00021304       ?fin$0@?0???$common_lseek@_J@@YA_JH_JH@Z@4HA 0000000180022304 f   libucrt:lseek.obj
 0001:00021304       _write$fin$0               0000000180022304 f   libucrt:write.obj
 0001:00021320       _IsNonwritableInCurrentImage$filt$0 0000000180022320 f   LIBCMT:pesect.obj
 0001:00021340       ??__Froot@@YAXXZ           0000000180022340 f   familyTree.obj
 0001:000213b4       ??__Fcout@std@@YAXXZ       00000001800223b4 f   libcpmt:cout.obj
 0001:00021414       ??__Ffout@std@@YAXXZ       0000000180022414 f   libcpmt:cout.obj
 0001:00021420       ??__Finitlocks@@YAXXZ      0000000180022420 f   libcpmt:cout.obj
 0001:0002142c       ??__Finitlocks@std@@YAXXZ  000000018002242c f   libcpmt:xlock.obj
 0001:00021438       ??__F_Fac_tidy_reg@std@@YAXXZ 0000000180022438 f   libcpmt:locale0.obj
 0001:00021464       ??__Fclassic_locale@std@@YAXXZ 0000000180022464 f   libcpmt:locale0.obj
 0001:000214c4       ??__Finit_atexit@@YAXXZ    00000001800224c4 f   libcpmt:iosptrs.obj
 0001:00021518       ??__Finitlocks@std@@YAXXZ  0000000180022518 f   libcpmt:iosptrs.obj
 0002:000002c0       ?initlocks$initializer$@@3P6AXXZEA 00000001800232c0     libcpmt:cout.obj
 0002:000002c8       ?fout$initializer$@std@@3P6AXXZEA 00000001800232c8     libcpmt:cout.obj
 0002:000002d0       ?cout$initializer$@std@@3P6AXXZEA 00000001800232d0     libcpmt:cout.obj
 0002:000002d8       ?init_cout$initializer$@std@@3P6AXXZEA 00000001800232d8     libcpmt:cout.obj
 0002:000002e0       ?initlocks$initializer$@std@@3P6AXXZEA 00000001800232e0     libcpmt:xlock.obj
 0002:000002e8       ?initlocks$initializer$@std@@3P6AXXZEA 00000001800232e8     libcpmt:iosptrs.obj
 0002:000002f0       ?init_atexit$initializer$@@3P6AXXZEA 00000001800232f0     libcpmt:iosptrs.obj
 0002:000002f8       ?_Fac_tidy_reg$initializer$@std@@3P6AXXZEA 00000001800232f8     libcpmt:locale0.obj
 0002:00000300       ?classic_locale$initializer$@std@@3P6AXXZEA 0000000180023300     libcpmt:locale0.obj
 0002:00000308       ?root$initializer$@@3P6AXXZEA 0000000180023308     familyTree.obj
 0002:00000328       ?pinit@@3P6AHXZEA          0000000180023328     libcpmt:winapisupp.obj
 0002:00000330       ?__scrt_initialize_tss_var@@3P6AHXZEA 0000000180023330     LIBCMT:thread_safe_statics.obj
 0002:000003c0       $cppxdata$??0_Locinfo@std@@QEAA@PEBD@Z 00000001800233c0     libcpmt:cout.obj
 0002:000003e8       $cppxdata$??1_Locinfo@std@@QEAA@XZ 00000001800233e8     libcpmt:cout.obj
 0002:00000410       $cppxdata$??1locale@std@@QEAA@XZ 0000000180023410     libcpmt:cout.obj
 0002:00000438       $cppxdata$??_Glocale@std@@QEAAPEAXI@Z 0000000180023438     libcpmt:cout.obj
 0002:00000460       $cppxdata$?_Getcat@?$ctype@D@std@@SA_KPEAPEBVfacet@locale@2@PEBV42@@Z 0000000180023460     libcpmt:cout.obj
 0002:00000488       $cppxdata$??$use_facet@V?$ctype@D@std@@@std@@YAAEBV?$ctype@D@0@AEBVlocale@0@@Z 0000000180023488     libcpmt:cout.obj
 0002:000004b0       $cppxdata$?getloc@ios_base@std@@QEBA?AVlocale@2@XZ 00000001800234b0     libcpmt:cout.obj
 0002:000004d8       $cppxdata$?_Init@ios_base@std@@IEAAXXZ 00000001800234d8     libcpmt:cout.obj
 0002:00000500       $cppxdata$??_Gios_base@std@@UEAAPEAXI@Z 0000000180023500     libcpmt:cout.obj
 0002:00000528       $cppxdata$??0?$basic_streambuf@DU?$char_traits@D@std@@@std@@IEAA@XZ 0000000180023528     libcpmt:cout.obj
 0002:00000550       $cppxdata$??1?$basic_filebuf@DU?$char_traits@D@std@@@std@@UEAA@XZ 0000000180023550     libcpmt:cout.obj
 0002:00000578       $cppxdata$?overflow@?$basic_filebuf@DU?$char_traits@D@std@@@std@@MEAAHH@Z 0000000180023578     libcpmt:cout.obj
 0002:000005a0       $cppxdata$?uflow@?$basic_filebuf@DU?$char_traits@D@std@@@std@@MEAAHXZ 00000001800235a0     libcpmt:cout.obj
 0002:000005c8       $cppxdata$?_Endwrite@?$basic_filebuf@DU?$char_traits@D@std@@@std@@IEAA_NXZ 00000001800235c8     libcpmt:cout.obj
 0002:000005f0       $cppxdata$??1?$basic_ios@DU?$char_traits@D@std@@@std@@UEAA@XZ 00000001800235f0     libcpmt:cout.obj
 0002:00000618       $cppxdata$?widen@?$basic_ios@DU?$char_traits@D@std@@@std@@QEBADD@Z 0000000180023618     libcpmt:cout.obj
 0002:00000640       $cppxdata$??_G?$basic_ios@DU?$char_traits@D@std@@@std@@UEAAPEAXI@Z 0000000180023640     libcpmt:cout.obj
 0002:00000668       $cppxdata$??0?$basic_ostream@DU?$char_traits@D@std@@@std@@QEAA@PEAV?$basic_streambuf@DU?$char_traits@D@std@@@1@_N@Z 0000000180023668     libcpmt:cout.obj
 0002:00000690       $cppxdata$??_G?$basic_ostream@DU?$char_traits@D@std@@@std@@UEAAPEAXI@Z 0000000180023690     libcpmt:cout.obj
 0002:000006b8       $cppxdata$??__Fcout@std@@YAXXZ 00000001800236b8     libcpmt:cout.obj
 0002:000006e0       $cppxdata$??$use_facet@V?$codecvt@DDU_Mbstatet@@@std@@@std@@YAAEBV?$codecvt@DDU_Mbstatet@@@0@AEBVlocale@0@@Z 00000001800236e0     libcpmt:cout.obj
 0002:00000708       $cppxdata$?_Getcat@?$codecvt@DDU_Mbstatet@@@std@@SA_KPEAPEBVfacet@locale@2@PEBV42@@Z 0000000180023708     libcpmt:cout.obj
 0002:00000ad0       ?_Win_errtab@std@@3QBU_Win_errtab_t@1@B 0000000180023ad0     libcpmt:syserror.obj
 0002:00000d20       ?_Sys_errtab@std@@3QBU_Sys_errtab_t@1@B 0000000180023d20     libcpmt:syserror.obj
 0002:000018c0       $cppxdata$??_G_Fac_node@std@@QEAAPEAXI@Z 00000001800248c0     libcpmt:locale0.obj
 0002:000018e8       $cppxdata$?_Locimp_dtor@_Locimp@locale@std@@CAXPEAV123@@Z 00000001800248e8     libcpmt:locale0.obj
 0002:00001910       $cppxdata$??_G_Locimp@locale@std@@MEAAPEAXI@Z 0000000180024910     libcpmt:locale0.obj
 0002:00001938       $cppxdata$?_Init@locale@std@@CAPEAV_Locimp@12@_N@Z 0000000180024938     libcpmt:locale0.obj
 0002:00001960       $cppxdata$??__Fclassic_locale@std@@YAXXZ 0000000180024960     libcpmt:locale0.obj
 0002:000019b8       $cppxdata$??__Finit_atexit@@YAXXZ 00000001800249b8     libcpmt:iosptrs.obj
 0002:00002410       ?LcidToLocaleNameTable@@3QBULcidToLocaleName@@B 0000000180025410     libcpmt:winapinls.obj
 0002:00003250       ?LocaleNameToIndexTable@@3QBULocaleNameIndex@@B 0000000180026250     libcpmt:winapinls.obj
 0002:00005128       digits                     0000000180028128     libcpmt:xstoul.obj
 0002:00005150       ndigs                      0000000180028150     libcpmt:xstoul.obj
 0002:00005178       digits                     0000000180028178     libcpmt:xstoull.obj
 0002:000051a0       ndigs                      00000001800281a0     libcpmt:xstoull.obj
 0002:000051e0       GS_ExceptionPointers       00000001800281e0     LIBCMT:gs_report.obj
 0002:00005250       ?ExceptionTemplate@?1??_CxxThrowException@@9@4UEHExceptionRecord@@B 0000000180028250     libvcruntime:throw.obj
 0002:00005290       ?ExceptionTemplate@?1??_UnwindNestedFrames@@9@4U_EXCEPTION_RECORD@@B 0000000180028290     libvcruntime:trnsctrl.obj
 0002:00005328       ?module_names@?A0x679b24ab@@3QBQEB_WB 0000000180028328     libvcruntime:winapi_downlevel.obj
 0002:000053f8       ?candidate_modules@?1??try_get_FlsAlloc@@YAP6AKP6AXPEAX@Z@ZXZ@4QBW4module_id@?A0x679b24ab@@B 00000001800283f8     libvcruntime:winapi_downlevel.obj
 0002:00005400       ?candidate_modules@?1??try_get_FlsFree@@YAP6AHK@ZXZ@4QBW4module_id@?A0x679b24ab@@B 0000000180028400     libvcruntime:winapi_downlevel.obj
 0002:00005408       ?candidate_modules@?1??try_get_FlsGetValue@@YAP6APEAXK@ZXZ@4QBW4module_id@?A0x679b24ab@@B 0000000180028408     libvcruntime:winapi_downlevel.obj
 0002:00005410       ?candidate_modules@?1??try_get_FlsSetValue@@YAP6AHKPEAX@ZXZ@4QBW4module_id@?A0x679b24ab@@B 0000000180028410     libvcruntime:winapi_downlevel.obj
 0002:00005418       ?candidate_modules@?1??try_get_InitializeCriticalSectionEx@@YAP6AHPEAU_RTL_CRITICAL_SECTION@@KK@ZXZ@4QBW4module_id@?A0x679b24ab@@B 0000000180028418     libvcruntime:winapi_downlevel.obj
 0002:00005420       ?tokenTable@@3QBQEBDB      0000000180028420     libvcruntime:undname.obj
 0002:00005490       ?nameTable@@3QBQEBDB       0000000180028490     libvcruntime:undname.obj
 0002:00005718       ?rttiTable@@3QBQEBDB       0000000180028718     libvcruntime:undname.obj
 0002:00005d90       errtable                   0000000180028d90     libucrt:errno.obj
 0002:00006710       __flag_x_one_y_snan        0000000180029710     libucrt:pow.obj
 0002:00006714       __flag_x_zero_z_inf        0000000180029714     libucrt:pow.obj
 0002:00006718       __flag_x_nan               0000000180029718     libucrt:pow.obj
 0002:0000671c       __flag_y_nan               000000018002971c     libucrt:pow.obj
 0002:00006720       __flag_x_nan_y_nan         0000000180029720     libucrt:pow.obj
 0002:00006724       __flag_x_neg_y_notint      0000000180029724     libucrt:pow.obj
 0002:00006728       __flag_z_zero              0000000180029728     libucrt:pow.obj
 0002:0000672c       __flag_z_denormal          000000018002972c     libucrt:pow.obj
 0002:00006730       __flag_z_inf               0000000180029730     libucrt:pow.obj
 0002:00006740       __ay_max_bound             0000000180029740     libucrt:pow.obj
 0002:00006748       __ay_min_bound             0000000180029748     libucrt:pow.obj
 0002:00006750       __sign_mask                0000000180029750     libucrt:pow.obj
 0002:00006758       __sign_and_exp_mask        0000000180029758     libucrt:pow.obj
 0002:00006760       __exp_mask                 0000000180029760     libucrt:pow.obj
 0002:00006768       __neg_inf                  0000000180029768     libucrt:pow.obj
 0002:00006770       __pos_inf                  0000000180029770     libucrt:pow.obj
 0002:00006778       __pos_one                  0000000180029778     libucrt:pow.obj
 0002:00006780       __pos_zero                 0000000180029780     libucrt:pow.obj
 0002:00006788       __exp_mant_mask            0000000180029788     libucrt:pow.obj
 0002:00006790       __mant_mask                0000000180029790     libucrt:pow.obj
 0002:00006798       __ind_pattern              0000000180029798     libucrt:pow.obj
 0002:000067a0       __neg_qnan                 00000001800297a0     libucrt:pow.obj
 0002:000067a8       __qnan                     00000001800297a8     libucrt:pow.obj
 0002:000067b0       __qnan_set                 00000001800297b0     libucrt:pow.obj
 0002:000067b8       __neg_one                  00000001800297b8     libucrt:pow.obj
 0002:000067c0       __neg_zero                 00000001800297c0     libucrt:pow.obj
 0002:000067c8       __exp_shift                00000001800297c8     libucrt:pow.obj
 0002:000067d0       __exp_bias                 00000001800297d0     libucrt:pow.obj
 0002:000067d8       __exp_bias_m1              00000001800297d8     libucrt:pow.obj
 0002:000067e0       __yexp_53                  00000001800297e0     libucrt:pow.obj
 0002:000067e8       __mant_full                00000001800297e8     libucrt:pow.obj
 0002:000067f0       __1_before_mant            00000001800297f0     libucrt:pow.obj
 0002:000067f8       __mask_mant_all8           00000001800297f8     libucrt:pow.obj
 0002:00006800       __mask_mant9               0000000180029800     libucrt:pow.obj
 0002:00006810       __real_fffffffff8000000    0000000180029810     libucrt:pow.obj
 0002:00006820       __mask_8000000000000000    0000000180029820     libucrt:pow.obj
 0002:00006830       __real_4090040000000000    0000000180029830     libucrt:pow.obj
 0002:00006840       __real_C090C80000000000    0000000180029840     libucrt:pow.obj
 0002:00006850       __real_ninf                0000000180029850     libucrt:pow.obj
 0002:00006860       __real_inf                 0000000180029860     libucrt:pow.obj
 0002:00006870       __real_nan                 0000000180029870     libucrt:pow.obj
 0002:00006880       __real_mant                0000000180029880     libucrt:pow.obj
 0002:00006890       __mask_1023                0000000180029890     libucrt:pow.obj
 0002:000068a0       __mask_001                 00000001800298a0     libucrt:pow.obj
 0002:000068b0       __real_log2_lead           00000001800298b0     libucrt:pow.obj
 0002:000068c0       __real_log2_tail           00000001800298c0     libucrt:pow.obj
 0002:000068d0       __real_two                 00000001800298d0     libucrt:pow.obj
 0002:000068e0       __real_one                 00000001800298e0     libucrt:pow.obj
 0002:000068f0       __real_half                00000001800298f0     libucrt:pow.obj
 0002:00006900       __mask_100                 0000000180029900     libucrt:pow.obj
 0002:00006910       __real_1_over_2            0000000180029910     libucrt:pow.obj
 0002:00006920       __real_1_over_3            0000000180029920     libucrt:pow.obj
 0002:00006930       __real_1_over_4            0000000180029930     libucrt:pow.obj
 0002:00006940       __real_1_over_5            0000000180029940     libucrt:pow.obj
 0002:00006950       __real_1_over_6            0000000180029950     libucrt:pow.obj
 0002:00006960       __real_1_over_7            0000000180029960     libucrt:pow.obj
 0002:00006970       __mask_1023_f              0000000180029970     libucrt:pow.obj
 0002:00006980       __mask_2045                0000000180029980     libucrt:pow.obj
 0002:00006990       __real_threshold           0000000180029990     libucrt:pow.obj
 0002:000069a0       __real_notsign             00000001800299a0     libucrt:pow.obj
 0002:000069b0       __log_F_inv_head           00000001800299b0     libucrt:pow.obj
 0002:000071c0       __log_F_inv_tail           000000018002a1c0     libucrt:pow.obj
 0002:000079d0       __denormal_threshold       000000018002a9d0     libucrt:pow.obj
 0002:000079e0       __enable_almost_inf        000000018002a9e0     libucrt:pow.obj
 0002:000079f0       __real_zero                000000018002a9f0     libucrt:pow.obj
 0002:00007a00       __real_smallest_denormal   000000018002aa00     libucrt:pow.obj
 0002:00007a10       __denormal_tiny_threshold  000000018002aa10     libucrt:pow.obj
 0002:00007a20       __real_p65536              000000018002aa20     libucrt:pow.obj
 0002:00007a30       __real_m68800              000000018002aa30     libucrt:pow.obj
 0002:00007a40       __real_64_by_log2          000000018002aa40     libucrt:pow.obj
 0002:00007a50       __real_log2_by_64_head     000000018002aa50     libucrt:pow.obj
 0002:00007a60       __real_log2_by_64_tail     000000018002aa60     libucrt:pow.obj
 0002:00007a70       __real_1_by_720            000000018002aa70     libucrt:pow.obj
 0002:00007a80       __real_1_by_120            000000018002aa80     libucrt:pow.obj
 0002:00007a90       __real_1_by_24             000000018002aa90     libucrt:pow.obj
 0002:00007aa0       __real_1_by_6              000000018002aaa0     libucrt:pow.obj
 0002:00007ab0       __real_1_by_2              000000018002aab0     libucrt:pow.obj
 0002:00007ac0       __flag_x_one_y_snan        000000018002aac0     libucrt:powf.obj
 0002:00007ac4       __flag_x_zero_z_inf        000000018002aac4     libucrt:powf.obj
 0002:00007ac8       __flag_x_nan               000000018002aac8     libucrt:powf.obj
 0002:00007acc       __flag_y_nan               000000018002aacc     libucrt:powf.obj
 0002:00007ad0       __flag_x_nan_y_nan         000000018002aad0     libucrt:powf.obj
 0002:00007ad4       __flag_x_neg_y_notint      000000018002aad4     libucrt:powf.obj
 0002:00007ad8       __flag_z_zero              000000018002aad8     libucrt:powf.obj
 0002:00007adc       __flag_z_denormal          000000018002aadc     libucrt:powf.obj
 0002:00007ae0       __flag_z_inf               000000018002aae0     libucrt:powf.obj
 0002:00007ae4       L__1_by_3                  000000018002aae4     libucrt:powf.obj
 0002:00007aec       L__log2                    000000018002aaec     libucrt:powf.obj
 0002:00007af4       L__max_exp_arg             000000018002aaf4     libucrt:powf.obj
 0002:00007afc       L__min_exp_arg             000000018002aafc     libucrt:powf.obj
 0002:00007b04       L__real_log2_by_64         000000018002ab04     libucrt:powf.obj
 0002:00007b0c       L__1_by_6                  000000018002ab0c     libucrt:powf.obj
 0002:00007b14       L__real_threshold          000000018002ab14     libucrt:powf.obj
 0002:00007b1c       L__real_one                000000018002ab1c     libucrt:powf.obj
 0002:00007b24       L__real_two                000000018002ab24     libucrt:powf.obj
 0002:00007b2c       L__neg_zero                000000018002ab2c     libucrt:powf.obj
 0002:00007b40       L__real_ca42               000000018002ab40     libucrt:powf.obj
 0002:00007b48       L__real_ca4                000000018002ab48     libucrt:powf.obj
 0002:00007b50       L__real_ca31               000000018002ab50     libucrt:powf.obj
 0002:00007b58       L__real_ca3                000000018002ab58     libucrt:powf.obj
 0002:00007b60       L__clear_sign              000000018002ab60     libucrt:powf.obj
 0002:00007b70       L__real_64_by_log2         000000018002ab70     libucrt:powf.obj
 0002:00007b80       L__1_by_2                  000000018002ab80     libucrt:powf.obj
 0002:00007b90       L__1023                    000000018002ab90     libucrt:powf.obj
 0002:00007ba0       L__xexp_bits_xmantissa_bits 000000018002aba0     libucrt:powf.obj
 0002:000084c0       __acrt_initializers        000000018002b4c0     libucrt:initialization.obj
 0002:000086c0       _first_127char             000000018002b6c0     libucrt:wsetlocale.obj
 0002:00008de0       module_names               000000018002bde0     libucrt:winapi_thunks.obj
 0002:00009310       ?candidate_modules@?1??try_get_CompareStringEx@@YAP6AHPEB_WK0H0HPEAU_nlsversioninfo@@PEAX_J@ZXZ@4QBW4module_id@?A0x63058377@@B 000000018002c310     libucrt:winapi_thunks.obj
 0002:00009318       ?candidate_modules@?1??try_get_EnumSystemLocalesEx@@YAP6AHP6AHPEA_WK_J@ZK1PEAX@ZXZ@4QBW4module_id@?A0x63058377@@B 000000018002c318     libucrt:winapi_thunks.obj
 0002:00009338       ?candidate_modules@?1??try_get_FlsAlloc@@YAP6AKP6AXPEAX@Z@ZXZ@4QBW4module_id@?A0x63058377@@B 000000018002c338     libucrt:winapi_thunks.obj
 0002:00009340       ?candidate_modules@?1??try_get_FlsFree@@YAP6AHK@ZXZ@4QBW4module_id@?A0x63058377@@B 000000018002c340     libucrt:winapi_thunks.obj
 0002:00009348       ?candidate_modules@?1??try_get_FlsGetValue@@YAP6APEAXK@ZXZ@4QBW4module_id@?A0x63058377@@B 000000018002c348     libucrt:winapi_thunks.obj
 0002:00009350       ?candidate_modules@?1??try_get_FlsSetValue@@YAP6AHKPEAX@ZXZ@4QBW4module_id@?A0x63058377@@B 000000018002c350     libucrt:winapi_thunks.obj
 0002:00009358       ?candidate_modules@?1??try_get_GetCurrentPackageId@@YAP6AJPEAIPEAE@ZXZ@4QBW4module_id@?A0x63058377@@B 000000018002c358     libucrt:winapi_thunks.obj
 0002:00009360       ?candidate_modules@?1??try_get_GetLocaleInfoEx@@YAP6AHPEB_WKPEA_WH@ZXZ@4QBW4module_id@?A0x63058377@@B 000000018002c360     libucrt:winapi_thunks.obj
 0002:00009368       ?candidate_modules@?1??try_get_GetUserDefaultLocaleName@@YAP6AHPEA_WH@ZXZ@4QBW4module_id@?A0x63058377@@B 000000018002c368     libucrt:winapi_thunks.obj
 0002:00009390       ?candidate_modules@?1??try_get_InitializeCriticalSectionEx@@YAP6AHPEAU_RTL_CRITICAL_SECTION@@KK@ZXZ@4QBW4module_id@?A0x63058377@@B 000000018002c390     libucrt:winapi_thunks.obj
 0002:00009398       ?candidate_modules@?1??try_get_IsValidLocaleName@@YAP6AHPEB_W@ZXZ@4QBW4module_id@?A0x63058377@@B 000000018002c398     libucrt:winapi_thunks.obj
 0002:000093b8       ?candidate_modules@?1??try_get_LCMapStringEx@@YAP6AHPEB_WK0HPEA_WHPEAU_nlsversioninfo@@PEAX_J@ZXZ@4QBW4module_id@?A0x63058377@@B 000000018002c3b8     libucrt:winapi_thunks.obj
 0002:000093c0       ?candidate_modules@?1??try_get_LCIDToLocaleName@@YAP6AHKPEA_WHK@ZXZ@4QBW4module_id@?A0x63058377@@B 000000018002c3c0     libucrt:winapi_thunks.obj
 0002:000093e0       ?candidate_modules@?1??try_get_LocaleNameToLCID@@YAP6AKPEB_WK@ZXZ@4QBW4module_id@?A0x63058377@@B 000000018002c3e0     libucrt:winapi_thunks.obj
 0002:0000b250       _mb_locale_names           000000018002e250     libucrt:mbctype.obj
 0002:0000c240       LcidToLocaleNameTable      000000018002f240     libucrt:lcidtoname_downlevel.obj
 0002:0000d080       LocaleNameToIndexTable     0000000180030080     libucrt:lcidtoname_downlevel.obj
 0002:0000dec0       __real@433fffffffffffff    0000000180030ec0     libucrt:fpsr.obj
 0002:0000dec8       __real@c33fffffffffffff    0000000180030ec8     libucrt:fpsr.obj
 0002:0000dee0       __real_ninf                0000000180030ee0     libucrt:log10.obj
 0002:0000def0       __real_inf                 0000000180030ef0     libucrt:log10.obj
 0002:0000df00       __real_neg_qnan            0000000180030f00     libucrt:log10.obj
 0002:0000df10       __real_qnanbit             0000000180030f10     libucrt:log10.obj
 0002:0000df20       __int_1023                 0000000180030f20     libucrt:log10.obj
 0002:0000df30       __mask_001                 0000000180030f30     libucrt:log10.obj
 0002:0000df40       __mask_mant                0000000180030f40     libucrt:log10.obj
 0002:0000df50       __mask_mant_top8           0000000180030f50     libucrt:log10.obj
 0002:0000df60       __mask_mant9               0000000180030f60     libucrt:log10.obj
 0002:0000df70       __real_log10_e             0000000180030f70     libucrt:log10.obj
 0002:0000df80       __real_log10_e_lead        0000000180030f80     libucrt:log10.obj
 0002:0000df90       __real_log10_e_tail        0000000180030f90     libucrt:log10.obj
 0002:0000dfa0       __real_log10_2_lead        0000000180030fa0     libucrt:log10.obj
 0002:0000dfb0       __real_log10_2_tail        0000000180030fb0     libucrt:log10.obj
 0002:0000dfc0       __real_two                 0000000180030fc0     libucrt:log10.obj
 0002:0000dfd0       __real_one                 0000000180030fd0     libucrt:log10.obj
 0002:0000dfe0       __real_half                0000000180030fe0     libucrt:log10.obj
 0002:0000dff0       __mask_100                 0000000180030ff0     libucrt:log10.obj
 0002:0000e000       __real_1_over_512          0000000180031000     libucrt:log10.obj
 0002:0000e010       __real_1_over_2            0000000180031010     libucrt:log10.obj
 0002:0000e020       __real_1_over_3            0000000180031020     libucrt:log10.obj
 0002:0000e030       __real_1_over_4            0000000180031030     libucrt:log10.obj
 0002:0000e040       __real_1_over_5            0000000180031040     libucrt:log10.obj
 0002:0000e050       __real_1_over_6            0000000180031050     libucrt:log10.obj
 0002:0000e060       __real_neg_1023            0000000180031060     libucrt:log10.obj
 0002:0000e070       __mask_2045                0000000180031070     libucrt:log10.obj
 0002:0000e080       __real_threshold           0000000180031080     libucrt:log10.obj
 0002:0000e090       __real_near_one_lt         0000000180031090     libucrt:log10.obj
 0002:0000e0a0       __real_near_one_gt         00000001800310a0     libucrt:log10.obj
 0002:0000e0b0       __real_min_norm            00000001800310b0     libucrt:log10.obj
 0002:0000e0c0       __real_notsign             00000001800310c0     libucrt:log10.obj
 0002:0000e0d0       __real_ca1                 00000001800310d0     libucrt:log10.obj
 0002:0000e0e0       __real_ca2                 00000001800310e0     libucrt:log10.obj
 0002:0000e0f0       __real_ca3                 00000001800310f0     libucrt:log10.obj
 0002:0000e100       __real_ca4                 0000000180031100     libucrt:log10.obj
 0002:0000e110       __mask_lower               0000000180031110     libucrt:log10.obj
 0002:0000e120       __flag_x_zero              0000000180031120     libucrt:log10.obj
 0002:0000e124       __flag_x_neg               0000000180031124     libucrt:log10.obj
 0002:0000e128       __flag_x_nan               0000000180031128     libucrt:log10.obj
 0002:00010910       $unwind$??_Gruntime_error@std@@UEAAPEAXI@Z 0000000180033910     familyTree.obj
 0002:00010910       $unwind$__vcrt_uninitialize_locks 0000000180033910     libvcruntime:locks.obj
 0002:00010910       $unwind$__vcrt_initialize_locks 0000000180033910     libvcruntime:locks.obj
 0002:00010910       $unwind$??0logic_error@std@@QEAA@AEBV01@@Z 0000000180033910     libcpmt:xthrow.obj
 0002:00010910       $unwind$__vcrt_freeptd     0000000180033910     libvcruntime:per_thread_data.obj
 0002:00010910       $unwind$??0length_error@std@@QEAA@AEBV01@@Z 0000000180033910     libcpmt:xthrow.obj
 0002:00010910       $unwind$??0bad_exception@std@@QEAA@AEBV01@@Z 0000000180033910     libvcruntime:frame.obj
 0002:00010910       $unwind$??0out_of_range@std@@QEAA@AEBV01@@Z 0000000180033910     libcpmt:xthrow.obj
 0002:00010910       $unwind$??0bad_alloc@std@@QEAA@AEBV01@@Z 0000000180033910     libcpmt:xthrow.obj
 0002:00010910       $unwind$??_Gexception@stdext@@UEAAPEAXI@Z 0000000180033910     familyTree.obj
 0002:00010910       $unwind$??_Gerror_category@std@@UEAAPEAXI@Z 0000000180033910     familyTree.obj
 0002:00010910       $unwind$?_Setgloballocale@locale@std@@CAXPEAX@Z 0000000180033910     libcpmt:locale0.obj
 0002:00010910       $unwind$?initialize_pointers@@YAHXZ 0000000180033910     libcpmt:winapisupp.obj
 0002:00010910       $unwind$__acrt_uninitialize_locks 0000000180033910     libucrt:locks.obj
 0002:00010910       $unwind$__acrt_stdio_free_buffer_nolock 0000000180033910     libucrt:_freebuf.obj
 0002:00010910       $unwind$__acrt_stdio_allocate_buffer_nolock 0000000180033910     libucrt:_getbuf.obj
 0002:00010910       $unwind$__acrt_initialize_locks 0000000180033910     libucrt:locks.obj
 0002:00010910       $unwind$?_Reserve@?$vector@UNode@@V?$allocator@UNode@@@std@@@std@@IEAAX_K@Z 0000000180033910     familyTree.obj
 0002:00010910       $unwind$__acrt_update_locale_info 0000000180033910     libucrt:locale_update.obj
 0002:00010910       $unwind$__acrt_update_multibyte_info 0000000180033910     libucrt:locale_update.obj
 0002:00010910       $unwind$??__Efout@std@@YAXXZ 0000000180033910     libcpmt:cout.obj
 0002:00010910       $unwind$?load_exe_hook@@YAP6A_JXZIPEAUDelayLoadInfo@@@Z 0000000180033910     win_delay_load_hook.obj
 0002:00010910       $unwind$_set_statfp        0000000180033910     libucrt:fpctrl.obj
 0002:00010910       $unwind$__raise_securityfailure 0000000180033910     LIBCMT:gs_report.obj
 0002:00010910       $unwind$__acrt_uninitialize_winapi_thunks 0000000180033910     libucrt:winapi_thunks.obj
 0002:00010910       $unwind$_clrfp             0000000180033910     libucrt:fpctrl.obj
 0002:00010910       $unwind$_purecall          0000000180033910     libvcruntime:purevirt.obj
 0002:00010910       $unwind$__acrt_freeptd     0000000180033910     libucrt:per_thread_data.obj
 0002:00010910       $unwind$__std_type_info_destroy_list 0000000180033910     libvcruntime:std_type_info.obj
 0002:00010910       $unwind$?setbuf@?$basic_filebuf@DU?$char_traits@D@std@@@std@@MEAAPEAV?$basic_streambuf@DU?$char_traits@D@std@@@2@PEAD_J@Z 0000000180033910     libcpmt:cout.obj
 0002:00010910       $unwind$??0_Lockit@std@@QEAA@H@Z 0000000180033910     libcpmt:xlock.obj
 0002:00010910       $unwind$__acrt_uninitialize_stdio 0000000180033910     libucrt:_file.obj
 0002:00010910       $unwind$__std_exception_destroy 0000000180033910     libvcruntime:std_exception.obj
 0002:00010910       $unwind$??2@YAPEAX_K@Z     0000000180033910     LIBCMT:new_scalar.obj
 0002:00010910       $unwind$strcpy_s           0000000180033910     libucrt:strcpy_s.obj
 0002:00010910       $unwind$??0bad_array_new_length@std@@QEAA@AEBV01@@Z 0000000180033910     LIBCMT:throw_bad_alloc.obj
 0002:00010910       $unwind$?do_narrow@?$ctype@D@std@@MEBAPEBDPEBD0DPEAD@Z 0000000180033910     libcpmt:cout.obj
 0002:00010910       $unwind$?do_widen@?$ctype@D@std@@MEBAPEBDPEBD0PEAD@Z 0000000180033910     libcpmt:cout.obj
 0002:00010910       $unwind$_fflush_nolock     0000000180033910     libucrt:fflush.obj
 0002:00010910       $unwind$_Init_thread_header 0000000180033910     LIBCMT:thread_safe_statics.obj
 0002:00010910       $unwind$_Init_thread_footer 0000000180033910     LIBCMT:thread_safe_statics.obj
 0002:00010910       $unwind$_Init_thread_notify 0000000180033910     LIBCMT:thread_safe_statics.obj
 0002:00010910       $unwind$?__GetUnwindTryBlock@@YAHPEA_KPEAU_xDISPATCHER_CONTEXT@@PEBU_s_FuncInfo@@@Z 0000000180033910     libvcruntime:ehstate.obj
 0002:00010910       $unwind$?_Facet_Register@std@@YAXPEAV_Facet_base@1@@Z 0000000180033910     libcpmt:locale0.obj
 0002:00010910       $unwind$?__StateFromIp@@YAHPEBU_s_FuncInfo@@PEAU_xDISPATCHER_CONTEXT@@_J@Z 0000000180033910     libvcruntime:ehstate.obj
 0002:00010910       $unwind$??_G?$codecvt@DDU_Mbstatet@@@std@@MEAAPEAXI@Z 0000000180033910     libcpmt:cout.obj
 0002:00010910       $unwind$??_G_Facet_base@std@@UEAAPEAXI@Z 0000000180033910     libcpmt:cout.obj
 0002:00010910       $unwind$??1?$_Yarn@_W@std@@QEAA@XZ 0000000180033910     libcpmt:cout.obj
 0002:00010910       $unwind$wcscat_s           0000000180033910     libucrt:wcscat_s.obj
 0002:00010910       $unwind$??_Gfailure@ios_base@std@@UEAAPEAXI@Z 0000000180033910     familyTree.obj
 0002:00010910       $unwind$??_G_System_error@std@@UEAAPEAXI@Z 0000000180033910     familyTree.obj
 0002:00010910       $unwind$wcscpy_s           0000000180033910     libucrt:wcscpy_s.obj
 0002:00010910       $unwind$??1?$_Yarn@D@std@@QEAA@XZ 0000000180033910     libcpmt:cout.obj
 0002:00010910       $unwind$??0?$basic_string@DU?$char_traits@D@std@@V?$allocator@D@2@@std@@QEAA@PEBD@Z 0000000180033910     familyTree.obj
 0002:00010910       $unwind$_SetImageBase      0000000180033910     libvcruntime:trnsctrl.obj
 0002:00010910       $unwind$_SetThrowImageBase 0000000180033910     libvcruntime:trnsctrl.obj
 0002:00010910       $unwind$??0bad_cast@std@@QEAA@AEBV01@@Z 0000000180033910     libcpmt:cout.obj
 0002:00010910       $unwind$_calloc_base       0000000180033910     libucrt:calloc_base.obj
 0002:00010910       $unwind$initialize_pointers 0000000180033910     libucrt:initialization.obj
 0002:00010910       $unwind$??0runtime_error@std@@QEAA@AEBV01@@Z 0000000180033910     libcpmt:cout.obj
 0002:00010910       $unwind$_malloc_base       0000000180033910     libucrt:malloc_base.obj
 0002:00010910       $unwind$?exit_or_terminate_process@@YAXI@Z 0000000180033910     libucrt:exit.obj
 0002:00010910       $unwind$??1Detail@@QEAA@XZ 0000000180033910     familyTree.obj
 0002:00010910       $unwind$??0exception@std@@QEAA@AEBV01@@Z 0000000180033910     libcpmt:cout.obj
 0002:00010910       $unwind$uninitialize_allocated_memory 0000000180033910     libucrt:initialization.obj
 0002:00010910       $unwind$_onexit            0000000180033910     LIBCMT:utility.obj
 0002:00010910       $unwind$?DloadReleaseSectionWriteAccess@@YAXXZ 0000000180033910     DelayImp:delayhlp.obj
 0002:00010910       $unwind$__acrt_allocate_buffer_for_argv 0000000180033910     libucrt:argv_parsing.obj
 0002:00010910       $unwind$_Getctype          0000000180033910     libcpmt:_tolower.obj
 0002:00010910       $unwind$?message@_Iostream_error_category@std@@UEBA?AV?$basic_string@DU?$char_traits@D@std@@V?$allocator@D@2@@2@H@Z 0000000180033910     familyTree.obj
 0002:00010910       $unwind$??_Gtype_info@@UEAAPEAXI@Z 0000000180033910     LIBCMT:std_type_info_static.obj
 0002:00010910       $unwind$??1?$basic_string@DU?$char_traits@D@std@@V?$allocator@D@2@@std@@QEAA@XZ 0000000180033910     familyTree.obj
 0002:00010910       $unwind$??_G_Iostream_error_category@std@@UEAAPEAXI@Z 0000000180033910     familyTree.obj
 0002:00010910       $unwind$_IsExceptionObjectToBeDestroyed 0000000180033910     libvcruntime:trnsctrl.obj
 0002:00010910       $unwind$__scrt_release_startup_lock 0000000180033910     LIBCMT:utility.obj
 0002:00010910       $unwind$?_Addstd@ios_base@std@@SAXPEAV12@@Z 0000000180033910     libcpmt:ios.obj
 0002:00010910       $unwind$__scrt_initialize_crt 0000000180033910     LIBCMT:utility.obj
 0002:00010910       $unwind$?imbue@?$basic_filebuf@DU?$char_traits@D@std@@@std@@MEAAXAEBVlocale@2@@Z 0000000180033910     libcpmt:cout.obj
 0002:00010910       $unwind$_CreateFrameInfo   0000000180033910     libvcruntime:trnsctrl.obj
 0002:00010910       $unwind$?_Ios_base_dtor@ios_base@std@@CAXPEAV12@@Z 0000000180033910     libcpmt:ios.obj
 0002:00010910       $unwind$__scrt_uninitialize_crt 0000000180033910     LIBCMT:utility.obj
 0002:00010910       $unwind$??1Node@@QEAA@XZ   0000000180033910     familyTree.obj
 0002:00010918       $unwind$__vcrt_uninitialize_critical 0000000180033918     libvcruntime:initialization.obj
 0002:00010918       $unwind$__scrt_dllmain_crt_thread_detach 0000000180033918     LIBCMT:utility.obj
 0002:00010918       $unwind$_set_errno_from_matherr 0000000180033918     libucrt:fpexcept.obj
 0002:00010918       $unwind$?_Unlock@?$basic_filebuf@DU?$char_traits@D@std@@@std@@UEAAXXZ 0000000180033918     libcpmt:cout.obj
 0002:00010918       $unwind$_invoke_watson     0000000180033918     libucrt:invalid_parameter.obj
 0002:00010918       $unwind$?_Atexit@@YAXP6AXXZ@Z 0000000180033918     libcpmt:iosptrs.obj
 0002:00010918       $unwind$__scrt_dllmain_crt_thread_attach 0000000180033918     LIBCMT:utility.obj
 0002:00010918       $unwind$?initialize_multibyte@@YAHXZ 0000000180033918     libucrt:multibyte_initializer.obj
 0002:00010918       $unwind$??__Einitlocks@std@@YAXXZ 0000000180033918     libcpmt:iosptrs.obj
 0002:00010918       $unwind$__acrt_DownlevelLocaleNameToLCID 0000000180033918     libucrt:lcidtoname_downlevel.obj
 0002:00010918       $unwind$__scrt_dllmain_uninitialize_critical 0000000180033918     LIBCMT:utility.obj
 0002:00010918       $unwind$?_Lock@?$basic_filebuf@DU?$char_traits@D@std@@@std@@UEAAXXZ 0000000180033918     libcpmt:cout.obj
 0002:00010918       $unwind$__scrt_dllmain_uninitialize_c 0000000180033918     LIBCMT:utility.obj
 0002:00010918       $unwind$_get_osfhandle     0000000180033918     libucrt:osfinfo.obj
 0002:00010918       $unwind$__FrameUnwindFilter 0000000180033918     libvcruntime:frame.obj
 0002:00010918       $unwind$_wcsnicmp          0000000180033918     libucrt:wcsnicmp.obj
 0002:00010918       $unwind$__acrt_can_use_vista_locale_apis 0000000180033918     libucrt:winapi_thunks.obj
 0002:00010918       $unwind$_msize             0000000180033918     libucrt:msize.obj
 0002:00010918       $unwind$__acrt_initialize_heap 0000000180033918     libucrt:heap_handle.obj
 0002:00010918       $unwind$__scrt_dllmain_after_initialize_c 0000000180033918     LIBCMT:utility.obj
 0002:00010918       $unwind$fsetpos            0000000180033918     libucrt:fsetpos.obj
 0002:00010918       $unwind$uninitialize_environment 0000000180033918     libucrt:initialization.obj
 0002:00010918       $unwind$??$_Immortalize@V_Iostream_error_category@std@@@std@@YAAEAV_Iostream_error_category@0@XZ 0000000180033918     familyTree.obj
 0002:00010918       $unwind$_wcsicmp           0000000180033918     libucrt:wcsicmp.obj
 0002:00010918       $unwind$__scrt_dllmain_before_initialize_c 0000000180033918     LIBCMT:utility.obj
 0002:00010918       $unwind$__std_terminate    0000000180033918     libvcruntime:frame.obj
 0002:00010918       $unwind$__vcrt_freefls     0000000180033918     libvcruntime:per_thread_data.obj
 0002:00010918       $unwind$abort              0000000180033918     libucrt:abort.obj
 0002:00010918       $unwind$__crtDownlevelLocaleNameToLCID 0000000180033918     libcpmt:winapinls.obj
 0002:00010918       $unwind$__GSHandlerCheck   0000000180033918     LIBCMT:_gshandler_.obj
 0002:00010918       $unwind$?_Deallocate@std@@YAXPEAX_K1@Z 0000000180033918     familyTree.obj
 0002:00010918       $unwind$_stricmp           0000000180033918     libucrt:stricmp.obj
 0002:00010918       $unwind$??__Einitlocks@@YAXXZ 0000000180033918     libcpmt:cout.obj
 0002:00010918       $unwind$__acrt_initialize_command_line 0000000180033918     libucrt:argv_data.obj
 0002:00010918       $unwind$__scrt_acquire_startup_lock 0000000180033918     LIBCMT:utility.obj
 0002:00010918       $unwind$_errno             0000000180033918     libucrt:errno.obj
 0002:00010918       $unwind$atexit             0000000180033918     LIBCMT:utility.obj
 0002:00010918       $unwind$__doserrno         0000000180033918     libucrt:errno.obj
 0002:00010918       $unwind$initialize_c       0000000180033918     libucrt:initialization.obj
 0002:00010918       $unwind$??__F_Fac_tidy_reg@std@@YAXXZ 0000000180033918     libcpmt:locale0.obj
 0002:00010918       $unwind$__acrt_thread_detach 0000000180033918     libucrt:initialization.obj
 0002:00010918       $unwind$__vcrt_getptd      0000000180033918     libvcruntime:per_thread_data.obj
 0002:00010918       $unwind$__report_rangecheckfailure 0000000180033918     LIBCMT:gs_report.obj
 0002:00010918       $unwind$?_Locinfo_dtor@_Locinfo@std@@SAXPEAV12@@Z 0000000180033918     libcpmt:locale0.obj
 0002:00010918       $unwind$_fileno            0000000180033918     libucrt:fileno.obj
 0002:00010918       $unwind$__vcrt_uninitialize_ptd 0000000180033918     libvcruntime:per_thread_data.obj
 0002:00010918       $unwind$?dllmain_crt_dispatch@@YAHQEAUHINSTANCE__@@KQEAX@Z 0000000180033918     LIBCMT:dll_dllmain.obj
 0002:00010918       $unwind$__acrt_release_locale_ref 0000000180033918     libucrt:locale_refcounting.obj
 0002:00010918       $unwind$?_Xlen@?$basic_string@DU?$char_traits@D@std@@V?$allocator@D@2@@std@@QEBAXXZ 0000000180033918     familyTree.obj
 0002:00010918       $unwind$??__Ecout@std@@YAXXZ 0000000180033918     libcpmt:cout.obj
 0002:00010918       $unwind$_statfp            0000000180033918     libucrt:fpctrl.obj
 0002:00010918       $unwind$?allocate@?$_Wrap_alloc@V?$allocator@UNode@@@std@@@std@@QEAAPEAUNode@@_K@Z 0000000180033918     familyTree.obj
 0002:00010918       $unwind$__pctype_func      0000000180033918     libucrt:ctype.obj
 0002:00010918       $unwind$??__Einitlocks@std@@YAXXZ 0000000180033918     libcpmt:xlock.obj
 0002:00010918       $unwind$??__Eroot@@YAXXZ   0000000180033918     familyTree.obj
 0002:00010918       $unwind$_GetThrowImageBase 0000000180033918     libvcruntime:trnsctrl.obj
 0002:00010918       $unwind$_GetImageBase      0000000180033918     libvcruntime:trnsctrl.obj
 0002:00010918       $unwind$__acrt_initialize_multibyte 0000000180033918     libucrt:mbctype.obj
 0002:00010918       $unwind$__vcrt_initialize_ptd 0000000180033918     libvcruntime:per_thread_data.obj
 0002:00010918       $unwind$__vcrt_initialize  0000000180033918     libvcruntime:initialization.obj
 0002:00010918       $unwind$__dcrt_uninitialize_environments_nolock 0000000180033918     libucrt:environment_initialization.obj
 0002:00010918       $unwind$__vcrt_uninitialize 0000000180033918     libvcruntime:initialization.obj
 0002:00010918       $unwind$___lc_locale_name_func 0000000180033918     libucrt:initctype.obj
 0002:00010918       $unwind$__scrt_initialize_default_local_stdio_options 0000000180033918     LIBCMT:default_local_stdio_options.obj
 0002:00010918       $unwind$__acrt_thread_attach 0000000180033918     libucrt:initialization.obj
 0002:00010918       $unwind$?deallocate@?$_Wrap_alloc@V?$allocator@UNode@@@std@@@std@@QEAAXPEAUNode@@_K@Z 0000000180033918     familyTree.obj
 0002:00010918       $unwind$??1_Lockit@std@@QEAA@XZ 0000000180033918     libcpmt:xlock.obj
 0002:00010918       $unwind$_fgetc_nolock      0000000180033918     libucrt:fgetc.obj
 0002:00010918       $unwind$?__scrt_uninitialize_thread_safe_statics@@YAXXZ 0000000180033918     LIBCMT:thread_safe_statics.obj
 0002:00010918       $unwind$tidy_global        0000000180033918     libcpmt:locale0.obj
 0002:00010918       $unwind$__vcrt_thread_attach 0000000180033918     libvcruntime:initialization.obj
 0002:00010918       $unwind$__acrt_uninitialize_critical 0000000180033918     libucrt:initialization.obj
 0002:00010918       $unwind$__dcrt_terminate_console_output 0000000180033918     libucrt:initcon.obj
 0002:00010918       $unwind$?deallocate@?$_Wrap_alloc@V?$allocator@D@std@@@std@@QEAAXPEAD_K@Z 0000000180033918     familyTree.obj
 0002:00010918       $unwind$___lc_codepage_func 0000000180033918     libucrt:initctype.obj
 0002:00010918       $unwind$_get_stream_buffer_pointers 0000000180033918     libucrt:_file.obj
 0002:00010918       $unwind$?__GetCurrentState@@YAHPEA_KPEAU_xDISPATCHER_CONTEXT@@PEBU_s_FuncInfo@@@Z 0000000180033918     libvcruntime:ehstate.obj
 0002:00010918       $unwind$__vcrt_thread_detach 0000000180033918     libvcruntime:initialization.obj
 0002:00010918       $unwind$??$uninitialize_environment_internal@D@@YAXAEAPEAPEAD@Z 0000000180033918     libucrt:environment_initialization.obj
 0002:00010918       $unwind$_copytlocinfo_nolock 0000000180033918     libucrt:wsetlocale.obj
 0002:00010918       $unwind$??$uninitialize_environment_internal@_W@@YAXAEAPEAPEA_W@Z 0000000180033918     libucrt:environment_initialization.obj
 0002:00010918       $unwind$__acrt_uninitialize_ptd 0000000180033918     libucrt:per_thread_data.obj
 0002:00010918       $unwind$_isatty            0000000180033918     libucrt:isatty.obj
 0002:00010918       $unwind$__acrt_initialize_ptd 0000000180033918     libucrt:per_thread_data.obj
 0002:00010918       $unwind$?Init@demo@@YAXV?$Local@VObject@v8@@@v8@@0@Z 0000000180033918     familyTree.obj
 0002:00010920       $unwind$??0out_of_range@std@@QEAA@PEBD@Z 0000000180033920     libcpmt:xthrow.obj
 0002:00010920       $unwind$??0length_error@std@@QEAA@PEBD@Z 0000000180033920     libcpmt:xthrow.obj
 0002:00010920       $unwind$??$common_xtox_s@K_W@@YAHKQEA_W_KI_N@Z 0000000180033920     libucrt:xtoa.obj
 0002:00010920       $unwind$?equivalent@error_category@std@@UEBA_NHAEBVerror_condition@2@@Z 0000000180033920     familyTree.obj
 0002:00010920       $unwind$??0runtime_error@std@@QEAA@PEBD@Z 0000000180033920     libcpmt:cout.obj
 0002:00010920       $unwind$?flush@?$basic_ostream@DU?$char_traits@D@std@@@std@@QEAAAEAV12@XZ 0000000180033920     familyTree.obj
 0002:00010928       $unwind$??0_System_error@std@@IEAA@Verror_code@1@AEBV?$basic_string@DU?$char_traits@D@std@@V?$allocator@D@2@@1@@Z 0000000180033928     familyTree.obj
 0002:00010944       $unwind$?clear@ios_base@std@@QEAAXH_N@Z 0000000180033944     familyTree.obj
 0002:00010958       $chain$1$?clear@ios_base@std@@QEAAXH_N@Z 0000000180033958     familyTree.obj
 0002:00010970       $chain$2$?clear@ios_base@std@@QEAAXH_N@Z 0000000180033970     familyTree.obj
 0002:00010980       $chain$3$?clear@ios_base@std@@QEAAXH_N@Z 0000000180033980     familyTree.obj
 0002:00010998       $unwind$__acrt_getptd_noexit 0000000180033998     libucrt:per_thread_data.obj
 0002:00010998       $unwind$?clear@?$vector@UNode@@V?$allocator@UNode@@@std@@@std@@QEAAXXZ 0000000180033998     familyTree.obj
 0002:00010998       $unwind$?free_crt_array_internal@@YAXQEAPEBX_K@Z 0000000180033998     libucrt:inittime.obj
 0002:00010998       $unwind$__acrt_execute_uninitializers 0000000180033998     libucrt:shared_initialization.obj
 0002:00010998       $unwind$_initterm_e        0000000180033998     libucrt:initterm.obj
 0002:00010998       $unwind$?_Tidy@?$basic_string@DU?$char_traits@D@std@@V?$allocator@D@2@@std@@QEAAX_N_K@Z 0000000180033998     familyTree.obj
 0002:00010998       $unwind$?assign@?$basic_string@DU?$char_traits@D@std@@V?$allocator@D@2@@std@@QEAAAEAV12@PEBD_K@Z 0000000180033998     familyTree.obj
 0002:00010998       $unwind$?sync@?$basic_filebuf@DU?$char_traits@D@std@@@std@@MEAAHXZ 0000000180033998     libcpmt:cout.obj
 0002:00010998       $unwind$?reserve@?$basic_string@DU?$char_traits@D@std@@V?$allocator@D@2@@std@@QEAAX_K@Z 0000000180033998     familyTree.obj
 0002:00010998       $unwind$??4?$_Yarn@D@std@@QEAAAEAV01@PEBD@Z 0000000180033998     libcpmt:locale0.obj
 0002:00010998       $unwind$??$?6U?$char_traits@D@std@@@std@@YAAEAV?$basic_ostream@DU?$char_traits@D@std@@@0@AEAV10@PEBD@Z 0000000180033998     familyTree.obj
 0002:00010998       $unwind$_Init_thread_wait  0000000180033998     LIBCMT:thread_safe_statics.obj
 0002:00010998       $unwind$??R<lambda_ad1ced32f4ac17aa236e5ef05d6b3b7c>@@QEBAXXZ 0000000180033998     libucrt:mbctype.obj
 0002:00010998       $unwind$?push_back@?$vector@UNode@@V?$allocator@UNode@@@std@@@std@@QEAAXAEBUNode@@@Z 0000000180033998     familyTree.obj
 0002:00010998       $unwind$?push_back@?$vector@UNode@@V?$allocator@UNode@@@std@@@std@@QEAAX$$QEAUNode@@@Z 0000000180033998     familyTree.obj
 0002:00010998       $unwind$__acrt_FlsSetValue 0000000180033998     libucrt:winapi_thunks.obj
 0002:00010998       $unwind$__vcrt_getptd_noexit 0000000180033998     libvcruntime:per_thread_data.obj
 0002:00010998       $unwind$??$_Copy_unchecked@PEAUNode@@PEAU1@@std@@YAPEAUNode@@PEAU1@00@Z 0000000180033998     familyTree.obj
 0002:00010998       $unwind$__acrt_stdio_flush_nolock 0000000180033998     libucrt:fflush.obj
 0002:00010998       $unwind$__vcrt_FlsSetValue 0000000180033998     libvcruntime:winapi_downlevel.obj
 0002:00010998       $unwind$??0Detail@@QEAA@AEBU0@@Z 0000000180033998     familyTree.obj
 0002:00010998       $unwind$_RTC_Terminate     0000000180033998     LIBCMT:_initsect_.obj
 0002:00010998       $unwind$?underflow@?$basic_filebuf@DU?$char_traits@D@std@@@std@@MEAAHXZ 0000000180033998     libcpmt:cout.obj
 0002:00010998       $unwind$?_Initcvt@?$basic_filebuf@DU?$char_traits@D@std@@@std@@IEAAXPEBV?$codecvt@DDU_Mbstatet@@@2@@Z 0000000180033998     libcpmt:cout.obj
 0002:00010998       $unwind$??R<lambda_532e024f4337e6fc7ad266c2bef9f4ed>@@QEBA_KXZ 0000000180033998     libucrt:fwrite.obj
 0002:00010998       $unwind$_RTC_Initialize    0000000180033998     LIBCMT:_initsect_.obj
 0002:00010998       $unwind$__acrt_GetUserDefaultLocaleName 0000000180033998     libucrt:winapi_thunks.obj
 0002:00010998       $unwind$??0_Init_locks@std@@QEAA@XZ 0000000180033998     libcpmt:xlock.obj
 0002:00010998       $unwind$?__scrt_initialize_thread_safe_statics@@YAHXZ 0000000180033998     LIBCMT:thread_safe_statics.obj
 0002:00010998       $unwind$??$common_lseek_nolock@_J@@YA_JH_JH@Z 0000000180033998     libucrt:lseek.obj
 0002:00010998       $unwind$_DllMainCRTStartup 0000000180033998     LIBCMT:dll_dllmain.obj
 0002:00010998       $unwind$_exception_enabled 0000000180033998     libucrt:libm_error.obj
 0002:00010998       $unwind$__acrt_LocaleNameToLCID 0000000180033998     libucrt:winapi_thunks.obj
 0002:00010998       $unwind$__acrt_stdio_flush_and_write_narrow_nolock 0000000180033998     libucrt:_flsbuf.obj
 0002:00010998       $unwind$?_Tidy@ios_base@std@@AEAAXXZ 0000000180033998     libcpmt:ios.obj
 0002:000109a8       $unwind$__acrt_InitializeCriticalSectionEx 00000001800339a8     libucrt:winapi_thunks.obj
 0002:000109a8       $unwind$?do_tolower@?$ctype@D@std@@MEBAPEBDPEADPEBD@Z 00000001800339a8     libcpmt:cout.obj
 0002:000109a8       $unwind$?setSBCS@@YAXPEAU__crt_multibyte_data@@@Z 00000001800339a8     libucrt:mbctype.obj
 0002:000109a8       $unwind$_recalloc_base     00000001800339a8     libucrt:recalloc.obj
 0002:000109a8       $unwind$??$?HDU?$char_traits@D@std@@V?$allocator@D@1@@std@@YA?AV?$basic_string@DU?$char_traits@D@std@@V?$allocator@D@2@@0@AEBV10@PEBD@Z 00000001800339a8     familyTree.obj
 0002:000109a8       $unwind$?do_toupper@?$ctype@D@std@@MEBAPEBDPEADPEBD@Z 00000001800339a8     libcpmt:cout.obj
 0002:000109a8       $unwind$?dllmain_raw@@YAHQEAUHINSTANCE__@@KQEAX@Z 00000001800339a8     LIBCMT:dll_dllmain.obj
 0002:000109a8       $unwind$__crtInitializeCriticalSectionEx 00000001800339a8     libcpmt:winapisupp.obj
 0002:000109a8       $unwind$__acrt_free_locale 00000001800339a8     libucrt:locale_refcounting.obj
 0002:000109a8       $unwind$?append@?$basic_string@DU?$char_traits@D@std@@V?$allocator@D@2@@std@@QEAAAEAV12@_KD@Z 00000001800339a8     libcpmt:cout.obj
 0002:000109a8       $unwind$?expand_if_necessary@?$argument_list@D@?A0xca0879c4@@AEAAHXZ 00000001800339a8     libucrt:argv_wildcards.obj
 0002:000109a8       $unwind$??0Detail@@QEAA@AEBV?$basic_string@DU?$char_traits@D@std@@V?$allocator@D@2@@std@@000_N@Z 00000001800339a8     familyTree.obj
 0002:000109a8       $unwind$__acrt_lowio_create_handle_array 00000001800339a8     libucrt:osfinfo.obj
 0002:000109a8       $unwind$__vcrt_InitializeCriticalSectionEx 00000001800339a8     libvcruntime:winapi_downlevel.obj
 0002:000109a8       $unwind$__scrt_dllmain_exception_filter 00000001800339a8     LIBCMT:utility.obj
 0002:000109a8       $unwind$_seh_filter_exe    00000001800339a8     libucrt:exception_filter.obj
 0002:000109a8       $unwind$?_ExecutionInCatch@@YAHPEAU_xDISPATCHER_CONTEXT@@PEBU_s_FuncInfo@@@Z 00000001800339a8     libvcruntime:trnsctrl.obj
 0002:000109a8       $unwind$__acrt_execute_initializers 00000001800339a8     libucrt:shared_initialization.obj
 0002:000109bc       $unwind$?erase@?$basic_string@DU?$char_traits@D@std@@V?$allocator@D@2@@std@@QEAAAEAV12@_K0@Z 00000001800339bc     familyTree.obj
 0002:000109bc       $unwind$strncpy_s          00000001800339bc     libucrt:strncpy_s.obj
 0002:000109bc       $unwind$GetLcidFromLangCountry 00000001800339bc     libucrt:getqloc_downlevel.obj
 0002:000109bc       $unwind$?uflow@?$basic_streambuf@DU?$char_traits@D@std@@@std@@MEAAHXZ 00000001800339bc     libcpmt:cout.obj
 0002:000109bc       $unwind$??0_LocaleUpdate@@QEAA@QEAU__crt_locale_pointers@@@Z 00000001800339bc     libucrt:stricmp.obj
 0002:000109bc       $unwind$??0sentry@?$basic_ostream@DU?$char_traits@D@std@@@std@@QEAA@AEAV12@@Z 00000001800339bc     familyTree.obj
 0002:000109bc       $unwind$__vcrt_FlsFree     00000001800339bc     libvcruntime:winapi_downlevel.obj
 0002:000109bc       $unwind$__acrt_locale_initialize_time 00000001800339bc     libucrt:inittime.obj
 0002:000109bc       $unwind$__vcrt_FlsAlloc    00000001800339bc     libvcruntime:winapi_downlevel.obj
 0002:000109bc       $unwind$__vcrt_FlsGetValue 00000001800339bc     libvcruntime:winapi_downlevel.obj
 0002:000109bc       $unwind$_close_nolock      00000001800339bc     libucrt:close.obj
 0002:000109bc       $unwind$GetLocaleNameFromLangCountry 00000001800339bc     libucrt:get_qualified_locale.obj
 0002:000109bc       $unwind$??_Glogic_error@std@@UEAAPEAXI@Z 00000001800339bc     libcpmt:xthrow.obj
 0002:000109bc       $unwind$__acrt_FlsGetValue 00000001800339bc     libucrt:winapi_thunks.obj
 0002:000109bc       $unwind$__acrt_FlsFree     00000001800339bc     libucrt:winapi_thunks.obj
 0002:000109bc       $unwind$?pbackfail@?$basic_filebuf@DU?$char_traits@D@std@@@std@@MEAAHH@Z 00000001800339bc     libcpmt:cout.obj
 0002:000109bc       $unwind$??_G?$basic_streambuf@DU?$char_traits@D@std@@@std@@UEAAPEAXI@Z 00000001800339bc     libcpmt:cout.obj
 0002:000109bc       $unwind$?DloadAcquireSectionWriteAccess@@YAXXZ 00000001800339bc     DelayImp:delayhlp.obj
 0002:000109bc       $unwind$??_Glength_error@std@@UEAAPEAXI@Z 00000001800339bc     libcpmt:xthrow.obj
 0002:000109bc       $unwind$??_Gbad_alloc@std@@UEAAPEAXI@Z 00000001800339bc     libcpmt:xthrow.obj
 0002:000109bc       $unwind$GetLocaleNameFromLanguage 00000001800339bc     libucrt:get_qualified_locale.obj
 0002:000109bc       $unwind$wcsncpy_s          00000001800339bc     libucrt:wcsncpy_s.obj
 0002:000109bc       $unwind$?_Locinfo_ctor@_Locinfo@std@@SAXPEAV12@PEBD@Z 00000001800339bc     libcpmt:locale0.obj
 0002:000109bc       $unwind$fgetpos            00000001800339bc     libucrt:fgetpos.obj
 0002:000109bc       $unwind$?internal_isupper_l@@YA_NHQEAU__crt_locale_pointers@@@Z 00000001800339bc     libucrt:tolower_toupper.obj
 0002:000109bc       $unwind$??0?$basic_string@DU?$char_traits@D@std@@V?$allocator@D@2@@std@@QEAA@$$QEAV01@@Z 00000001800339bc     familyTree.obj
 0002:000109bc       $unwind$?DloadGetSRWLockFunctionPointers@@YAEXZ 00000001800339bc     DelayImp:delayhlp.obj
 0002:000109bc       $unwind$__acrt_errno_map_os_error 00000001800339bc     libucrt:errno.obj
 0002:000109bc       $unwind$?replace_current_thread_locale_nolock@@YAXQEAU__acrt_ptd@@QEAU__crt_locale_data@@@Z 00000001800339bc     libucrt:per_thread_data.obj
 0002:000109bc       $unwind$??_Gexception@std@@UEAAPEAXI@Z 00000001800339bc     libcpmt:cout.obj
 0002:000109bc       $unwind$GetLcidFromLanguage 00000001800339bc     libucrt:getqloc_downlevel.obj
 0002:000109bc       $unwind$_callnewh          00000001800339bc     libucrt:new_handler.obj
 0002:000109bc       $unwind$?try_cor_exit_process@@YAXI@Z 00000001800339bc     libucrt:exit.obj
 0002:000109bc       $unwind$?ExFilterRethrow@@YAHPEAU_EXCEPTION_POINTERS@@PEAUEHExceptionRecord@@PEAH@Z 00000001800339bc     libvcruntime:frame.obj
 0002:000109bc       $unwind$_ungetc_nolock     00000001800339bc     libucrt:ungetc.obj
 0002:000109bc       $unwind$??1_Init_locks@std@@QEAA@XZ 00000001800339bc     libcpmt:xlock.obj
 0002:000109bc       $unwind$??4?$basic_string@DU?$char_traits@D@std@@V?$allocator@D@2@@std@@QEAAAEAV01@$$QEAV01@@Z 00000001800339bc     familyTree.obj
 0002:000109bc       $unwind$__acrt_getptd      00000001800339bc     libucrt:per_thread_data.obj
 0002:000109bc       $unwind$??$common_initialize_environment_nolock@D@@YAHXZ 00000001800339bc     libucrt:environment_initialization.obj
 0002:000109bc       $unwind$??$common_xtox@K_W@@YAHKQEA_W_KI_N@Z 00000001800339bc     libucrt:xtoa.obj
 0002:000109bc       $unwind$__acrt_invoke_user_matherr 00000001800339bc     libucrt:matherr.obj
 0002:000109bc       $unwind$?_New_Locimp@_Locimp@locale@std@@CAPEAV123@_N@Z 00000001800339bc     libcpmt:locale0.obj
 0002:000109bc       $unwind$?_Assign_rv@?$basic_string@DU?$char_traits@D@std@@V?$allocator@D@2@@std@@QEAAX$$QEAV12@@Z 00000001800339bc     familyTree.obj
 0002:000109bc       $unwind$??_G?$ctype@D@std@@MEAAPEAXI@Z 00000001800339bc     libcpmt:cout.obj
 0002:000109bc       $unwind$??_G?$basic_filebuf@DU?$char_traits@D@std@@@std@@UEAAPEAXI@Z 00000001800339bc     libcpmt:cout.obj
 0002:000109bc       $unwind$??_Gbad_array_new_length@std@@UEAAPEAXI@Z 00000001800339bc     LIBCMT:throw_bad_alloc.obj
 0002:000109bc       $unwind$??_Gbad_cast@std@@UEAAPEAXI@Z 00000001800339bc     libcpmt:cout.obj
 0002:000109bc       $unwind$__acrt_stdio_begin_temporary_buffering_nolock 00000001800339bc     libucrt:_sftbuf.obj
 0002:000109bc       $unwind$_FindAndUnlinkFrame 00000001800339bc     libvcruntime:trnsctrl.obj
 0002:000109bc       $unwind$??4Detail@@QEAAAEAU0@AEBU0@@Z 00000001800339bc     familyTree.obj
 0002:000109bc       $unwind$__acrt_uninitialize_lowio 00000001800339bc     libucrt:ioinit.obj
 0002:000109bc       $unwind$_realloc_base      00000001800339bc     libucrt:realloc_base.obj
 0002:000109bc       $unwind$?_Buy@?$vector@UNode@@V?$allocator@UNode@@@std@@@std@@IEAA_N_K@Z 00000001800339bc     familyTree.obj
 0002:000109bc       $unwind$__acrt_IsValidLocaleName 00000001800339bc     libucrt:winapi_thunks.obj
 0002:000109bc       $unwind$_fclose_nolock     00000001800339bc     libucrt:fclose.obj
 0002:000109bc       $unwind$??_Gout_of_range@std@@UEAAPEAXI@Z 00000001800339bc     libcpmt:xthrow.obj
 0002:000109bc       $unwind$??4Node@@QEAAAEAU0@AEBU0@@Z 00000001800339bc     familyTree.obj
 0002:000109bc       $unwind$_updatetlocinfoEx_nolock 00000001800339bc     libucrt:locale_refcounting.obj
 0002:000109bc       $unwind$??_Gbad_exception@std@@UEAAPEAXI@Z 00000001800339bc     libvcruntime:frame.obj
 0002:000109bc       $unwind$?<helper_func_cdecl>@<lambda_e2bb8337c48846e80c921ea5ddadc92d>@@CAHPEA_W@Z 00000001800339bc     libucrt:winapi_thunks.obj
 0002:000109bc       $unwind$_Deletegloballocale 00000001800339bc     libcpmt:locale0.obj
 0002:000109bc       $unwind$__acrt_FlsAlloc    00000001800339bc     libucrt:winapi_thunks.obj
 0002:000109bc       $unwind$??0Node@@QEAA@AEBU0@@Z 00000001800339bc     familyTree.obj
 0002:000109bc       $unwind$?__SetUnwindTryBlock@@YAXPEA_KPEAU_xDISPATCHER_CONTEXT@@PEBU_s_FuncInfo@@H@Z 00000001800339bc     libvcruntime:ehstate.obj
 0002:000109c8       $unwind$??0familyTree@@QEAA@XZ 00000001800339c8     familyTree.obj
 0002:000109e8       $unwind$?addToParent@familyTree@@QEAA?AUtoReturn@@AEBUDetail@@AEBI@Z 00000001800339e8     familyTree.obj
 0002:00010a04       $unwind$?addToCouple@familyTree@@QEAA?AUtoReturn@@AEBUDetail@@AEBI@Z 0000000180033a04     familyTree.obj
 0002:00010a1c       $unwind$?addToSublings@familyTree@@QEAA?AUtoReturn@@AEBUDetail@@AEBI@Z 0000000180033a1c     familyTree.obj
 0002:00010a38       $unwind$?addToChildren@familyTree@@QEAA?AUtoReturn@@AEBUDetail@@AEBI@Z 0000000180033a38     familyTree.obj
 0002:00010a50       $unwind$?deleteSubTree@familyTree@@QEAA?AUtoReturn@@AEBI@Z 0000000180033a50     familyTree.obj
 0002:00010a64       $chain$1$?deleteSubTree@familyTree@@QEAA?AUtoReturn@@AEBI@Z 0000000180033a64     familyTree.obj
 0002:00010a7c       $chain$2$?deleteSubTree@familyTree@@QEAA?AUtoReturn@@AEBI@Z 0000000180033a7c     familyTree.obj
 0002:00010a7c       $chain$4$?deleteSubTree@familyTree@@QEAA?AUtoReturn@@AEBI@Z 0000000180033a7c     familyTree.obj
 0002:00010a8c       $chain$3$?deleteSubTree@familyTree@@QEAA?AUtoReturn@@AEBI@Z 0000000180033a8c     familyTree.obj
 0002:00010aa4       $unwind$?traverse@@YAPEAUNode@@PEAU1@AEBI@Z 0000000180033aa4     familyTree.obj
 0002:00010ab8       $unwind$?nodeToString@familyTree@@QEAA?AV?$basic_string@DU?$char_traits@D@std@@V?$allocator@D@2@@std@@AEAUNode@@@Z 0000000180033ab8     familyTree.obj
 0002:00010ad4       $unwind$?printTree@familyTree@@QEAA?AV?$basic_string@DU?$char_traits@D@std@@V?$allocator@D@2@@std@@XZ 0000000180033ad4     familyTree.obj
 0002:00010aec       $unwind$?NODE_SET_METHOD@node@@YAXV?$Local@VObject@v8@@@v8@@PEBDP6AXAEBV?$FunctionCallbackInfo@VValue@v8@@@3@@Z@Z 0000000180033aec     familyTree.obj
 0002:00010af4       $unwind$??__Froot@@YAXXZ   0000000180033af4     familyTree.obj
 0002:00010afc       $chain$0$??__Froot@@YAXXZ  0000000180033afc     familyTree.obj
 0002:00010b10       $chain$1$??__Froot@@YAXXZ  0000000180033b10     familyTree.obj
 0002:00010b20       $unwind$?CreateObject@demo@@YAXAEBV?$FunctionCallbackInfo@VValue@v8@@@v8@@@Z 0000000180033b20     familyTree.obj
 0002:00010b34       $chain$1$?CreateObject@demo@@YAXAEBV?$FunctionCallbackInfo@VValue@v8@@@v8@@@Z 0000000180033b34     familyTree.obj
 0002:00010b4c       $chain$4$?CreateObject@demo@@YAXAEBV?$FunctionCallbackInfo@VValue@v8@@@v8@@@Z 0000000180033b4c     familyTree.obj
 0002:00010b68       $chain$5$?CreateObject@demo@@YAXAEBV?$FunctionCallbackInfo@VValue@v8@@@v8@@@Z 0000000180033b68     familyTree.obj
 0002:00010b78       $chain$6$?CreateObject@demo@@YAXAEBV?$FunctionCallbackInfo@VValue@v8@@@v8@@@Z 0000000180033b78     familyTree.obj
 0002:00010b88       $unwind$??4?$vector@UNode@@V?$allocator@UNode@@@std@@@std@@QEAAAEAV01@AEBV01@@Z 0000000180033b88     familyTree.obj
 0002:00010b94       $chain$2$??4?$vector@UNode@@V?$allocator@UNode@@@std@@@std@@QEAAAEAV01@AEBV01@@Z 0000000180033b94     familyTree.obj
 0002:00010bb0       $chain$3$??4?$vector@UNode@@V?$allocator@UNode@@@std@@@std@@QEAAAEAV01@AEBV01@@Z 0000000180033bb0     familyTree.obj
 0002:00010bc0       $unwind$??0?$vector@UNode@@V?$allocator@UNode@@@std@@@std@@QEAA@AEBV01@@Z 0000000180033bc0     familyTree.obj
 0002:00010bd0       $chain$1$??0?$vector@UNode@@V?$allocator@UNode@@@std@@@std@@QEAA@AEBV01@@Z 0000000180033bd0     familyTree.obj
 0002:00010be8       $chain$2$??0?$vector@UNode@@V?$allocator@UNode@@@std@@@std@@QEAA@AEBV01@@Z 0000000180033be8     familyTree.obj
 0002:00010bf8       $unwind$__acrt_is_packaged_app 0000000180033bf8     libucrt:winapi_thunks.obj
 0002:00010bf8       $unwind$iswctype           0000000180033bf8     libucrt:iswctype.obj
 0002:00010bf8       $unwind$?_Tidy@?$vector@UNode@@V?$allocator@UNode@@@std@@@std@@IEAAXXZ 0000000180033bf8     familyTree.obj
 0002:00010c04       $chain$0$?_Tidy@?$vector@UNode@@V?$allocator@UNode@@@std@@@std@@IEAAXXZ 0000000180033c04     familyTree.obj
 0002:00010c18       $chain$1$?_Tidy@?$vector@UNode@@V?$allocator@UNode@@@std@@@std@@IEAAXXZ 0000000180033c18     familyTree.obj
 0002:00010c28       $unwind$?_Destroy@?$vector@UNode@@V?$allocator@UNode@@@std@@@std@@IEAAXPEAUNode@@0@Z 0000000180033c28     familyTree.obj
 0002:00010c30       $chain$0$?_Destroy@?$vector@UNode@@V?$allocator@UNode@@@std@@@std@@IEAAXPEAUNode@@0@Z 0000000180033c30     familyTree.obj
 0002:00010c44       $chain$1$?_Destroy@?$vector@UNode@@V?$allocator@UNode@@@std@@@std@@IEAAXPEAUNode@@0@Z 0000000180033c44     familyTree.obj
 0002:00010c54       $unwind$_free_osfhnd       0000000180033c54     libucrt:osfinfo.obj
 0002:00010c54       $unwind$?assign@?$basic_string@DU?$char_traits@D@std@@V?$allocator@D@2@@std@@QEAAAEAV12@AEBV12@_K1@Z 0000000180033c54     familyTree.obj
 0002:00010c54       $unwind$?initialize_stdio_handles_nolock@@YAXXZ 0000000180033c54     libucrt:ioinit.obj
 0002:00010c54       $unwind$_wcstombs_s_l      0000000180033c54     libucrt:wcstombs.obj
 0002:00010c54       $unwind$__std_exception_copy 0000000180033c54     libvcruntime:std_exception.obj
 0002:00010c68       $unwind$?append@?$basic_string@DU?$char_traits@D@std@@V?$allocator@D@2@@std@@QEAAAEAV12@PEBD_K@Z 0000000180033c68     familyTree.obj
 0002:00010c78       $chain$0$?append@?$basic_string@DU?$char_traits@D@std@@V?$allocator@D@2@@std@@QEAAAEAV12@PEBD_K@Z 0000000180033c78     familyTree.obj
 0002:00010c8c       $chain$1$?append@?$basic_string@DU?$char_traits@D@std@@V?$allocator@D@2@@std@@QEAAAEAV12@PEBD_K@Z 0000000180033c8c     familyTree.obj
 0002:00010c9c       $chain$2$?append@?$basic_string@DU?$char_traits@D@std@@V?$allocator@D@2@@std@@QEAAAEAV12@PEBD_K@Z 0000000180033c9c     familyTree.obj
 0002:00010cb0       $unwind$?append@?$basic_string@DU?$char_traits@D@std@@V?$allocator@D@2@@std@@QEAAAEAV12@AEBV12@_K1@Z 0000000180033cb0     familyTree.obj
 0002:00010cc4       $chain$0$?append@?$basic_string@DU?$char_traits@D@std@@V?$allocator@D@2@@std@@QEAAAEAV12@AEBV12@_K1@Z 0000000180033cc4     familyTree.obj
 0002:00010cd8       $chain$1$?append@?$basic_string@DU?$char_traits@D@std@@V?$allocator@D@2@@std@@QEAAAEAV12@AEBV12@_K1@Z 0000000180033cd8     familyTree.obj
 0002:00010ce8       $chain$2$?append@?$basic_string@DU?$char_traits@D@std@@V?$allocator@D@2@@std@@QEAAAEAV12@AEBV12@_K1@Z 0000000180033ce8     familyTree.obj
 0002:00010cfc       $unwind$?_Reallocate@?$vector@UNode@@V?$allocator@UNode@@@std@@@std@@IEAAX_K@Z 0000000180033cfc     familyTree.obj
 0002:00010d0c       $chain$3$?_Reallocate@?$vector@UNode@@V?$allocator@UNode@@@std@@@std@@IEAAX_K@Z 0000000180033d0c     familyTree.obj
 0002:00010d2c       $chain$4$?_Reallocate@?$vector@UNode@@V?$allocator@UNode@@@std@@@std@@IEAAX_K@Z 0000000180033d2c     familyTree.obj
 0002:00010d3c       $chain$5$?_Reallocate@?$vector@UNode@@V?$allocator@UNode@@@std@@@std@@IEAAX_K@Z 0000000180033d3c     familyTree.obj
 0002:00010d5c       $unwind$?_Copy@?$basic_string@DU?$char_traits@D@std@@V?$allocator@D@2@@std@@QEAAX_K0@Z 0000000180033d5c     familyTree.obj
 0002:00010d70       $unwind$??$_Integral_to_string@DI@std@@YA?AV?$basic_string@DU?$char_traits@D@std@@V?$allocator@D@2@@0@I@Z 0000000180033d70     familyTree.obj
 0002:00010d80       $unwind$?insert@?$basic_string@DU?$char_traits@D@std@@V?$allocator@D@2@@std@@QEAAAEAV12@_KPEBD0@Z 0000000180033d80     familyTree.obj
 0002:00010d90       $chain$0$?insert@?$basic_string@DU?$char_traits@D@std@@V?$allocator@D@2@@std@@QEAAAEAV12@_KPEBD0@Z 0000000180033d90     familyTree.obj
 0002:00010da4       $chain$1$?insert@?$basic_string@DU?$char_traits@D@std@@V?$allocator@D@2@@std@@QEAAAEAV12@_KPEBD0@Z 0000000180033da4     familyTree.obj
 0002:00010db4       $chain$2$?insert@?$basic_string@DU?$char_traits@D@std@@V?$allocator@D@2@@std@@QEAAAEAV12@_KPEBD0@Z 0000000180033db4     familyTree.obj
 0002:00010dc8       $unwind$?insert@?$basic_string@DU?$char_traits@D@std@@V?$allocator@D@2@@std@@QEAAAEAV12@_KAEBV12@00@Z 0000000180033dc8     familyTree.obj
 0002:00010dd8       $chain$0$?insert@?$basic_string@DU?$char_traits@D@std@@V?$allocator@D@2@@std@@QEAAAEAV12@_KAEBV12@00@Z 0000000180033dd8     familyTree.obj
 0002:00010dec       $chain$1$?insert@?$basic_string@DU?$char_traits@D@std@@V?$allocator@D@2@@std@@QEAAAEAV12@_KAEBV12@00@Z 0000000180033dec     familyTree.obj
 0002:00010e00       $chain$3$?insert@?$basic_string@DU?$char_traits@D@std@@V?$allocator@D@2@@std@@QEAAAEAV12@_KAEBV12@00@Z 0000000180033e00     familyTree.obj
 0002:00010e10       $chain$4$?insert@?$basic_string@DU?$char_traits@D@std@@V?$allocator@D@2@@std@@QEAAAEAV12@_KAEBV12@00@Z 0000000180033e10     familyTree.obj
 0002:00010e24       $chain$5$?insert@?$basic_string@DU?$char_traits@D@std@@V?$allocator@D@2@@std@@QEAAAEAV12@_KAEBV12@00@Z 0000000180033e24     familyTree.obj
 0002:00010e3c       $chain$0$?flush@?$basic_ostream@DU?$char_traits@D@std@@@std@@QEAAAEAV12@XZ 0000000180033e3c     familyTree.obj
 0002:00010e50       $chain$1$?flush@?$basic_ostream@DU?$char_traits@D@std@@@std@@QEAAAEAV12@XZ 0000000180033e50     familyTree.obj
 0002:00010e60       $unwind$??$_Move_unchecked1@PEAUNode@@PEAU1@@std@@YAPEAUNode@@PEAU1@00U_General_ptr_iterator_tag@0@@Z 0000000180033e60     familyTree.obj
 0002:00010e6c       $chain$1$??$_Move_unchecked1@PEAUNode@@PEAU1@@std@@YAPEAUNode@@PEAU1@00U_General_ptr_iterator_tag@0@@Z 0000000180033e6c     familyTree.obj
 0002:00010e84       $chain$2$??$_Move_unchecked1@PEAUNode@@PEAU1@@std@@YAPEAUNode@@PEAU1@00U_General_ptr_iterator_tag@0@@Z 0000000180033e84     familyTree.obj
 0002:00010e94       $unwind$??$_Uninitialized_move_al_unchecked1@PEAUNode@@PEAU1@V?$allocator@UNode@@@std@@@std@@YAPEAUNode@@PEAU1@00AEAU?$_Wrap_alloc@V?$allocator@UNode@@@std@@@0@U_General_ptr_iterator_tag@0@U_Any_tag@0@@Z 0000000180033e94     familyTree.obj
 0002:00010e94       $unwind$??$_Uninitialized_copy_al_unchecked1@PEAUNode@@PEAU1@V?$allocator@UNode@@@std@@@std@@YAPEAUNode@@PEAU1@00AEAU?$_Wrap_alloc@V?$allocator@UNode@@@std@@@0@U_General_ptr_iterator_tag@0@U_Any_tag@0@@Z 0000000180033e94     familyTree.obj
 0002:00010ea0       $chain$0$??$_Uninitialized_copy_al_unchecked1@PEAUNode@@PEAU1@V?$allocator@UNode@@@std@@@std@@YAPEAUNode@@PEAU1@00AEAU?$_Wrap_alloc@V?$allocator@UNode@@@std@@@0@U_General_ptr_iterator_tag@0@U_Any_tag@0@@Z 0000000180033ea0     familyTree.obj
 0002:00010ea0       $chain$0$??$_Uninitialized_move_al_unchecked1@PEAUNode@@PEAU1@V?$allocator@UNode@@@std@@@std@@YAPEAUNode@@PEAU1@00AEAU?$_Wrap_alloc@V?$allocator@UNode@@@std@@@0@U_General_ptr_iterator_tag@0@U_Any_tag@0@@Z 0000000180033ea0     familyTree.obj
 0002:00010eb4       $chain$1$??$_Uninitialized_copy_al_unchecked1@PEAUNode@@PEAU1@V?$allocator@UNode@@@std@@@std@@YAPEAUNode@@PEAU1@00AEAU?$_Wrap_alloc@V?$allocator@UNode@@@std@@@0@U_General_ptr_iterator_tag@0@U_Any_tag@0@@Z 0000000180033eb4     familyTree.obj
 0002:00010eb4       $chain$1$??$_Uninitialized_move_al_unchecked1@PEAUNode@@PEAU1@V?$allocator@UNode@@@std@@@std@@YAPEAUNode@@PEAU1@00AEAU?$_Wrap_alloc@V?$allocator@UNode@@@std@@@0@U_General_ptr_iterator_tag@0@U_Any_tag@0@@Z 0000000180033eb4     familyTree.obj
 0002:00010ec4       xdata                      0000000180033ec4     node:node.exe
 0002:00010ecc       $unwind$??0_Locinfo@std@@QEAA@PEBD@Z 0000000180033ecc     libcpmt:cout.obj
 0002:00010ee0       $stateUnwindMap$??0_Locinfo@std@@QEAA@PEBD@Z 0000000180033ee0     libcpmt:cout.obj
 0002:00010f20       $ip2state$??0_Locinfo@std@@QEAA@PEBD@Z 0000000180033f20     libcpmt:cout.obj
 0002:00010f68       $unwind$??1_Locinfo@std@@QEAA@XZ 0000000180033f68     libcpmt:cout.obj
 0002:00010f78       $ip2state$??1_Locinfo@std@@QEAA@XZ 0000000180033f78     libcpmt:cout.obj
 0002:00010f80       $unwind$??1locale@std@@QEAA@XZ 0000000180033f80     libcpmt:cout.obj
 0002:00010f98       $ip2state$??1locale@std@@QEAA@XZ 0000000180033f98     libcpmt:cout.obj
 0002:00010fa0       $unwind$??_Glocale@std@@QEAAPEAXI@Z 0000000180033fa0     libcpmt:cout.obj
 0002:00010fc0       $ip2state$??_Glocale@std@@QEAAPEAXI@Z 0000000180033fc0     libcpmt:cout.obj
 0002:00010fd8       $unwind$?_Getcat@?$ctype@D@std@@SA_KPEAPEBVfacet@locale@2@PEBV42@@Z 0000000180033fd8     libcpmt:cout.obj
 0002:00010ff8       $stateUnwindMap$?_Getcat@?$ctype@D@std@@SA_KPEAPEBVfacet@locale@2@PEBV42@@Z 0000000180033ff8     libcpmt:cout.obj
 0002:00011000       $ip2state$?_Getcat@?$ctype@D@std@@SA_KPEAPEBVfacet@locale@2@PEBV42@@Z 0000000180034000     libcpmt:cout.obj
 0002:00011018       $unwind$??$use_facet@V?$ctype@D@std@@@std@@YAAEBV?$ctype@D@0@AEBVlocale@0@@Z 0000000180034018     libcpmt:cout.obj
 0002:00011030       $stateUnwindMap$??$use_facet@V?$ctype@D@std@@@std@@YAAEBV?$ctype@D@0@AEBVlocale@0@@Z 0000000180034030     libcpmt:cout.obj
 0002:00011030       $stateUnwindMap$??$use_facet@V?$codecvt@DDU_Mbstatet@@@std@@@std@@YAAEBV?$codecvt@DDU_Mbstatet@@@0@AEBVlocale@0@@Z 0000000180034030     libcpmt:cout.obj
 0002:00011038       $ip2state$??$use_facet@V?$ctype@D@std@@@std@@YAAEBV?$ctype@D@0@AEBVlocale@0@@Z 0000000180034038     libcpmt:cout.obj
 0002:00011050       $unwind$?getloc@ios_base@std@@QEBA?AVlocale@2@XZ 0000000180034050     libcpmt:cout.obj
 0002:00011068       $ip2state$?getloc@ios_base@std@@QEBA?AVlocale@2@XZ 0000000180034068     libcpmt:cout.obj
 0002:00011080       $unwind$?_Init@ios_base@std@@IEAAXXZ 0000000180034080     libcpmt:cout.obj
 0002:00011098       $ip2state$?_Init@ios_base@std@@IEAAXXZ 0000000180034098     libcpmt:cout.obj
 0002:000110b0       $unwind$??_Gios_base@std@@UEAAPEAXI@Z 00000001800340b0     libcpmt:cout.obj
 0002:000110c8       $ip2state$??_Gios_base@std@@UEAAPEAXI@Z 00000001800340c8     libcpmt:cout.obj
 0002:000110e0       $unwind$??0?$basic_streambuf@DU?$char_traits@D@std@@@std@@IEAA@XZ 00000001800340e0     libcpmt:cout.obj
 0002:000110f8       $ip2state$??0?$basic_streambuf@DU?$char_traits@D@std@@@std@@IEAA@XZ 00000001800340f8     libcpmt:cout.obj
 0002:00011110       $unwind$?xsputn@?$basic_streambuf@DU?$char_traits@D@std@@@std@@MEAA_JPEBD_J@Z 0000000180034110     libcpmt:cout.obj
 0002:00011128       $unwind$??1?$basic_filebuf@DU?$char_traits@D@std@@@std@@UEAA@XZ 0000000180034128     libcpmt:cout.obj
 0002:00011138       $ip2state$??1?$basic_filebuf@DU?$char_traits@D@std@@@std@@UEAA@XZ 0000000180034138     libcpmt:cout.obj
 0002:00011140       $unwind$?overflow@?$basic_filebuf@DU?$char_traits@D@std@@@std@@MEAAHH@Z 0000000180034140     libcpmt:cout.obj
 0002:00011168       $stateUnwindMap$?uflow@?$basic_filebuf@DU?$char_traits@D@std@@@std@@MEAAHXZ 0000000180034168     libcpmt:cout.obj
 0002:00011168       $stateUnwindMap$?overflow@?$basic_filebuf@DU?$char_traits@D@std@@@std@@MEAAHH@Z 0000000180034168     libcpmt:cout.obj
 0002:00011170       $ip2state$?overflow@?$basic_filebuf@DU?$char_traits@D@std@@@std@@MEAAHH@Z 0000000180034170     libcpmt:cout.obj
 0002:00011188       $unwind$?uflow@?$basic_filebuf@DU?$char_traits@D@std@@@std@@MEAAHXZ 0000000180034188     libcpmt:cout.obj
 0002:000111b8       $ip2state$?uflow@?$basic_filebuf@DU?$char_traits@D@std@@@std@@MEAAHXZ 00000001800341b8     libcpmt:cout.obj
 0002:000111d0       $unwind$?seekoff@?$basic_filebuf@DU?$char_traits@D@std@@@std@@MEAA?AV?$fpos@U_Mbstatet@@@2@_JHH@Z 00000001800341d0     libcpmt:cout.obj
 0002:000111e4       $unwind$?seekpos@?$basic_filebuf@DU?$char_traits@D@std@@@std@@MEAA?AV?$fpos@U_Mbstatet@@@2@V32@H@Z 00000001800341e4     libcpmt:cout.obj
 0002:000111f8       $unwind$?_Init@?$basic_filebuf@DU?$char_traits@D@std@@@std@@IEAAXPEAU_iobuf@@W4_Initfl@12@@Z 00000001800341f8     libcpmt:cout.obj
 0002:00011204       $unwind$?_Endwrite@?$basic_filebuf@DU?$char_traits@D@std@@@std@@IEAA_NXZ 0000000180034204     libcpmt:cout.obj
 0002:0001122c       $stateUnwindMap$?_Endwrite@?$basic_filebuf@DU?$char_traits@D@std@@@std@@IEAA_NXZ 000000018003422c     libcpmt:cout.obj
 0002:00011238       $ip2state$?_Endwrite@?$basic_filebuf@DU?$char_traits@D@std@@@std@@IEAA_NXZ 0000000180034238     libcpmt:cout.obj
 0002:00011250       $unwind$??1?$basic_ios@DU?$char_traits@D@std@@@std@@UEAA@XZ 0000000180034250     libcpmt:cout.obj
 0002:00011260       $ip2state$??1?$basic_ios@DU?$char_traits@D@std@@@std@@UEAA@XZ 0000000180034260     libcpmt:cout.obj
 0002:00011278       $unwind$?widen@?$basic_ios@DU?$char_traits@D@std@@@std@@QEBADD@Z 0000000180034278     libcpmt:cout.obj
 0002:00011294       $stateUnwindMap$?widen@?$basic_ios@DU?$char_traits@D@std@@@std@@QEBADD@Z 0000000180034294     libcpmt:cout.obj
 0002:000112a8       $ip2state$?widen@?$basic_ios@DU?$char_traits@D@std@@@std@@QEBADD@Z 00000001800342a8     libcpmt:cout.obj
 0002:000112c8       $unwind$??_G?$basic_ios@DU?$char_traits@D@std@@@std@@UEAAPEAXI@Z 00000001800342c8     libcpmt:cout.obj
 0002:000112dc       $stateUnwindMap$?getloc@ios_base@std@@QEBA?AVlocale@2@XZ 00000001800342dc     libcpmt:cout.obj
 0002:000112dc       $stateUnwindMap$??_Glocale@std@@QEAAPEAXI@Z 00000001800342dc     libcpmt:cout.obj
 0002:000112dc       $stateUnwindMap$??1?$basic_ios@DU?$char_traits@D@std@@@std@@UEAA@XZ 00000001800342dc     libcpmt:cout.obj
 0002:000112dc       $stateUnwindMap$??_G?$basic_ios@DU?$char_traits@D@std@@@std@@UEAAPEAXI@Z 00000001800342dc     libcpmt:cout.obj
 0002:000112dc       $stateUnwindMap$??_G?$basic_ostream@DU?$char_traits@D@std@@@std@@UEAAPEAXI@Z 00000001800342dc     libcpmt:cout.obj
 0002:000112dc       $stateUnwindMap$??_G_Fac_node@std@@QEAAPEAXI@Z 00000001800342dc     libcpmt:locale0.obj
 0002:000112dc       $stateUnwindMap$?_Init@ios_base@std@@IEAAXXZ 00000001800342dc     libcpmt:cout.obj
 0002:000112dc       $stateUnwindMap$??__Fcout@std@@YAXXZ 00000001800342dc     libcpmt:cout.obj
 0002:000112dc       $stateUnwindMap$??_G_Locimp@locale@std@@MEAAPEAXI@Z 00000001800342dc     libcpmt:locale0.obj
 0002:000112dc       $stateUnwindMap$??__Fclassic_locale@std@@YAXXZ 00000001800342dc     libcpmt:locale0.obj
 0002:000112dc       $stateUnwindMap$??__Finit_atexit@@YAXXZ 00000001800342dc     libcpmt:iosptrs.obj
 0002:000112dc       $stateUnwindMap$??0?$basic_streambuf@DU?$char_traits@D@std@@@std@@IEAA@XZ 00000001800342dc     libcpmt:cout.obj
 0002:000112dc       $stateUnwindMap$??_Gios_base@std@@UEAAPEAXI@Z 00000001800342dc     libcpmt:cout.obj
 0002:000112e8       $ip2state$??_G?$basic_ios@DU?$char_traits@D@std@@@std@@UEAAPEAXI@Z 00000001800342e8     libcpmt:cout.obj
 0002:00011300       $unwind$??0?$basic_ostream@DU?$char_traits@D@std@@@std@@QEAA@PEAV?$basic_streambuf@DU?$char_traits@D@std@@@1@_N@Z 0000000180034300     libcpmt:cout.obj
 0002:00011318       $stateUnwindMap$??0?$basic_ostream@DU?$char_traits@D@std@@@std@@QEAA@PEAV?$basic_streambuf@DU?$char_traits@D@std@@@1@_N@Z 0000000180034318     libcpmt:cout.obj
 0002:00011320       $ip2state$??0?$basic_ostream@DU?$char_traits@D@std@@@std@@QEAA@PEAV?$basic_streambuf@DU?$char_traits@D@std@@@1@_N@Z 0000000180034320     libcpmt:cout.obj
 0002:00011338       $unwind$??_G?$basic_ostream@DU?$char_traits@D@std@@@std@@UEAAPEAXI@Z 0000000180034338     libcpmt:cout.obj
 0002:00011350       $ip2state$??_G?$basic_ostream@DU?$char_traits@D@std@@@std@@UEAAPEAXI@Z 0000000180034350     libcpmt:cout.obj
 0002:00011368       $unwind$??__Fcout@std@@YAXXZ 0000000180034368     libcpmt:cout.obj
 0002:00011378       $ip2state$??__Fcout@std@@YAXXZ 0000000180034378     libcpmt:cout.obj
 0002:00011390       $unwind$??$use_facet@V?$codecvt@DDU_Mbstatet@@@std@@@std@@YAAEBV?$codecvt@DDU_Mbstatet@@@0@AEBVlocale@0@@Z 0000000180034390     libcpmt:cout.obj
 0002:000113a8       $ip2state$??$use_facet@V?$codecvt@DDU_Mbstatet@@@std@@@std@@YAAEBV?$codecvt@DDU_Mbstatet@@@0@AEBVlocale@0@@Z 00000001800343a8     libcpmt:cout.obj
 0002:000113c0       $unwind$?_Getcat@?$codecvt@DDU_Mbstatet@@@std@@SA_KPEAPEBVfacet@locale@2@PEBV42@@Z 00000001800343c0     libcpmt:cout.obj
 0002:000113e0       $stateUnwindMap$?_Getcat@?$codecvt@DDU_Mbstatet@@@std@@SA_KPEAPEBVfacet@locale@2@PEBV42@@Z 00000001800343e0     libcpmt:cout.obj
 0002:000113e8       $ip2state$?_Getcat@?$codecvt@DDU_Mbstatet@@@std@@SA_KPEAPEBVfacet@locale@2@PEBV42@@Z 00000001800343e8     libcpmt:cout.obj
 0002:00011400       $unwind$_Tolower           0000000180034400     libcpmt:_tolower.obj
 0002:00011410       $unwind$_Toupper           0000000180034410     libcpmt:_toupper.obj
 0002:00011424       $unwind$??_G_Fac_node@std@@QEAAPEAXI@Z 0000000180034424     libcpmt:locale0.obj
 0002:00011440       $ip2state$??_G_Fac_node@std@@QEAAPEAXI@Z 0000000180034440     libcpmt:locale0.obj
 0002:00011458       $unwind$?_Locimp_dtor@_Locimp@locale@std@@CAXPEAV123@@Z 0000000180034458     libcpmt:locale0.obj
 0002:00011474       $stateUnwindMap$?_Init@locale@std@@CAPEAV_Locimp@12@_N@Z 0000000180034474     libcpmt:locale0.obj
 0002:00011474       $stateUnwindMap$?_Locimp_dtor@_Locimp@locale@std@@CAXPEAV123@@Z 0000000180034474     libcpmt:locale0.obj
 0002:00011480       $ip2state$?_Locimp_dtor@_Locimp@locale@std@@CAXPEAV123@@Z 0000000180034480     libcpmt:locale0.obj
 0002:00011498       $unwind$??_G_Locimp@locale@std@@MEAAPEAXI@Z 0000000180034498     libcpmt:locale0.obj
 0002:000114b0       $ip2state$??_G_Locimp@locale@std@@MEAAPEAXI@Z 00000001800344b0     libcpmt:locale0.obj
 0002:000114c8       $unwind$?_Init@locale@std@@CAPEAV_Locimp@12@_N@Z 00000001800344c8     libcpmt:locale0.obj
 0002:000114e0       $ip2state$?_Init@locale@std@@CAPEAV_Locimp@12@_N@Z 00000001800344e0     libcpmt:locale0.obj
 0002:000114f8       $unwind$??__Fclassic_locale@std@@YAXXZ 00000001800344f8     libcpmt:locale0.obj
 0002:00011510       $ip2state$??__Fclassic_locale@std@@YAXXZ 0000000180034510     libcpmt:locale0.obj
 0002:00011528       $unwind$??__Finit_atexit@@YAXXZ 0000000180034528     libcpmt:iosptrs.obj
 0002:00011538       $ip2state$??__Finit_atexit@@YAXXZ 0000000180034538     libcpmt:iosptrs.obj
 0002:00011550       $unwind$__crtLCMapStringA  0000000180034550     libcpmt:StlLCMapStringA.obj
 0002:00011578       $xdatasym                  0000000180034578     LIBCMT:_amdsecgs_.obj
 0002:0001157c       $unwind$__scrt_is_nonwritable_in_current_image 000000018003457c     LIBCMT:utility.obj
 0002:0001159c       $unwind$__scrt_is_nonwritable_in_current_image$filt$0 000000018003459c     LIBCMT:utility.obj
 0002:000115a4       $unwind$__scrt_initialize_onexit_tables 00000001800345a4     LIBCMT:utility.obj
 0002:000115b0       $unwind$?dllmain_crt_process_attach@@YAHQEAUHINSTANCE__@@QEAX@Z 00000001800345b0     LIBCMT:dll_dllmain.obj
 0002:000115dc       $unwind$?dllmain_crt_process_detach@@YAH_N@Z 00000001800345dc     LIBCMT:dll_dllmain.obj
 0002:00011604       $unwind$?dllmain_dispatch@@YAHQEAUHINSTANCE__@@KQEAX@Z 0000000180034604     LIBCMT:dll_dllmain.obj
 0002:0001162c       $unwind$__GSHandlerCheckCommon 000000018003462c     LIBCMT:_gshandler_.obj
 0002:00011638       $xdatasym                  0000000180034638     LIBCMT:_chkstk_.obj
 0002:00011640       $unwind$__report_securityfailure 0000000180034640     LIBCMT:gs_report.obj
 0002:00011648       $unwind$__report_gsfailure 0000000180034648     LIBCMT:gs_report.obj
 0002:00011648       $unwind$_putwch_nolock     0000000180034648     libucrt:putwch.obj
 0002:00011650       $unwind$capture_current_context 0000000180034650     LIBCMT:gs_report.obj
 0002:0001165c       $unwind$capture_previous_context 000000018003465c     LIBCMT:gs_report.obj
 0002:00011668       $unwind$__scrt_fastfail    0000000180034668     LIBCMT:utility_desktop.obj
 0002:00011678       $unwind$?__scrt_throw_std_bad_array_new_length@@YAXXZ 0000000180034678     LIBCMT:throw_bad_alloc.obj
 0002:00011678       $unwind$?_Xlength_error@std@@YAXPEBD@Z 0000000180034678     libcpmt:xthrow.obj
 0002:00011678       $unwind$?__scrt_throw_std_bad_alloc@@YAXXZ 0000000180034678     LIBCMT:throw_bad_alloc.obj
 0002:00011678       $unwind$_raise_excf        0000000180034678     libucrt:fpexcept.obj
 0002:00011678       $unwind$_raise_exc         0000000180034678     libucrt:fpexcept.obj
 0002:00011678       $unwind$__dcrt_lowio_initialize_console_output 0000000180034678     libucrt:initcon.obj
 0002:00011678       $unwind$?_Xout_of_range@std@@YAXPEBD@Z 0000000180034678     libcpmt:xthrow.obj
 0002:00011678       $unwind$?_Xbad_alloc@std@@YAXXZ 0000000180034678     libcpmt:xthrow.obj
 0002:00011680       $unwind$__isa_available_init 0000000180034680     LIBCMT:_cpu_disp_.obj
 0002:00011690       $unwind$__security_init_cookie 0000000180034690     LIBCMT:gs_support.obj
 0002:000116a0       $xdatasym                  00000001800346a0     LIBCMT:_guard_dispatch_.obj
 0002:000116a8       $xdatasym                  00000001800346a8     libvcruntime:memcpy.obj
 0002:000116ac       $unwind$__CxxCallCatchBlock 00000001800346ac     libvcruntime:frame.obj
 0002:000116e8       $unwind$__CxxCallCatchBlock$fin$1 00000001800346e8     libvcruntime:frame.obj
 0002:000116f4       $unwind$__FrameUnwindToState 00000001800346f4     libvcruntime:frame.obj
 0002:00011730       $unwind$?FindHandler@@YAXPEAUEHExceptionRecord@@PEA_KPEAU_CONTEXT@@PEAU_xDISPATCHER_CONTEXT@@PEBU_s_FuncInfo@@EH1@Z 0000000180034730     libvcruntime:frame.obj
 0002:00011750       $unwind$?CatchIt@@YAXPEAUEHExceptionRecord@@PEA_KPEAU_CONTEXT@@PEAU_xDISPATCHER_CONTEXT@@PEBU_s_FuncInfo@@PEBU_s_HandlerType@@PEBU_s_CatchableType@@PEBU_s_TryBlockMapEntry@@H1EE@Z 0000000180034750     libvcruntime:frame.obj
 0002:00011768       $unwind$__BuildCatchObject 0000000180034768     libvcruntime:frame.obj
 0002:00011794       $unwind$?xsgetn@?$basic_streambuf@DU?$char_traits@D@std@@@std@@MEAA_JPEAD_J@Z 0000000180034794     libcpmt:cout.obj
 0002:00011794       $unwind$__GSHandlerCheck_EH 0000000180034794     LIBCMT:gshandlereh.obj
 0002:00011794       $unwind$__acrt_GetLocaleInfoEx 0000000180034794     libucrt:winapi_thunks.obj
 0002:00011794       $unwind$GetTableIndexFromLocaleName 0000000180034794     libcpmt:winapinls.obj
 0002:00011794       $unwind$__TypeMatch        0000000180034794     libvcruntime:frame.obj
 0002:00011794       $unwind$TranslateName      0000000180034794     libucrt:getqloc_downlevel.obj
 0002:00011794       $unwind$_initterm          0000000180034794     libucrt:initterm.obj
 0002:00011794       $unwind$__acrt_initialize_stdio 0000000180034794     libucrt:_file.obj
 0002:00011794       $unwind$__acrt_LCIDToLocaleName 0000000180034794     libucrt:winapi_thunks.obj
 0002:000117ac       $unwind$?FindHandlerForForeignException@@YAXPEAUEHExceptionRecord@@PEA_KPEAU_CONTEXT@@PEAU_xDISPATCHER_CONTEXT@@PEBU_s_FuncInfo@@HH1@Z 00000001800347ac     libvcruntime:frame.obj
 0002:000117c4       $unwind$__DestructExceptionObject 00000001800347c4     libvcruntime:frame.obj
 0002:000117e8       $unwind$__InternalCxxFrameHandler 00000001800347e8     libvcruntime:frame.obj
 0002:000117e8       $unwind$__C_specific_handler 00000001800347e8     libvcruntime:_chandler_.obj
 0002:000117e8       $unwind$__acrt_locale_initialize_numeric 00000001800347e8     libucrt:initnum.obj
 0002:00011804       $unwind$__BuildCatchObjectHelper 0000000180034804     libvcruntime:frame.obj
 0002:00011844       $unwind$_CxxThrowException 0000000180034844     libvcruntime:throw.obj
 0002:00011858       $unwind$?_GetEstablisherFrame@@YAPEA_KPEA_KPEAU_xDISPATCHER_CONTEXT@@PEBU_s_FuncInfo@@0@Z 0000000180034858     libvcruntime:trnsctrl.obj
 0002:00011870       $unwind$?__FrameUnwindToEmptyState@@YAXPEA_KPEAU_xDISPATCHER_CONTEXT@@PEBU_s_FuncInfo@@@Z 0000000180034870     libvcruntime:trnsctrl.obj
 0002:00011884       $unwind$_CallSETranslator  0000000180034884     libvcruntime:trnsctrl.obj
 0002:000118a8       $unwind$_CallSETranslator$filt$0 00000001800348a8     libvcruntime:trnsctrl.obj
 0002:000118b0       $unwind$??R<lambda_4e60a939b0d047cfe11ddc22648dfba9>@@QEBAHXZ 00000001800348b0     libucrt:onexit.obj
 0002:000118b0       $unwind$TranslateName      00000001800348b0     libucrt:get_qualified_locale.obj
 0002:000118b0       $unwind$?_GetRangeOfTrysToCheck@@YAPEBU_s_TryBlockMapEntry@@PEA_KPEBU_s_FuncInfo@@HHPEAI2PEAU_xDISPATCHER_CONTEXT@@@Z 00000001800348b0     libvcruntime:trnsctrl.obj
 0002:000118b0       $unwind$??$parse_command_line@D@@YAXPEADPEAPEAD0PEA_K2@Z 00000001800348b0     libucrt:argv_parsing.obj
 0002:000118cc       $unwind$_UnwindNestedFrames 00000001800348cc     libvcruntime:trnsctrl.obj
 0002:000118e0       $unwind$__CxxFrameHandler3 00000001800348e0     libvcruntime:trnsctrl.obj
 0002:000118f0       $unwind$_wcsicmp_l         00000001800348f0     libucrt:wcsicmp.obj
 0002:000118f0       $unwind$?__SehTransFilter@@YAHPEAU_EXCEPTION_POINTERS@@PEAUEHExceptionRecord@@PEA_KPEAU_CONTEXT@@PEAU_xDISPATCHER_CONTEXT@@PEBU_s_FuncInfo@@PEAH@Z 00000001800348f0     libvcruntime:trnsctrl.obj
 0002:00011908       $xdatasym                  0000000180034908     libvcruntime:memset.obj
 0002:00011910       $xdatasym                  0000000180034910     libvcruntime:memcmp.obj
 0002:00011918       $xdatasym                  0000000180034918     libvcruntime:handlers.obj
 0002:00011920       $xdatasym                  0000000180034920     libvcruntime:_jmpuwind_.obj
 0002:00011934       $unwind$__acrt_call_reportfault 0000000180034934     libucrt:invalid_parameter.obj
 0002:00011954       $unwind$_invalid_parameter 0000000180034954     libucrt:invalid_parameter.obj
 0002:0001196c       $unwind$fclose             000000018003496c     libucrt:fclose.obj
 0002:00011990       $unwind$fflush             0000000180034990     libucrt:fflush.obj
 0002:000119b4       $unwind$common_flush_all   00000001800349b4     libucrt:fflush.obj
 0002:000119f0       $unwind$fgetc              00000001800349f0     libucrt:fgetc.obj
 0002:00011a24       $unwind$fputc              0000000180034a24     libucrt:fputc.obj
 0002:00011a58       $unwind$?common_fseek_binary_mode_read_only_fast_track_nolock@@YA_NV__crt_stdio_stream@@_JH@Z 0000000180034a58     libucrt:fseek.obj
 0002:00011a64       $unwind$_raise_exc_ex      0000000180034a64     libucrt:fpexcept.obj
 0002:00011a64       $unwind$??$common_refill_and_read_nolock@D@@YAHV__crt_stdio_stream@@@Z 0000000180034a64     libucrt:_filbuf.obj
 0002:00011a64       $unwind$?common_fseek_nolock@@YAHV__crt_stdio_stream@@_JH@Z 0000000180034a64     libucrt:fseek.obj
 0002:00011a78       $unwind$?common_fseek@@YAHV__crt_stdio_stream@@_JH@Z 0000000180034a78     libucrt:fseek.obj
 0002:00011a9c       $unwind$fwrite             0000000180034a9c     libucrt:fwrite.obj
 0002:00011aa4       $unwind$?try_get_function@@YAPEAXW4function_id@?A0x679b24ab@@QEBDQEBW4module_id@2@2@Z 0000000180034aa4     libvcruntime:winapi_downlevel.obj
 0002:00011aa4       $unwind$_fwrite_nolock     0000000180034aa4     libucrt:fwrite.obj
 0002:00011aa4       $unwind$?try_get_function@@YAPEAXW4function_id@?A0x63058377@@QEBDQEBW4module_id@2@2@Z 0000000180034aa4     libucrt:winapi_thunks.obj
 0002:00011aa4       $unwind$?IsInExceptionSpec@@YAEPEAUEHExceptionRecord@@PEBU_s_ESTypeList@@@Z 0000000180034aa4     libvcruntime:frame.obj
 0002:00011ac0       $unwind$??$?RV<lambda_5d4c3fee44080f75d5d9762853974fe0>@@AEAV<lambda_532e024f4337e6fc7ad266c2bef9f4ed>@@V<lambda_c87bdc10097eb2402edb8ba9bdf0697b>@@@?$__crt_seh_guarded_call@_K@@QEAA_K$$QEAV<lambda_5d4c3fee44080f75d5d9762853974fe0>@@AEAV<lambda_532e024f4337e6fc7ad266c2bef9f4ed>@@$$QEAV<lambda_c87bdc10097eb2402edb8ba9bdf0697b>@@@Z 0000000180034ac0     libucrt:fwrite.obj
 0002:00011ae4       $unwind$_query_new_handler$fin$0 0000000180034ae4     libucrt:new_handler.obj
 0002:00011ae4       $unwind$?fin$0@?0???$?RV<lambda_c36588078e9f5dfd39652860aa6b3aaf>@@AEAV<lambda_ec61778202f4f5fc7e7711acc23c3bca>@@V<lambda_dc9d2797ccde5d239b4a0efae8ebd7db>@@@?$__crt_seh_guarded_call@P6AXH@Z@@QEAAP6AXH@Z$$QEAV<lambda_c36588078e9f5dfd39652860aa6b3aaf>@@AEAV<lambda_ec61778202f4f5fc7e7711acc23c3bca>@@$$QEAV<lambda_dc9d2797ccde5d239b4a0efae8ebd7db>@@@Z@4HA 0000000180034ae4     libucrt:signal.obj
 0002:00011ae4       $unwind$?fin$1@?0??common_exit@@YAXHW4_crt_exit_cleanup_mode@@W4_crt_exit_return_mode@@@Z@4HA 0000000180034ae4     libucrt:exit.obj
 0002:00011ae4       $unwind$?filt$0@?0??common_exit@@YAXHW4_crt_exit_cleanup_mode@@W4_crt_exit_return_mode@@@Z@4HA 0000000180034ae4     libucrt:exit.obj
 0002:00011ae4       $unwind$?fin$0@?0???$?RV<lambda_5df02c53a8f32f81fd64e5bbb78039f1>@@AEAV<lambda_2af78c5f5901b1372d98f9ab3177dfa6>@@AEAV<lambda_f51fe5fd7c79a33db34fc9310f277369>@@@?$__crt_seh_guarded_call@X@@QEAAX$$QEAV<lambda_5df02c53a8f32f81fd64e5bbb78039f1>@@AEAV<lambda_2af78c5f5901b1372d98f9ab3177dfa6>@@AEAV<lambda_f51fe5fd7c79a33db34fc9310f277369>@@@Z@4HA 0000000180034ae4     libucrt:wsetlocale.obj
 0002:00011ae4       $unwind$__DestructExceptionObject$filt$0 0000000180034ae4     libvcruntime:frame.obj
 0002:00011ae4       $unwind$?dtor$0@?0??_Getcat@?$codecvt@DDU_Mbstatet@@@std@@SA_KPEAPEBVfacet@locale@2@PEBV42@@Z@4HA 0000000180034ae4     libcpmt:cout.obj
 0002:00011ae4       $unwind$?fin$0@?0???$?RV<lambda_bfedae4ebbf01fab1bb6dcc6a9e276e0>@@AEAV<lambda_2fe9b910cf3cbf4a0ab98a02ba45b3ec>@@V<lambda_237c231691f317818eb88cc1d5d642d6>@@@?$__crt_seh_guarded_call@H@@QEAAH$$QEAV<lambda_bfedae4ebbf01fab1bb6dcc6a9e276e0>@@AEAV<lambda_2fe9b910cf3cbf4a0ab98a02ba45b3ec>@@$$QEAV<lambda_237c231691f317818eb88cc1d5d642d6>@@@Z@4HA 0000000180034ae4     libucrt:close.obj
 0002:00011ae4       $unwind$?fin$0@?0???$?RV<lambda_b521505b218e5242e90febf6bfebc422>@@AEAV<lambda_6978c1fb23f02e42e1d9e99668cc68aa>@@V<lambda_314360699dd331753a4119843814e9a7>@@@?$__crt_seh_guarded_call@H@@QEAAH$$QEAV<lambda_b521505b218e5242e90febf6bfebc422>@@AEAV<lambda_6978c1fb23f02e42e1d9e99668cc68aa>@@$$QEAV<lambda_314360699dd331753a4119843814e9a7>@@@Z@4HA 0000000180034ae4     libucrt:commit.obj
 0002:00011ae4       $unwind$?dtor$0@?0???0?$basic_ostream@DU?$char_traits@D@std@@@std@@QEAA@PEAV?$basic_streambuf@DU?$char_traits@D@std@@@1@_N@Z@4HA 0000000180034ae4     libcpmt:cout.obj
 0002:00011ae4       $unwind$__acrt_initialize_lowio$fin$0 0000000180034ae4     libucrt:ioinit.obj
 0002:00011ae4       $unwind$?fin$0@?0???$common_lseek@_J@@YA_JH_JH@Z@4HA 0000000180034ae4     libucrt:lseek.obj
 0002:00011ae4       $unwind$raise$fin$0        0000000180034ae4     libucrt:signal.obj
 0002:00011ae4       $unwind$__FrameUnwindToState$fin$1 0000000180034ae4     libvcruntime:frame.obj
 0002:00011ae4       $unwind$ungetc$fin$0       0000000180034ae4     libucrt:ungetc.obj
 0002:00011ae4       $unwind$?fin$0@?0???$?RV<lambda_d67e8342c384adda8f857579ab50b2ae>@@AEAV<lambda_30712929f77e709619002f448b6a9510>@@V<lambda_4525336fd7e478d965fb7ca7a337cad8>@@@?$__crt_seh_guarded_call@X@@QEAAX$$QEAV<lambda_d67e8342c384adda8f857579ab50b2ae>@@AEAV<lambda_30712929f77e709619002f448b6a9510>@@$$QEAV<lambda_4525336fd7e478d965fb7ca7a337cad8>@@@Z@4HA 0000000180034ae4     libucrt:wsetlocale.obj
 0002:00011ae4       $unwind$__acrt_lowio_ensure_fh_exists$fin$0 0000000180034ae4     libucrt:osfinfo.obj
 0002:00011ae4       $unwind$__FrameUnwindToState$filt$0 0000000180034ae4     libvcruntime:frame.obj
 0002:00011ae4       $unwind$?fin$0@?0???$?RV<lambda_7a5ef57ff966f610505f1d28a3d40618>@@AEAV<lambda_b721fa326cdb32351d23dfa67958c160>@@V<lambda_5e0fb27672408a07956fe59e48ccb2aa>@@@?$__crt_seh_guarded_call@H@@QEAAH$$QEAV<lambda_7a5ef57ff966f610505f1d28a3d40618>@@AEAV<lambda_b721fa326cdb32351d23dfa67958c160>@@$$QEAV<lambda_5e0fb27672408a07956fe59e48ccb2aa>@@@Z@4HA 0000000180034ae4     libucrt:setvbuf.obj
 0002:00011ae4       $unwind$__acrt_update_thread_locale_data$fin$0 0000000180034ae4     libucrt:locale_refcounting.obj
 0002:00011ae4       $unwind$?fin$0@?0???$?RV<lambda_630b2aca97f6d20d5b5ea6529ea6b6af>@@AEAV<lambda_af91936f1d075d609f72d9d8cba980af>@@V<lambda_e82fa975f615b5c7c7b0e4d178fdae67>@@@?$__crt_seh_guarded_call@H@@QEAAH$$QEAV<lambda_630b2aca97f6d20d5b5ea6529ea6b6af>@@AEAV<lambda_af91936f1d075d609f72d9d8cba980af>@@$$QEAV<lambda_e82fa975f615b5c7c7b0e4d178fdae67>@@@Z@4HA 0000000180034ae4     libucrt:winapi_thunks.obj
 0002:00011ae4       $unwind$?fin$0@?0???$?RV<lambda_5d4c3fee44080f75d5d9762853974fe0>@@AEAV<lambda_532e024f4337e6fc7ad266c2bef9f4ed>@@V<lambda_c87bdc10097eb2402edb8ba9bdf0697b>@@@?$__crt_seh_guarded_call@_K@@QEAA_K$$QEAV<lambda_5d4c3fee44080f75d5d9762853974fe0>@@AEAV<lambda_532e024f4337e6fc7ad266c2bef9f4ed>@@$$QEAV<lambda_c87bdc10097eb2402edb8ba9bdf0697b>@@@Z@4HA 0000000180034ae4     libucrt:fwrite.obj
 0002:00011ae4       $unwind$_read$fin$0        0000000180034ae4     libucrt:read.obj
 0002:00011ae4       $unwind$?fin$0@?0???$common_ftell@_J@@YA_JV__crt_stdio_stream@@@Z@4HA 0000000180034ae4     libucrt:ftell.obj
 0002:00011ae4       $unwind$?fin$0@?0???$?RV<lambda_fb3a7dec4e47f37f22dae91bb15c9095>@@AEAV<lambda_698284760c8add0bfb0756c19673e34b>@@V<lambda_dfb8eca1e75fef3034a8fb18dd509707>@@@?$__crt_seh_guarded_call@X@@QEAAX$$QEAV<lambda_fb3a7dec4e47f37f22dae91bb15c9095>@@AEAV<lambda_698284760c8add0bfb0756c19673e34b>@@$$QEAV<lambda_dfb8eca1e75fef3034a8fb18dd509707>@@@Z@4HA 0000000180034ae4     libucrt:per_thread_data.obj
 0002:00011ae4       $unwind$?fin$0@?0???$?RV<lambda_46352004c1216016012b18bd6f87e700>@@AEAV<lambda_3bd07e1a1191394380780325891bf33f>@@V<lambda_334532d3f185bcaa59b5be82d7d22bff>@@@?$__crt_seh_guarded_call@X@@QEAAX$$QEAV<lambda_46352004c1216016012b18bd6f87e700>@@AEAV<lambda_3bd07e1a1191394380780325891bf33f>@@$$QEAV<lambda_334532d3f185bcaa59b5be82d7d22bff>@@@Z@4HA 0000000180034ae4     libucrt:per_thread_data.obj
 0002:00011ae4       $unwind$_ctrlfp$filt$0     0000000180034ae4     libucrt:fpctrl.obj
 0002:00011ae4       $unwind$?fin$0@?0??common_fseek@@YAHV__crt_stdio_stream@@_JH@Z@4HA 0000000180034ae4     libucrt:fseek.obj
 0002:00011ae4       $unwind$?fin$0@?0???$?RV<lambda_5e887d1dcbef67a5eb4283622ba103bf>@@AEAV<lambda_4466841279450cc726390878d4a41900>@@V<lambda_341c25c0346d94847f1f3c463c57e077>@@@?$__crt_seh_guarded_call@X@@QEAAX$$QEAV<lambda_5e887d1dcbef67a5eb4283622ba103bf>@@AEAV<lambda_4466841279450cc726390878d4a41900>@@$$QEAV<lambda_341c25c0346d94847f1f3c463c57e077>@@@Z@4HA 0000000180034ae4     libucrt:per_thread_data.obj
 0002:00011ae4       $unwind$?fin$0@?0???$?RV<lambda_72d1df2b273a38828b1ce30cbf4cdab5>@@AEAV<lambda_876a65b173b8412d3a47c70a915b0cf4>@@V<lambda_41932305e351933ebe8f8be3ed8bb5dc>@@@?$__crt_seh_guarded_call@X@@QEAAX$$QEAV<lambda_72d1df2b273a38828b1ce30cbf4cdab5>@@AEAV<lambda_876a65b173b8412d3a47c70a915b0cf4>@@$$QEAV<lambda_41932305e351933ebe8f8be3ed8bb5dc>@@@Z@4HA 0000000180034ae4     libucrt:per_thread_data.obj
 0002:00011ae4       $unwind$_IsNonwritableInCurrentImage$filt$0 0000000180034ae4     LIBCMT:pesect.obj
 0002:00011ae4       $unwind$fputc$fin$0        0000000180034ae4     libucrt:fputc.obj
 0002:00011ae4       $unwind$_write$fin$0       0000000180034ae4     libucrt:write.obj
 0002:00011ae4       $unwind$fgetc$fin$0        0000000180034ae4     libucrt:fgetc.obj
 0002:00011ae4       $unwind$fflush$fin$0       0000000180034ae4     libucrt:fflush.obj
 0002:00011ae4       $unwind$?dtor$0@?0??_Getcat@?$ctype@D@std@@SA_KPEAPEBVfacet@locale@2@PEBV42@@Z@4HA 0000000180034ae4     libcpmt:cout.obj
 0002:00011ae4       $unwind$?fin$0@?0???$?RV<lambda_99476a1ad63dd22509b5d3e65b0ffc95>@@AEAV<lambda_ad1ced32f4ac17aa236e5ef05d6b3b7c>@@V<lambda_f7424dd8d45958661754dc4f2697e9c3>@@@?$__crt_seh_guarded_call@X@@QEAAX$$QEAV<lambda_99476a1ad63dd22509b5d3e65b0ffc95>@@AEAV<lambda_ad1ced32f4ac17aa236e5ef05d6b3b7c>@@$$QEAV<lambda_f7424dd8d45958661754dc4f2697e9c3>@@@Z@4HA 0000000180034ae4     libucrt:mbctype.obj
 0002:00011ae4       $unwind$common_flush_all$fin$0 0000000180034ae4     libucrt:fflush.obj
 0002:00011ae4       $unwind$common_flush_all$fin$1 0000000180034ae4     libucrt:fflush.obj
 0002:00011ae4       $unwind$fclose$fin$0       0000000180034ae4     libucrt:fclose.obj
 0002:00011ae4       $unwind$?fin$0@?0??dllmain_crt_process_attach@@YAHQEAUHINSTANCE__@@QEAX@Z@4HA 0000000180034ae4     LIBCMT:dll_dllmain.obj
 0002:00011ae4       $unwind$?fin$0@?0??dllmain_crt_process_detach@@YAH_N@Z@4HA 0000000180034ae4     LIBCMT:dll_dllmain.obj
 0002:00011ae4       $unwind$?fin$0@?0???$?RV<lambda_e24bbb7b643b32fcea6fa61b31d4c984>@@AEAV<lambda_275893d493268fdec8709772e3fcec0e>@@V<lambda_9d71df4d7cf3f480f8d633942495c3b0>@@@?$__crt_seh_guarded_call@H@@QEAAH$$QEAV<lambda_e24bbb7b643b32fcea6fa61b31d4c984>@@AEAV<lambda_275893d493268fdec8709772e3fcec0e>@@$$QEAV<lambda_9d71df4d7cf3f480f8d633942495c3b0>@@@Z@4HA 0000000180034ae4     libucrt:onexit.obj
 0002:00011ae4       $unwind$_fcloseall$fin$0   0000000180034ae4     libucrt:closeall.obj
 0002:00011ae4       $unwind$__CxxCallCatchBlock$filt$0 0000000180034ae4     libvcruntime:frame.obj
 0002:00011ae4       $unwind$__acrt_update_thread_multibyte_data$fin$0 0000000180034ae4     libucrt:mbctype.obj
 0002:00011ae4       $unwind$?fin$0@?0???$?RV<lambda_b8c45f8f788dd370798f47cfe8ac3a86>@@AEAV<lambda_4e60a939b0d047cfe11ddc22648dfba9>@@V<lambda_332c3edc96d0294ec56c57d38c1cdfd5>@@@?$__crt_seh_guarded_call@H@@QEAAH$$QEAV<lambda_b8c45f8f788dd370798f47cfe8ac3a86>@@AEAV<lambda_4e60a939b0d047cfe11ddc22648dfba9>@@$$QEAV<lambda_332c3edc96d0294ec56c57d38c1cdfd5>@@@Z@4HA 0000000180034ae4     libucrt:onexit.obj
 0002:00011ae4       $unwind$__acrt_uninitialize_locale$fin$0 0000000180034ae4     libucrt:wsetlocale.obj
 0002:00011aec       $unwind$setvbuf            0000000180034aec     libucrt:setvbuf.obj
 0002:00011af4       $unwind$??$?RV<lambda_7a5ef57ff966f610505f1d28a3d40618>@@AEAV<lambda_b721fa326cdb32351d23dfa67958c160>@@V<lambda_5e0fb27672408a07956fe59e48ccb2aa>@@@?$__crt_seh_guarded_call@H@@QEAAH$$QEAV<lambda_7a5ef57ff966f610505f1d28a3d40618>@@AEAV<lambda_b721fa326cdb32351d23dfa67958c160>@@$$QEAV<lambda_5e0fb27672408a07956fe59e48ccb2aa>@@@Z 0000000180034af4     libucrt:setvbuf.obj
 0002:00011b18       $unwind$ungetc             0000000180034b18     libucrt:ungetc.obj
 0002:00011b3c       $unwind$_isleadbyte_l      0000000180034b3c     libucrt:_wctype.obj
 0002:00011b3c       $unwind$islower            0000000180034b3c     libucrt:_ctype.obj
 0002:00011b3c       $unwind$isupper            0000000180034b3c     libucrt:_ctype.obj
 0002:00011b3c       $unwind$?getSystemCP@@YAHH@Z 0000000180034b3c     libucrt:mbctype.obj
 0002:00011b44       $unwind$_wcsdup            0000000180034b44     libucrt:wcsdup.obj
 0002:00011b44       $unwind$__lc_lctowcs       0000000180034b44     libucrt:wsetlocale.obj
 0002:00011b44       $unwind$__acrt_DownlevelLCIDToLocaleName 0000000180034b44     libucrt:lcidtoname_downlevel.obj
 0002:00011b58       $unwind$__acrt_locale_initialize_ctype 0000000180034b58     libucrt:initctype.obj
 0002:00011b80       $unwind$setlocale          0000000180034b80     libucrt:setlocale.obj
 0002:00011bb0       $unwind$?filt$0@?0??dllmain_dispatch@@YAHQEAUHINSTANCE__@@KQEAX@Z@4HA 0000000180034bb0     LIBCMT:dll_dllmain.obj
 0002:00011bb0       $unwind$setlocale$fin$0    0000000180034bb0     libucrt:setlocale.obj
 0002:00011bb8       $unwind$call_wsetlocale    0000000180034bb8     libucrt:setlocale.obj
 0002:00011bcc       $unwind$__acrt_locale_free_lc_time_if_unreferenced 0000000180034bcc     libucrt:locale_refcounting.obj
 0002:00011bcc       $unwind$?destroy_fls@@YAXPEAX@Z 0000000180034bcc     libucrt:per_thread_data.obj
 0002:00011bcc       $unwind$_free_base         0000000180034bcc     libucrt:free_base.obj
 0002:00011bcc       $unwind$__acrt_locale_free_numeric 0000000180034bcc     libucrt:initnum.obj
 0002:00011bd8       $xdatasym                  0000000180034bd8     libucrt:pow.obj
 0002:00011be8       $xdatasym                  0000000180034be8     libucrt:powf.obj
 0002:00011bf8       $unwind$wcsnlen            0000000180034bf8     libucrt:strnlen.obj
 0002:00011c00       $unwind$?x_ismbbtype_l@@YAHPEAU__crt_locale_pointers@@IHH@Z 0000000180034c00     libucrt:ismbbyte.obj
 0002:00011c00       $unwind$_stricmp_l         0000000180034c00     libucrt:stricmp.obj
 0002:00011c10       $unwind$_tolower_l         0000000180034c10     libucrt:tolower_toupper.obj
 0002:00011c20       $unwind$_query_new_handler 0000000180034c20     libucrt:new_handler.obj
 0002:00011c40       $unwind$?common_exit@@YAXHW4_crt_exit_cleanup_mode@@W4_crt_exit_return_mode@@@Z 0000000180034c40     libucrt:exit.obj
 0002:00011c80       $unwind$_configure_narrow_argv 0000000180034c80     libucrt:argv_parsing.obj
 0002:00011c94       $unwind$??$free_environment@_W@@YAXQEAPEA_W@Z 0000000180034c94     libucrt:environment_initialization.obj
 0002:00011c94       $unwind$??$free_environment@D@@YAXQEAPEAD@Z 0000000180034c94     libucrt:environment_initialization.obj
 0002:00011ca0       $unwind$??$create_environment@D@@YAQEAPEADQEAD@Z 0000000180034ca0     libucrt:environment_initialization.obj
 0002:00011ca0       $unwind$__lc_wcstolc       0000000180034ca0     libucrt:wsetlocale.obj
 0002:00011cb8       $unwind$_register_onexit_function 0000000180034cb8     libucrt:onexit.obj
 0002:00011cc0       $unwind$_execute_onexit_table 0000000180034cc0     libucrt:onexit.obj
 0002:00011cc8       $unwind$??$?RV<lambda_b8c45f8f788dd370798f47cfe8ac3a86>@@AEAV<lambda_4e60a939b0d047cfe11ddc22648dfba9>@@V<lambda_332c3edc96d0294ec56c57d38c1cdfd5>@@@?$__crt_seh_guarded_call@H@@QEAAH$$QEAV<lambda_b8c45f8f788dd370798f47cfe8ac3a86>@@AEAV<lambda_4e60a939b0d047cfe11ddc22648dfba9>@@$$QEAV<lambda_332c3edc96d0294ec56c57d38c1cdfd5>@@@Z 0000000180034cc8     libucrt:onexit.obj
 0002:00011cec       $unwind$??$?RV<lambda_e24bbb7b643b32fcea6fa61b31d4c984>@@AEAV<lambda_275893d493268fdec8709772e3fcec0e>@@V<lambda_9d71df4d7cf3f480f8d633942495c3b0>@@@?$__crt_seh_guarded_call@H@@QEAAH$$QEAV<lambda_e24bbb7b643b32fcea6fa61b31d4c984>@@AEAV<lambda_275893d493268fdec8709772e3fcec0e>@@$$QEAV<lambda_9d71df4d7cf3f480f8d633942495c3b0>@@@Z 0000000180034cec     libucrt:onexit.obj
 0002:00011d1c       $unwind$terminate          0000000180034d1c     libucrt:terminate.obj
 0002:00011d3c       $unwind$mbstowcs_s         0000000180034d3c     libucrt:mbstowcs.obj
 0002:00011d3c       $unwind$_invalid_parameter_noinfo_noreturn 0000000180034d3c     libucrt:invalid_parameter.obj
 0002:00011d3c       $unwind$_log10_special     0000000180034d3c     libucrt:log_special.obj
 0002:00011d3c       $unwind$_wtol              0000000180034d3c     libucrt:atox.obj
 0002:00011d3c       $unwind$_itow_s            0000000180034d3c     libucrt:xtoa.obj
 0002:00011d3c       $unwind$_invalid_parameter_noinfo 0000000180034d3c     libucrt:invalid_parameter.obj
 0002:00011d44       $unwind$??$parse_integer@KV?$c_string_character_source@_W@__crt_strtox@@@__crt_strtox@@YAKQEAU__crt_locale_pointers@@V?$c_string_character_source@_W@0@H_N@Z 0000000180034d44     libucrt:atox.obj
 0002:00011d60       $unwind$?construct_ptd_array@@YAXQEAU__acrt_ptd@@@Z 0000000180034d60     libucrt:per_thread_data.obj
 0002:00011d68       $unwind$?destroy_ptd_array@@YAXQEAU__acrt_ptd@@@Z 0000000180034d68     libucrt:per_thread_data.obj
 0002:00011d70       $unwind$??$?RV<lambda_72d1df2b273a38828b1ce30cbf4cdab5>@@AEAV<lambda_876a65b173b8412d3a47c70a915b0cf4>@@V<lambda_41932305e351933ebe8f8be3ed8bb5dc>@@@?$__crt_seh_guarded_call@X@@QEAAX$$QEAV<lambda_72d1df2b273a38828b1ce30cbf4cdab5>@@AEAV<lambda_876a65b173b8412d3a47c70a915b0cf4>@@$$QEAV<lambda_41932305e351933ebe8f8be3ed8bb5dc>@@@Z 0000000180034d70     libucrt:per_thread_data.obj
 0002:00011d94       $unwind$??$?RV<lambda_5e887d1dcbef67a5eb4283622ba103bf>@@AEAV<lambda_4466841279450cc726390878d4a41900>@@V<lambda_341c25c0346d94847f1f3c463c57e077>@@@?$__crt_seh_guarded_call@X@@QEAAX$$QEAV<lambda_5e887d1dcbef67a5eb4283622ba103bf>@@AEAV<lambda_4466841279450cc726390878d4a41900>@@$$QEAV<lambda_341c25c0346d94847f1f3c463c57e077>@@@Z 0000000180034d94     libucrt:per_thread_data.obj
 0002:00011db8       $unwind$??$?RV<lambda_46352004c1216016012b18bd6f87e700>@@AEAV<lambda_3bd07e1a1191394380780325891bf33f>@@V<lambda_334532d3f185bcaa59b5be82d7d22bff>@@@?$__crt_seh_guarded_call@X@@QEAAX$$QEAV<lambda_46352004c1216016012b18bd6f87e700>@@AEAV<lambda_3bd07e1a1191394380780325891bf33f>@@$$QEAV<lambda_334532d3f185bcaa59b5be82d7d22bff>@@@Z 0000000180034db8     libucrt:per_thread_data.obj
 0002:00011ddc       $unwind$??$?RV<lambda_fb3a7dec4e47f37f22dae91bb15c9095>@@AEAV<lambda_698284760c8add0bfb0756c19673e34b>@@V<lambda_dfb8eca1e75fef3034a8fb18dd509707>@@@?$__crt_seh_guarded_call@X@@QEAAX$$QEAV<lambda_fb3a7dec4e47f37f22dae91bb15c9095>@@AEAV<lambda_698284760c8add0bfb0756c19673e34b>@@$$QEAV<lambda_dfb8eca1e75fef3034a8fb18dd509707>@@@Z 0000000180034ddc     libucrt:per_thread_data.obj
 0002:00011e00       $unwind$__acrt_copy_locale_name 0000000180034e00     libucrt:wsetlocale.obj
 0002:00011e10       $unwind$_wsetlocale        0000000180034e10     libucrt:wsetlocale.obj
 0002:00011e18       $unwind$_expandlocale      0000000180034e18     libucrt:wsetlocale.obj
 0002:00011e38       $unwind$_wcscats           0000000180034e38     libucrt:wsetlocale.obj
 0002:00011e48       $unwind$_wsetlocale_set_cat 0000000180034e48     libucrt:wsetlocale.obj
 0002:00011e6c       $unwind$_wsetlocale_get_all 0000000180034e6c     libucrt:wsetlocale.obj
 0002:00011e88       $unwind$_wsetlocale_nolock 0000000180034e88     libucrt:wsetlocale.obj
 0002:00011eac       $unwind$__acrt_uninitialize_locale 0000000180034eac     libucrt:wsetlocale.obj
 0002:00011ecc       $unwind$??R<lambda_2af78c5f5901b1372d98f9ab3177dfa6>@@QEBAXXZ 0000000180034ecc     libucrt:wsetlocale.obj
 0002:00011ed8       $unwind$??$?RV<lambda_5df02c53a8f32f81fd64e5bbb78039f1>@@AEAV<lambda_2af78c5f5901b1372d98f9ab3177dfa6>@@AEAV<lambda_f51fe5fd7c79a33db34fc9310f277369>@@@?$__crt_seh_guarded_call@X@@QEAAX$$QEAV<lambda_5df02c53a8f32f81fd64e5bbb78039f1>@@AEAV<lambda_2af78c5f5901b1372d98f9ab3177dfa6>@@AEAV<lambda_f51fe5fd7c79a33db34fc9310f277369>@@@Z 0000000180034ed8     libucrt:wsetlocale.obj
 0002:00011ef8       $unwind$??$?RV<lambda_d67e8342c384adda8f857579ab50b2ae>@@AEAV<lambda_30712929f77e709619002f448b6a9510>@@V<lambda_4525336fd7e478d965fb7ca7a337cad8>@@@?$__crt_seh_guarded_call@X@@QEAAX$$QEAV<lambda_d67e8342c384adda8f857579ab50b2ae>@@AEAV<lambda_30712929f77e709619002f448b6a9510>@@$$QEAV<lambda_4525336fd7e478d965fb7ca7a337cad8>@@@Z 0000000180034ef8     libucrt:wsetlocale.obj
 0002:00011f1c       $unwind$__acrt_initialize_winapi_thunks 0000000180034f1c     libucrt:winapi_thunks.obj
 0002:00011f24       $unwind$__acrt_EnumSystemLocalesEx 0000000180034f24     libucrt:winapi_thunks.obj
 0002:00011f38       $unwind$__acrt_LCMapStringEx 0000000180034f38     libucrt:winapi_thunks.obj
 0002:00011f38       $unwind$__crtLCMapStringEx 0000000180034f38     libcpmt:winapinls.obj
 0002:00011f38       $unwind$_mbtowc_l          0000000180034f38     libucrt:mbtowc.obj
 0002:00011f50       $unwind$??$?RV<lambda_630b2aca97f6d20d5b5ea6529ea6b6af>@@AEAV<lambda_af91936f1d075d609f72d9d8cba980af>@@V<lambda_e82fa975f615b5c7c7b0e4d178fdae67>@@@?$__crt_seh_guarded_call@H@@QEAAH$$QEAV<lambda_630b2aca97f6d20d5b5ea6529ea6b6af>@@AEAV<lambda_af91936f1d075d609f72d9d8cba980af>@@$$QEAV<lambda_e82fa975f615b5c7c7b0e4d178fdae67>@@@Z 0000000180034f50     libucrt:winapi_thunks.obj
 0002:00011f78       $unwind$_fcloseall         0000000180034f78     libucrt:closeall.obj
 0002:00011f9c       $unwind$__acrt_initialize_lowio 0000000180034f9c     libucrt:ioinit.obj
 0002:00011fbc       $unwind$?initialize_inherited_file_handles_nolock@@YAXXZ 0000000180034fbc     libucrt:ioinit.obj
 0002:00011fd8       $unwind$_close             0000000180034fd8     libucrt:close.obj
 0002:00011fd8       $unwind$_commit            0000000180034fd8     libucrt:commit.obj
 0002:00011fe0       $unwind$??$?RV<lambda_bfedae4ebbf01fab1bb6dcc6a9e276e0>@@AEAV<lambda_2fe9b910cf3cbf4a0ab98a02ba45b3ec>@@V<lambda_237c231691f317818eb88cc1d5d642d6>@@@?$__crt_seh_guarded_call@H@@QEAAH$$QEAV<lambda_bfedae4ebbf01fab1bb6dcc6a9e276e0>@@AEAV<lambda_2fe9b910cf3cbf4a0ab98a02ba45b3ec>@@$$QEAV<lambda_237c231691f317818eb88cc1d5d642d6>@@@Z 0000000180034fe0     libucrt:close.obj
 0002:00012004       $unwind$??$?RV<lambda_b521505b218e5242e90febf6bfebc422>@@AEAV<lambda_6978c1fb23f02e42e1d9e99668cc68aa>@@V<lambda_314360699dd331753a4119843814e9a7>@@@?$__crt_seh_guarded_call@H@@QEAAH$$QEAV<lambda_b521505b218e5242e90febf6bfebc422>@@AEAV<lambda_6978c1fb23f02e42e1d9e99668cc68aa>@@$$QEAV<lambda_314360699dd331753a4119843814e9a7>@@@Z 0000000180035004     libucrt:commit.obj
 0002:00012028       $unwind$_write             0000000180035028     libucrt:write.obj
 0002:00012058       $unwind$_write_nolock      0000000180035058     libucrt:write.obj
 0002:00012070       $unwind$?write_double_translated_ansi_nolock@@YA?AUwrite_result@?A0x9c548279@@HQEBDI@Z 0000000180035070     libucrt:write.obj
 0002:00012090       $unwind$?write_text_utf16le_nolock@@YA?AUwrite_result@?A0x9c548279@@HQEBDI@Z 0000000180035090     libucrt:write.obj
 0002:00012090       $unwind$?write_text_ansi_nolock@@YA?AUwrite_result@?A0x9c548279@@HQEBDI@Z 0000000180035090     libucrt:write.obj
 0002:000120b0       $unwind$?write_text_utf8_nolock@@YA?AUwrite_result@?A0x9c548279@@HQEBDI@Z 00000001800350b0     libucrt:write.obj
 0002:000120d4       $unwind$?common_ftell_translated_utf8_nolock@@YA_JV__crt_stdio_stream@@_J@Z 00000001800350d4     libucrt:ftell.obj
 0002:000120f8       $unwind$?common_ftell_read_mode_nolock@@YA_JV__crt_stdio_stream@@_J1@Z 00000001800350f8     libucrt:ftell.obj
 0002:00012114       $unwind$??$common_ftell_nolock@_J@@YA_JV__crt_stdio_stream@@@Z 0000000180035114     libucrt:ftell.obj
 0002:00012120       $unwind$??$common_ftell@_J@@YA_JV__crt_stdio_stream@@@Z 0000000180035120     libucrt:ftell.obj
 0002:00012140       $unwind$??$write_buffer_nolock@D@@YA_NDV__crt_stdio_stream@@@Z 0000000180035140     libucrt:_flsbuf.obj
 0002:00012150       $unwind$??$common_lseek@_J@@YA_JH_JH@Z 0000000180035150     libucrt:lseek.obj
 0002:00012180       $unwind$__vcrt_uninitialize_winapi_thunks 0000000180035180     libvcruntime:winapi_downlevel.obj
 0002:00012180       $unwind$__acrt_stdio_end_temporary_buffering_nolock 0000000180035180     libucrt:_sftbuf.obj
 0002:00012188       $unwind$_isctype_l         0000000180035188     libucrt:isctype.obj
 0002:000121a4       $unwind$__acrt_GetLocaleInfoA 00000001800351a4     libucrt:getlocaleinfoa.obj
 0002:000121c4       $unwind$?InternalGetLocaleInfoA@@YAHQEAU__crt_locale_pointers@@QEB_WKQEADH@Z 00000001800351c4     libucrt:getlocaleinfoa.obj
 0002:000121ec       $unwind$__acrt_GetStringTypeA 00000001800351ec     libucrt:getstringtypea.obj
 0002:00012214       $unwind$__acrt_LCMapStringA 0000000180035214     libucrt:lcmapstringa.obj
 0002:00012224       $unwind$?__acrt_LCMapStringA_stat@@YAHPEAU__crt_locale_pointers@@PEB_WKPEBDHPEADHHH@Z 0000000180035224     libucrt:lcmapstringa.obj
 0002:0001224c       $unwind$_mbstowcs_s_l      000000018003524c     libucrt:mbstowcs.obj
 0002:00012264       $unwind$?_mbstowcs_l_helper@@YA_KPEA_WPEBD_KPEAU__crt_locale_pointers@@@Z 0000000180035264     libucrt:mbstowcs.obj
 0002:00012280       $unwind$?_wcstombs_l_helper@@YA_KPEADPEB_W_KPEAU__crt_locale_pointers@@@Z 0000000180035280     libucrt:wcstombs.obj
 0002:000122a0       $unwind$__acrt_get_sigabrt_handler 00000001800352a0     libucrt:signal.obj
 0002:000122a8       $unwind$raise              00000001800352a8     libucrt:signal.obj
 0002:000122d4       $unwind$??$?RV<lambda_c36588078e9f5dfd39652860aa6b3aaf>@@AEAV<lambda_ec61778202f4f5fc7e7711acc23c3bca>@@V<lambda_dc9d2797ccde5d239b4a0efae8ebd7db>@@@?$__crt_seh_guarded_call@P6AXH@Z@@QEAAP6AXH@Z$$QEAV<lambda_c36588078e9f5dfd39652860aa6b3aaf>@@AEAV<lambda_ec61778202f4f5fc7e7711acc23c3bca>@@$$QEAV<lambda_dc9d2797ccde5d239b4a0efae8ebd7db>@@@Z 00000001800352d4     libucrt:signal.obj
 0002:000122f8       $unwind$_ctrlfp            00000001800352f8     libucrt:fpctrl.obj
 0002:00012320       $unwind$__acrt_initialize_fma3 0000000180035320     libucrt:fma3_available.obj
 0002:00012328       $unwind$_powf_special      0000000180035328     libucrt:pow_special.obj
 0002:00012338       $unwind$_pow_special       0000000180035338     libucrt:pow_special.obj
 0002:00012344       $unwind$??$common_expand_argv_wildcards@D@@YAHQEAPEADQEAPEAPEAD@Z 0000000180035344     libucrt:argv_wildcards.obj
 0002:0001235c       $unwind$??$expand_argument_wildcards@D@@YAHQEAD0AEAV?$argument_list@D@?A0xca0879c4@@@Z 000000018003535c     libucrt:argv_wildcards.obj
 0002:0001237c       $unwind$__acrt_update_thread_multibyte_data 000000018003537c     libucrt:mbctype.obj
 0002:000123a0       $unwind$_setmbcp_nolock    00000001800353a0     libucrt:mbctype.obj
 0002:000123c0       $unwind$?setSBUpLow@@YAXPEAU__crt_multibyte_data@@@Z 00000001800353c0     libucrt:mbctype.obj
 0002:000123dc       $unwind$?setmbcp_internal@@YAHH_N@Z 00000001800353dc     libucrt:mbctype.obj
 0002:000123ec       $unwind$??$?RV<lambda_99476a1ad63dd22509b5d3e65b0ffc95>@@AEAV<lambda_ad1ced32f4ac17aa236e5ef05d6b3b7c>@@V<lambda_f7424dd8d45958661754dc4f2697e9c3>@@@?$__crt_seh_guarded_call@X@@QEAAX$$QEAV<lambda_99476a1ad63dd22509b5d3e65b0ffc95>@@AEAV<lambda_ad1ced32f4ac17aa236e5ef05d6b3b7c>@@$$QEAV<lambda_f7424dd8d45958661754dc4f2697e9c3>@@@Z 00000001800353ec     libucrt:mbctype.obj
 0002:00012410       $unwind$__dcrt_get_narrow_environment_from_os 0000000180035410     libucrt:get_environment_from_os.obj
 0002:00012410       $unwind$_wcsnicmp_l        0000000180035410     libucrt:wcsnicmp.obj
 0002:00012428       $unwind$__acrt_update_thread_locale_data 0000000180035428     libucrt:locale_refcounting.obj
 0002:0001244c       $unwind$__acrt_locale_initialize_monetary 000000018003544c     libucrt:initmon.obj
 0002:00012468       $unwind$__acrt_locale_free_monetary 0000000180035468     libucrt:initmon.obj
 0002:00012470       $unwind$__acrt_locale_free_time 0000000180035470     libucrt:inittime.obj
 0002:00012480       $unwind$?initialize_lc_time@@YA_NQEAU__crt_lc_time_data@@QEAU__crt_locale_data@@@Z 0000000180035480     libucrt:inittime.obj
 0002:0001249c       $unwind$__acrt_get_qualified_locale 000000018003549c     libucrt:get_qualified_locale.obj
 0002:0001249c       $unwind$??$copy_and_add_argument_to_buffer@D@@YAHQEBD0_KAEAV?$argument_list@D@?A0xca0879c4@@@Z 000000018003549c     libucrt:argv_wildcards.obj
 0002:000124b8       $unwind$LangCountryEnumProcEx 00000001800354b8     libucrt:get_qualified_locale.obj
 0002:000124d8       $unwind$LanguageEnumProcEx 00000001800354d8     libucrt:get_qualified_locale.obj
 0002:000124f4       $unwind$GetLocaleNameFromDefault 00000001800354f4     libucrt:get_qualified_locale.obj
 0002:0001250c       $unwind$TestDefaultCountry 000000018003550c     libucrt:get_qualified_locale.obj
 0002:00012520       $unwind$__acrt_get_qualified_locale_downlevel 0000000180035520     libucrt:getqloc_downlevel.obj
 0002:0001253c       $unwind$LangCountryEnumProc 000000018003553c     libucrt:getqloc_downlevel.obj
 0002:0001255c       $unwind$LanguageEnumProc   000000018003555c     libucrt:getqloc_downlevel.obj
 0002:00012578       $unwind$CountryEnumProc    0000000180035578     libucrt:getqloc_downlevel.obj
 0002:00012598       $unwind$ProcessCodePage    0000000180035598     libucrt:get_qualified_locale.obj
 0002:00012598       $unwind$TestDefaultLanguage 0000000180035598     libucrt:getqloc_downlevel.obj
 0002:00012598       $unwind$??R<lambda_b721fa326cdb32351d23dfa67958c160>@@QEBAHXZ 0000000180035598     libucrt:setvbuf.obj
 0002:00012598       $unwind$ProcessCodePage    0000000180035598     libucrt:getqloc_downlevel.obj
 0002:000125a8       $unwind$?GetTableIndexFromLocaleName@@YAHPEB_W@Z 00000001800355a8     libucrt:lcidtoname_downlevel.obj
 0002:000125c0       $unwind$__acrt_lowio_destroy_handle_array 00000001800355c0     libucrt:osfinfo.obj
 0002:000125d0       $unwind$__acrt_lowio_ensure_fh_exists 00000001800355d0     libucrt:osfinfo.obj
 0002:000125fc       $unwind$_read              00000001800355fc     libucrt:read.obj
 0002:00012628       $unwind$_read_nolock       0000000180035628     libucrt:read.obj
 0002:00012640       $unwind$?translate_ansi_or_utf8_nolock@@YAHHQEAD_KQEA_W1@Z 0000000180035640     libucrt:read.obj
 0002:00012658       $unwind$??$translate_text_mode_nolock@_W@@YAHHQEA_W_K@Z 0000000180035658     libucrt:read.obj
 0002:00012670       $xdatasym                  0000000180035670     libucrt:fpsr.obj
 0002:00012678       $unwind$_call_matherr      0000000180035678     libucrt:libm_error.obj
 0002:00012680       $unwind$_handle_errorf     0000000180035680     libucrt:libm_error.obj
 0002:00012680       $unwind$_handle_error      0000000180035680     libucrt:libm_error.obj
 0002:000126a0       $unwind$_towlower_l        00000001800356a0     libucrt:towlower.obj
 0002:000126a8       $unwind$qsort              00000001800356a8     libucrt:qsort.obj
 0002:000126c0       $chain$4$qsort             00000001800356c0     libucrt:qsort.obj
 0002:000126e4       $chain$5$qsort             00000001800356e4     libucrt:qsort.obj
 0002:000126f4       $unwind$?shortsort@@YAXPEAD0_KP6AHPEBX2@Z@Z 00000001800356f4     libucrt:qsort.obj
 0002:00012704       $chain$2$?shortsort@@YAXPEAD0_KP6AHPEBX2@Z@Z 0000000180035704     libucrt:qsort.obj
 0002:00012720       $chain$3$?shortsort@@YAXPEAD0_KP6AHPEBX2@Z@Z 0000000180035720     libucrt:qsort.obj
 0002:00012730       $unwind$strpbrk            0000000180035730     libucrt:strpbrk.obj
 0002:00012740       $unwind$_mbsdec_l          0000000180035740     libucrt:mbsdec.obj
 0002:00012750       $xdatasym                  0000000180035750     libucrt:log10.obj
 0002:0001275c       $unwind$__acrt_LCMapStringW 000000018003575c     libucrt:lcmapstringw.obj
 0002:00012770       $unwind$_log_special_common 0000000180035770     libucrt:log_special.obj
 0002:0001277c       $unwind$?DloadObtainSection@@YAPEAXPEAK0@Z 000000018003577c     DelayImp:delayhlp.obj
 0002:0001278c       $unwind$?DloadMakePermanentImageCommit@@YAXPEAX_K@Z 000000018003578c     DelayImp:delayhlp.obj
 0002:00012798       $unwind$?DloadProtectSection@@YAXKPEAK@Z 0000000180035798     DelayImp:delayhlp.obj
 0002:000127a8       $unwind$__delayLoadHelper2 00000001800357a8     DelayImp:delayhlp.obj
 0002:000127c0       $unwind$_IsNonwritableInCurrentImage 00000001800357c0     LIBCMT:pesect.obj
 0002:000127e4       $unwind$wcschr             00000001800357e4     libvcruntime:wcschr.obj
 0002:00012fe0       .edata                     0000000180035fe0     familyTree.exp
 0002:00013008       rgpv                       0000000180036008     familyTree.exp
 0002:0001300c       rgszName                   000000018003600c     familyTree.exp
 0002:00013010       rgwOrd                     0000000180036010     familyTree.exp
 0002:00013012       szName                     0000000180036012     familyTree.exp
 0002:00013022       $N00001                    0000000180036022     familyTree.exp
 0002:0001331c       .idata$6                   000000018003631c     kernel32:KERNEL32.dll
 0003:00000000       ?init@std@@3JA             0000000180037000     libcpmt:xlock.obj
 0003:00000010       ?atcount_cdecl@@3_KA       0000000180037010     libcpmt:iosptrs.obj
 0003:000000c0       ?__vcrt_flsindex@@3KA      00000001800370c0     libvcruntime:per_thread_data.obj
 0003:000000d0       errno_no_memory            00000001800370d0     libucrt:errno.obj
 0003:000000d4       doserrno_no_memory         00000001800370d4     libucrt:errno.obj
 0003:000002b0       __acrt_flsindex            00000001800372b0     libucrt:per_thread_data.obj
 0003:000002b8       _ctype_loc_style           00000001800372b8     libucrt:wsetlocale.obj
 0003:00000474       ?dazSupported@?1??_ctrlfp@@9@9 0000000180037474     libucrt:fpctrl.obj
 0003:00000480       tzstd_program              0000000180037480     libucrt:timeset.obj
 0003:000004c0       tzdst_program              00000001800374c0     libucrt:timeset.obj
 0003:00000500       tzname_states              0000000180037500     libucrt:timeset.obj
 0003:00000740       __rgctypeflag              0000000180037740     libucrt:mbctype.obj
 0003:00000750       __rgcode_page_info         0000000180037750     libucrt:mbctype.obj
 0003:00000b60       _module                    0000000180037b60     familyTree.obj
 0003:000011d0       ?initlocks@@3V_Init_locks@std@@A 00000001800381d0     libcpmt:cout.obj
 0003:000011d1       ?init_cout@std@@3U_Init_cout@1@A 00000001800381d1     libcpmt:cout.obj
 0003:00001250       ?fout@std@@3V?$basic_filebuf@DU?$char_traits@D@std@@@1@A 0000000180038250     libcpmt:cout.obj
 0003:00001310       ?initlocks@std@@3V_Init_locks@1@A 0000000180038310     libcpmt:xlock.obj
 0003:00001320       ?mtx@std@@3PAU_RTL_CRITICAL_SECTION@@A 0000000180038320     libcpmt:xlock.obj
 0003:00001460       ?_Fac_head@std@@3PEAU_Fac_node@1@EA 0000000180038460     libcpmt:locale0.obj
 0003:00001478       global_locale              0000000180038478     libcpmt:locale0.obj
 0003:000014a0       ?classic_locale@std@@3Vlocale@1@A 00000001800384a0     libcpmt:locale0.obj
 0003:000014b8       ?_Fac_tidy_reg@std@@3U_Fac_tidy_reg_t@1@B 00000001800384b8     libcpmt:locale0.obj
 0003:000014b9       ?registered@?1??_Setgloballocale@locale@std@@CAXPEAX@Z@4_NA 00000001800384b9     libcpmt:locale0.obj
 0003:000014c0       ?stdstr@std@@3PAPEAVios_base@1@A 00000001800384c0     libcpmt:ios.obj
 0003:00001510       ?stdopens@std@@3PADA       0000000180038510     libcpmt:ios.obj
 0003:00001560       ?atfuns_cdecl@@3PAP6AXXZA  0000000180038560     libcpmt:iosptrs.obj
 0003:000015b0       ?initlocks@std@@3V_Init_locks@1@A 00000001800385b0     libcpmt:iosptrs.obj
 0003:000015b1       ?init_atexit@@3U_Init_atexit@@A 00000001800385b1     libcpmt:iosptrs.obj
 0003:00001810       ?_Tss_mutex@@3U_RTL_CRITICAL_SECTION@@A 0000000180038810     LIBCMT:thread_safe_statics.obj
 0003:00001838       ?_Tss_cv@@3U_RTL_CONDITION_VARIABLE@@A 0000000180038838     LIBCMT:thread_safe_statics.obj
 0003:00001840       ?_Tss_event@@3PEAXEA       0000000180038840     LIBCMT:thread_safe_statics.obj
 0003:00001848       ?encoded_sleep_condition_variable_cs@@3P6AHPEAU_RTL_CONDITION_VARIABLE@@PEAU_RTL_CRITICAL_SECTION@@K@ZEA 0000000180038848     LIBCMT:thread_safe_statics.obj
 0003:00001850       ?encoded_wake_all_condition_variable@@3P6AXPEAU_RTL_CONDITION_VARIABLE@@@ZEA 0000000180038850     LIBCMT:thread_safe_statics.obj
 0003:00001868       ?module_local_atexit_table@@3U_onexit_table_t@@A 0000000180038868     LIBCMT:utility.obj
 0003:00001880       ?module_local_at_quick_exit_table@@3U_onexit_table_t@@A 0000000180038880     LIBCMT:utility.obj
 0003:00001898       ?is_initialized_as_dll@@3_NA 0000000180038898     LIBCMT:utility.obj
 0003:0000189c       ?__proc_attached@@3HA      000000018003889c     LIBCMT:dll_dllmain.obj
 0003:000018a0       GS_ExceptionRecord         00000001800388a0     LIBCMT:gs_report.obj
 0003:00001940       GS_ContextRecord           0000000180038940     LIBCMT:gs_report.obj
 0003:00001e40       ?module_handles@@3PAPEAUHINSTANCE__@@A 0000000180038e40     libvcruntime:winapi_downlevel.obj
 0003:00001e60       ?encoded_function_pointers@@3PAPEAXA 0000000180038e60     libvcruntime:winapi_downlevel.obj
 0003:00001eb0       ?__vcrt_startup_thread_ptd@@3U__vcrt_ptd@@A 0000000180038eb0     libvcruntime:per_thread_data.obj
 0003:00001f28       __vcrt_lock_table          0000000180038f28     libvcruntime:locks.obj
 0003:00001f50       __vcrt_locks_initialized   0000000180038f50     libvcruntime:locks.obj
 0003:00001fa0       ?heap@@3V_HeapManager@@A   0000000180038fa0     libvcruntime:undname.obj
 0003:00001fc8       __acrt_invalid_parameter_handler 0000000180038fc8     libucrt:invalid_parameter.obj
 0003:00001ff0       __acrt_lock_table          0000000180038ff0     libucrt:locks.obj
 0003:000021f8       __acrt_locks_initialized   00000001800391f8     libucrt:locks.obj
 0003:00002208       __acrt_new_handler         0000000180039208     libucrt:new_handler.obj
 0003:00002210       c_termination_complete     0000000180039210     libucrt:exit.obj
 0003:00002218       thread_local_exit_callback_func 0000000180039218     libucrt:exit.obj
 0003:00002220       ?c_exit_complete@?5??common_exit@@YAXHW4_crt_exit_cleanup_mode@@W4_crt_exit_return_mode@@@Z@4_NA 0000000180039220     libucrt:exit.obj
 0003:00002230       ?program_name@?5???$common_configure_argv@D@@YAHW4_crt_argv_mode@@@Z@4PADA 0000000180039230     libucrt:argv_parsing.obj
 0003:000023a0       module_handles             00000001800393a0     libucrt:winapi_thunks.obj
 0003:00002440       encoded_function_pointers  0000000180039440     libucrt:winapi_thunks.obj
 0003:00002540       ?static_enum_proc@?1??enum_system_locales_ex_nolock@@YAHQ6AHPEA_WK_J@Z@Z@4P6AH0K1@ZEA 0000000180039540     libucrt:winapi_thunks.obj
 0003:00002548       ?state_cache@?1??__acrt_is_packaged_app@@9@4JA 0000000180039548     libucrt:winapi_thunks.obj
 0003:00002968       __acrt_global_new_mode     0000000180039968     libucrt:new_mode.obj
 0003:00002978       ctrlc_action               0000000180039978     libucrt:signal.obj
 0003:00002980       ctrlbreak_action           0000000180039980     libucrt:signal.obj
 0003:00002988       abort_action               0000000180039988     libucrt:signal.obj
 0003:00002990       term_action                0000000180039990     libucrt:signal.obj
 0003:000029b0       _tzname                    00000001800399b0     libucrt:timeset.obj
 0003:000029c0       tz_api_used                00000001800399c0     libucrt:tzset.obj
 0003:000029d0       tz_info                    00000001800399d0     libucrt:tzset.obj
 0003:00002a94       fSystemSet                 0000000180039a94     libucrt:mbctype.obj
 0003:00002aa0       ?initialized@?1??__acrt_initialize_multibyte@@9@4_NA 0000000180039aa0     libucrt:mbctype.obj
 0003:00002ad0       user_matherr               0000000180039ad0     libucrt:matherr.obj
 0003:00002ad8       __acrt_app_type            0000000180039ad8     libucrt:report_runtime_error.obj
 0004:00000000       $pdata$??__Eroot@@YAXXZ    000000018003a000     familyTree.obj
 0004:0000000c       $pdata$??__Ecout@std@@YAXXZ 000000018003a00c     libcpmt:cout.obj
 0004:00000018       $pdata$??__Efout@std@@YAXXZ 000000018003a018     libcpmt:cout.obj
 0004:00000024       $pdata$??__Einitlocks@@YAXXZ 000000018003a024     libcpmt:cout.obj
 0004:00000030       $pdata$??__Einitlocks@std@@YAXXZ 000000018003a030     libcpmt:xlock.obj
 0004:0000003c       $pdata$??__Einitlocks@std@@YAXXZ 000000018003a03c     libcpmt:iosptrs.obj
 0004:00000048       $pdata$??_Gexception@stdext@@UEAAPEAXI@Z 000000018003a048     familyTree.obj
 0004:00000048       $pdata$??_Gruntime_error@std@@UEAAPEAXI@Z 000000018003a048     familyTree.obj
 0004:00000054       $pdata$?_Deallocate@std@@YAXPEAX_K1@Z 000000018003a054     familyTree.obj
 0004:00000060       $pdata$??_Gerror_category@std@@UEAAPEAXI@Z 000000018003a060     familyTree.obj
 0004:00000060       $pdata$??_G_Iostream_error_category@std@@UEAAPEAXI@Z 000000018003a060     familyTree.obj
 0004:0000006c       $pdata$?equivalent@error_category@std@@UEBA_NHAEBVerror_condition@2@@Z 000000018003a06c     familyTree.obj
 0004:00000078       $pdata$??0_System_error@std@@IEAA@Verror_code@1@AEBV?$basic_string@DU?$char_traits@D@std@@V?$allocator@D@2@@1@@Z 000000018003a078     familyTree.obj
 0004:00000084       $pdata$??_Gfailure@ios_base@std@@UEAAPEAXI@Z 000000018003a084     familyTree.obj
 0004:00000084       $pdata$??_G_System_error@std@@UEAAPEAXI@Z 000000018003a084     familyTree.obj
 0004:00000090       $pdata$?message@_Iostream_error_category@std@@UEBA?AV?$basic_string@DU?$char_traits@D@std@@V?$allocator@D@2@@2@H@Z 000000018003a090     familyTree.obj
 0004:0000009c       $pdata$?clear@ios_base@std@@QEAAXH_N@Z 000000018003a09c     familyTree.obj
 0004:000000a8       $pdata$1$?clear@ios_base@std@@QEAAXH_N@Z 000000018003a0a8     familyTree.obj
 0004:000000b4       $pdata$2$?clear@ios_base@std@@QEAAXH_N@Z 000000018003a0b4     familyTree.obj
 0004:000000c0       $pdata$3$?clear@ios_base@std@@QEAAXH_N@Z 000000018003a0c0     familyTree.obj
 0004:000000cc       $pdata$??0Detail@@QEAA@AEBU0@@Z 000000018003a0cc     familyTree.obj
 0004:000000d8       $pdata$??0Detail@@QEAA@AEBV?$basic_string@DU?$char_traits@D@std@@V?$allocator@D@2@@std@@000_N@Z 000000018003a0d8     familyTree.obj
 0004:000000e4       $pdata$??4Detail@@QEAAAEAU0@AEBU0@@Z 000000018003a0e4     familyTree.obj
 0004:000000f0       $pdata$??0Node@@QEAA@AEBU0@@Z 000000018003a0f0     familyTree.obj
 0004:000000fc       $pdata$??4Node@@QEAAAEAU0@AEBU0@@Z 000000018003a0fc     familyTree.obj
 0004:00000108       $pdata$??1Detail@@QEAA@XZ  000000018003a108     familyTree.obj
 0004:00000114       $pdata$??0familyTree@@QEAA@XZ 000000018003a114     familyTree.obj
 0004:00000120       $pdata$??1Node@@QEAA@XZ    000000018003a120     familyTree.obj
 0004:0000012c       $pdata$?addToParent@familyTree@@QEAA?AUtoReturn@@AEBUDetail@@AEBI@Z 000000018003a12c     familyTree.obj
 0004:00000138       $pdata$?addToCouple@familyTree@@QEAA?AUtoReturn@@AEBUDetail@@AEBI@Z 000000018003a138     familyTree.obj
 0004:00000144       $pdata$?addToSublings@familyTree@@QEAA?AUtoReturn@@AEBUDetail@@AEBI@Z 000000018003a144     familyTree.obj
 0004:00000150       $pdata$?addToChildren@familyTree@@QEAA?AUtoReturn@@AEBUDetail@@AEBI@Z 000000018003a150     familyTree.obj
 0004:0000015c       $pdata$?deleteSubTree@familyTree@@QEAA?AUtoReturn@@AEBI@Z 000000018003a15c     familyTree.obj
 0004:00000168       $pdata$1$?deleteSubTree@familyTree@@QEAA?AUtoReturn@@AEBI@Z 000000018003a168     familyTree.obj
 0004:00000174       $pdata$2$?deleteSubTree@familyTree@@QEAA?AUtoReturn@@AEBI@Z 000000018003a174     familyTree.obj
 0004:00000180       $pdata$3$?deleteSubTree@familyTree@@QEAA?AUtoReturn@@AEBI@Z 000000018003a180     familyTree.obj
 0004:0000018c       $pdata$4$?deleteSubTree@familyTree@@QEAA?AUtoReturn@@AEBI@Z 000000018003a18c     familyTree.obj
 0004:00000198       $pdata$?traverse@@YAPEAUNode@@PEAU1@AEBI@Z 000000018003a198     familyTree.obj
 0004:000001a4       $pdata$?nodeToString@familyTree@@QEAA?AV?$basic_string@DU?$char_traits@D@std@@V?$allocator@D@2@@std@@AEAUNode@@@Z 000000018003a1a4     familyTree.obj
 0004:000001b0       $pdata$?printTree@familyTree@@QEAA?AV?$basic_string@DU?$char_traits@D@std@@V?$allocator@D@2@@std@@XZ 000000018003a1b0     familyTree.obj
 0004:000001bc       $pdata$?NODE_SET_METHOD@node@@YAXV?$Local@VObject@v8@@@v8@@PEBDP6AXAEBV?$FunctionCallbackInfo@VValue@v8@@@3@@Z@Z 000000018003a1bc     familyTree.obj
 0004:000001c8       $pdata$?CreateObject@demo@@YAXAEBV?$FunctionCallbackInfo@VValue@v8@@@v8@@@Z 000000018003a1c8     familyTree.obj
 0004:000001d4       $pdata$1$?CreateObject@demo@@YAXAEBV?$FunctionCallbackInfo@VValue@v8@@@v8@@@Z 000000018003a1d4     familyTree.obj
 0004:000001e0       $pdata$4$?CreateObject@demo@@YAXAEBV?$FunctionCallbackInfo@VValue@v8@@@v8@@@Z 000000018003a1e0     familyTree.obj
 0004:000001ec       $pdata$5$?CreateObject@demo@@YAXAEBV?$FunctionCallbackInfo@VValue@v8@@@v8@@@Z 000000018003a1ec     familyTree.obj
 0004:000001f8       $pdata$6$?CreateObject@demo@@YAXAEBV?$FunctionCallbackInfo@VValue@v8@@@v8@@@Z 000000018003a1f8     familyTree.obj
 0004:00000204       $pdata$?Init@demo@@YAXV?$Local@VObject@v8@@@v8@@0@Z 000000018003a204     familyTree.obj
 0004:00000210       $pdata$?push_back@?$vector@UNode@@V?$allocator@UNode@@@std@@@std@@QEAAXAEBUNode@@@Z 000000018003a210     familyTree.obj
 0004:00000210       $pdata$?push_back@?$vector@UNode@@V?$allocator@UNode@@@std@@@std@@QEAAX$$QEAUNode@@@Z 000000018003a210     familyTree.obj
 0004:0000021c       $pdata$??4?$vector@UNode@@V?$allocator@UNode@@@std@@@std@@QEAAAEAV01@AEBV01@@Z 000000018003a21c     familyTree.obj
 0004:00000228       $pdata$2$??4?$vector@UNode@@V?$allocator@UNode@@@std@@@std@@QEAAAEAV01@AEBV01@@Z 000000018003a228     familyTree.obj
 0004:00000234       $pdata$3$??4?$vector@UNode@@V?$allocator@UNode@@@std@@@std@@QEAAAEAV01@AEBV01@@Z 000000018003a234     familyTree.obj
 0004:00000240       $pdata$??0?$vector@UNode@@V?$allocator@UNode@@@std@@@std@@QEAA@AEBV01@@Z 000000018003a240     familyTree.obj
 0004:0000024c       $pdata$1$??0?$vector@UNode@@V?$allocator@UNode@@@std@@@std@@QEAA@AEBV01@@Z 000000018003a24c     familyTree.obj
 0004:00000258       $pdata$2$??0?$vector@UNode@@V?$allocator@UNode@@@std@@@std@@QEAA@AEBV01@@Z 000000018003a258     familyTree.obj
 0004:00000264       $pdata$??1?$basic_string@DU?$char_traits@D@std@@V?$allocator@D@2@@std@@QEAA@XZ 000000018003a264     familyTree.obj
 0004:00000270       $pdata$??4?$basic_string@DU?$char_traits@D@std@@V?$allocator@D@2@@std@@QEAAAEAV01@$$QEAV01@@Z 000000018003a270     familyTree.obj
 0004:0000027c       $pdata$??0?$basic_string@DU?$char_traits@D@std@@V?$allocator@D@2@@std@@QEAA@$$QEAV01@@Z 000000018003a27c     familyTree.obj
 0004:00000288       $pdata$??0?$basic_string@DU?$char_traits@D@std@@V?$allocator@D@2@@std@@QEAA@PEBD@Z 000000018003a288     familyTree.obj
 0004:00000294       $pdata$?deallocate@?$_Wrap_alloc@V?$allocator@UNode@@@std@@@std@@QEAAXPEAUNode@@_K@Z 000000018003a294     familyTree.obj
 0004:000002a0       $pdata$?_Tidy@?$vector@UNode@@V?$allocator@UNode@@@std@@@std@@IEAAXXZ 000000018003a2a0     familyTree.obj
 0004:000002ac       $pdata$0$?_Tidy@?$vector@UNode@@V?$allocator@UNode@@@std@@@std@@IEAAXXZ 000000018003a2ac     familyTree.obj
 0004:000002b8       $pdata$1$?_Tidy@?$vector@UNode@@V?$allocator@UNode@@@std@@@std@@IEAAXXZ 000000018003a2b8     familyTree.obj
 0004:000002c4       $pdata$?_Reserve@?$vector@UNode@@V?$allocator@UNode@@@std@@@std@@IEAAX_K@Z 000000018003a2c4     familyTree.obj
 0004:000002d0       $pdata$?_Destroy@?$vector@UNode@@V?$allocator@UNode@@@std@@@std@@IEAAXPEAUNode@@0@Z 000000018003a2d0     familyTree.obj
 0004:000002dc       $pdata$0$?_Destroy@?$vector@UNode@@V?$allocator@UNode@@@std@@@std@@IEAAXPEAUNode@@0@Z 000000018003a2dc     familyTree.obj
 0004:000002e8       $pdata$1$?_Destroy@?$vector@UNode@@V?$allocator@UNode@@@std@@@std@@IEAAXPEAUNode@@0@Z 000000018003a2e8     familyTree.obj
 0004:000002f4       $pdata$?_Buy@?$vector@UNode@@V?$allocator@UNode@@@std@@@std@@IEAA_N_K@Z 000000018003a2f4     familyTree.obj
 0004:00000300       $pdata$?clear@?$vector@UNode@@V?$allocator@UNode@@@std@@@std@@QEAAXXZ 000000018003a300     familyTree.obj
 0004:0000030c       $pdata$?_Tidy@?$basic_string@DU?$char_traits@D@std@@V?$allocator@D@2@@std@@QEAAX_N_K@Z 000000018003a30c     familyTree.obj
 0004:00000318       $pdata$?assign@?$basic_string@DU?$char_traits@D@std@@V?$allocator@D@2@@std@@QEAAAEAV12@PEBD_K@Z 000000018003a318     familyTree.obj
 0004:00000324       $pdata$?assign@?$basic_string@DU?$char_traits@D@std@@V?$allocator@D@2@@std@@QEAAAEAV12@AEBV12@_K1@Z 000000018003a324     familyTree.obj
 0004:00000330       $pdata$?append@?$basic_string@DU?$char_traits@D@std@@V?$allocator@D@2@@std@@QEAAAEAV12@PEBD_K@Z 000000018003a330     familyTree.obj
 0004:0000033c       $pdata$0$?append@?$basic_string@DU?$char_traits@D@std@@V?$allocator@D@2@@std@@QEAAAEAV12@PEBD_K@Z 000000018003a33c     familyTree.obj
 0004:00000348       $pdata$1$?append@?$basic_string@DU?$char_traits@D@std@@V?$allocator@D@2@@std@@QEAAAEAV12@PEBD_K@Z 000000018003a348     familyTree.obj
 0004:00000354       $pdata$2$?append@?$basic_string@DU?$char_traits@D@std@@V?$allocator@D@2@@std@@QEAAAEAV12@PEBD_K@Z 000000018003a354     familyTree.obj
 0004:00000360       $pdata$?append@?$basic_string@DU?$char_traits@D@std@@V?$allocator@D@2@@std@@QEAAAEAV12@AEBV12@_K1@Z 000000018003a360     familyTree.obj
 0004:0000036c       $pdata$0$?append@?$basic_string@DU?$char_traits@D@std@@V?$allocator@D@2@@std@@QEAAAEAV12@AEBV12@_K1@Z 000000018003a36c     familyTree.obj
 0004:00000378       $pdata$1$?append@?$basic_string@DU?$char_traits@D@std@@V?$allocator@D@2@@std@@QEAAAEAV12@AEBV12@_K1@Z 000000018003a378     familyTree.obj
 0004:00000384       $pdata$2$?append@?$basic_string@DU?$char_traits@D@std@@V?$allocator@D@2@@std@@QEAAAEAV12@AEBV12@_K1@Z 000000018003a384     familyTree.obj
 0004:00000390       $pdata$?_Assign_rv@?$basic_string@DU?$char_traits@D@std@@V?$allocator@D@2@@std@@QEAAX$$QEAV12@@Z 000000018003a390     familyTree.obj
 0004:0000039c       $pdata$?allocate@?$_Wrap_alloc@V?$allocator@UNode@@@std@@@std@@QEAAPEAUNode@@_K@Z 000000018003a39c     familyTree.obj
 0004:000003a8       $pdata$?_Reallocate@?$vector@UNode@@V?$allocator@UNode@@@std@@@std@@IEAAX_K@Z 000000018003a3a8     familyTree.obj
 0004:000003b4       $pdata$3$?_Reallocate@?$vector@UNode@@V?$allocator@UNode@@@std@@@std@@IEAAX_K@Z 000000018003a3b4     familyTree.obj
 0004:000003c0       $pdata$4$?_Reallocate@?$vector@UNode@@V?$allocator@UNode@@@std@@@std@@IEAAX_K@Z 000000018003a3c0     familyTree.obj
 0004:000003cc       $pdata$5$?_Reallocate@?$vector@UNode@@V?$allocator@UNode@@@std@@@std@@IEAAX_K@Z 000000018003a3cc     familyTree.obj
 0004:000003d8       $pdata$?deallocate@?$_Wrap_alloc@V?$allocator@D@std@@@std@@QEAAXPEAD_K@Z 000000018003a3d8     familyTree.obj
 0004:000003e4       $pdata$?_Xlen@?$basic_string@DU?$char_traits@D@std@@V?$allocator@D@2@@std@@QEBAXXZ 000000018003a3e4     familyTree.obj
 0004:000003f0       $pdata$?erase@?$basic_string@DU?$char_traits@D@std@@V?$allocator@D@2@@std@@QEAAAEAV12@_K0@Z 000000018003a3f0     familyTree.obj
 0004:000003fc       $pdata$?_Copy@?$basic_string@DU?$char_traits@D@std@@V?$allocator@D@2@@std@@QEAAX_K0@Z 000000018003a3fc     familyTree.obj
 0004:00000408       $pdata$??$_Immortalize@V_Iostream_error_category@std@@@std@@YAAEAV_Iostream_error_category@0@XZ 000000018003a408     familyTree.obj
 0004:00000414       $pdata$??$_Integral_to_string@DI@std@@YA?AV?$basic_string@DU?$char_traits@D@std@@V?$allocator@D@2@@0@I@Z 000000018003a414     familyTree.obj
 0004:00000420       $pdata$??$?HDU?$char_traits@D@std@@V?$allocator@D@1@@std@@YA?AV?$basic_string@DU?$char_traits@D@std@@V?$allocator@D@2@@0@AEBV10@PEBD@Z 000000018003a420     familyTree.obj
 0004:0000042c       $pdata$??$?6U?$char_traits@D@std@@@std@@YAAEAV?$basic_ostream@DU?$char_traits@D@std@@@0@AEAV10@PEBD@Z 000000018003a42c     familyTree.obj
 0004:00000438       $pdata$??$_Copy_unchecked@PEAUNode@@PEAU1@@std@@YAPEAUNode@@PEAU1@00@Z 000000018003a438     familyTree.obj
 0004:00000444       $pdata$??0sentry@?$basic_ostream@DU?$char_traits@D@std@@@std@@QEAA@AEAV12@@Z 000000018003a444     familyTree.obj
 0004:00000450       $pdata$?reserve@?$basic_string@DU?$char_traits@D@std@@V?$allocator@D@2@@std@@QEAAX_K@Z 000000018003a450     familyTree.obj
 0004:0000045c       $pdata$?insert@?$basic_string@DU?$char_traits@D@std@@V?$allocator@D@2@@std@@QEAAAEAV12@_KPEBD0@Z 000000018003a45c     familyTree.obj
 0004:00000468       $pdata$0$?insert@?$basic_string@DU?$char_traits@D@std@@V?$allocator@D@2@@std@@QEAAAEAV12@_KPEBD0@Z 000000018003a468     familyTree.obj
 0004:00000474       $pdata$1$?insert@?$basic_string@DU?$char_traits@D@std@@V?$allocator@D@2@@std@@QEAAAEAV12@_KPEBD0@Z 000000018003a474     familyTree.obj
 0004:00000480       $pdata$2$?insert@?$basic_string@DU?$char_traits@D@std@@V?$allocator@D@2@@std@@QEAAAEAV12@_KPEBD0@Z 000000018003a480     familyTree.obj
 0004:0000048c       $pdata$?insert@?$basic_string@DU?$char_traits@D@std@@V?$allocator@D@2@@std@@QEAAAEAV12@_KAEBV12@00@Z 000000018003a48c     familyTree.obj
 0004:00000498       $pdata$0$?insert@?$basic_string@DU?$char_traits@D@std@@V?$allocator@D@2@@std@@QEAAAEAV12@_KAEBV12@00@Z 000000018003a498     familyTree.obj
 0004:000004a4       $pdata$1$?insert@?$basic_string@DU?$char_traits@D@std@@V?$allocator@D@2@@std@@QEAAAEAV12@_KAEBV12@00@Z 000000018003a4a4     familyTree.obj
 0004:000004b0       $pdata$3$?insert@?$basic_string@DU?$char_traits@D@std@@V?$allocator@D@2@@std@@QEAAAEAV12@_KAEBV12@00@Z 000000018003a4b0     familyTree.obj
 0004:000004bc       $pdata$4$?insert@?$basic_string@DU?$char_traits@D@std@@V?$allocator@D@2@@std@@QEAAAEAV12@_KAEBV12@00@Z 000000018003a4bc     familyTree.obj
 0004:000004c8       $pdata$5$?insert@?$basic_string@DU?$char_traits@D@std@@V?$allocator@D@2@@std@@QEAAAEAV12@_KAEBV12@00@Z 000000018003a4c8     familyTree.obj
 0004:000004d4       $pdata$?flush@?$basic_ostream@DU?$char_traits@D@std@@@std@@QEAAAEAV12@XZ 000000018003a4d4     familyTree.obj
 0004:000004e0       $pdata$0$?flush@?$basic_ostream@DU?$char_traits@D@std@@@std@@QEAAAEAV12@XZ 000000018003a4e0     familyTree.obj
 0004:000004ec       $pdata$1$?flush@?$basic_ostream@DU?$char_traits@D@std@@@std@@QEAAAEAV12@XZ 000000018003a4ec     familyTree.obj
 0004:000004f8       $pdata$??$_Move_unchecked1@PEAUNode@@PEAU1@@std@@YAPEAUNode@@PEAU1@00U_General_ptr_iterator_tag@0@@Z 000000018003a4f8     familyTree.obj
 0004:00000504       $pdata$1$??$_Move_unchecked1@PEAUNode@@PEAU1@@std@@YAPEAUNode@@PEAU1@00U_General_ptr_iterator_tag@0@@Z 000000018003a504     familyTree.obj
 0004:00000510       $pdata$2$??$_Move_unchecked1@PEAUNode@@PEAU1@@std@@YAPEAUNode@@PEAU1@00U_General_ptr_iterator_tag@0@@Z 000000018003a510     familyTree.obj
 0004:0000051c       $pdata$??$_Uninitialized_move_al_unchecked1@PEAUNode@@PEAU1@V?$allocator@UNode@@@std@@@std@@YAPEAUNode@@PEAU1@00AEAU?$_Wrap_alloc@V?$allocator@UNode@@@std@@@0@U_General_ptr_iterator_tag@0@U_Any_tag@0@@Z 000000018003a51c     familyTree.obj
 0004:0000051c       $pdata$??$_Uninitialized_copy_al_unchecked1@PEAUNode@@PEAU1@V?$allocator@UNode@@@std@@@std@@YAPEAUNode@@PEAU1@00AEAU?$_Wrap_alloc@V?$allocator@UNode@@@std@@@0@U_General_ptr_iterator_tag@0@U_Any_tag@0@@Z 000000018003a51c     familyTree.obj
 0004:00000528       $pdata$0$??$_Uninitialized_move_al_unchecked1@PEAUNode@@PEAU1@V?$allocator@UNode@@@std@@@std@@YAPEAUNode@@PEAU1@00AEAU?$_Wrap_alloc@V?$allocator@UNode@@@std@@@0@U_General_ptr_iterator_tag@0@U_Any_tag@0@@Z 000000018003a528     familyTree.obj
 0004:00000528       $pdata$0$??$_Uninitialized_copy_al_unchecked1@PEAUNode@@PEAU1@V?$allocator@UNode@@@std@@@std@@YAPEAUNode@@PEAU1@00AEAU?$_Wrap_alloc@V?$allocator@UNode@@@std@@@0@U_General_ptr_iterator_tag@0@U_Any_tag@0@@Z 000000018003a528     familyTree.obj
 0004:00000534       $pdata$1$??$_Uninitialized_copy_al_unchecked1@PEAUNode@@PEAU1@V?$allocator@UNode@@@std@@@std@@YAPEAUNode@@PEAU1@00AEAU?$_Wrap_alloc@V?$allocator@UNode@@@std@@@0@U_General_ptr_iterator_tag@0@U_Any_tag@0@@Z 000000018003a534     familyTree.obj
 0004:00000534       $pdata$1$??$_Uninitialized_move_al_unchecked1@PEAUNode@@PEAU1@V?$allocator@UNode@@@std@@@std@@YAPEAUNode@@PEAU1@00AEAU?$_Wrap_alloc@V?$allocator@UNode@@@std@@@0@U_General_ptr_iterator_tag@0@U_Any_tag@0@@Z 000000018003a534     familyTree.obj
 0004:00000540       $pdata$?load_exe_hook@@YAP6A_JXZIPEAUDelayLoadInfo@@@Z 000000018003a540     win_delay_load_hook.obj
 0004:00000558       $pdata$??$use_facet@V?$codecvt@DDU_Mbstatet@@@std@@@std@@YAAEBV?$codecvt@DDU_Mbstatet@@@0@AEBVlocale@0@@Z 000000018003a558     libcpmt:cout.obj
 0004:00000564       $pdata$??$use_facet@V?$ctype@D@std@@@std@@YAAEBV?$ctype@D@0@AEBVlocale@0@@Z 000000018003a564     libcpmt:cout.obj
 0004:00000570       $pdata$??0?$basic_ostream@DU?$char_traits@D@std@@@std@@QEAA@PEAV?$basic_streambuf@DU?$char_traits@D@std@@@1@_N@Z 000000018003a570     libcpmt:cout.obj
 0004:0000057c       $pdata$??0?$basic_streambuf@DU?$char_traits@D@std@@@std@@IEAA@XZ 000000018003a57c     libcpmt:cout.obj
 0004:00000588       $pdata$??0_Locinfo@std@@QEAA@PEBD@Z 000000018003a588     libcpmt:cout.obj
 0004:00000594       $pdata$??0bad_cast@std@@QEAA@AEBV01@@Z 000000018003a594     libcpmt:cout.obj
 0004:000005a0       $pdata$??0exception@std@@QEAA@AEBV01@@Z 000000018003a5a0     libcpmt:cout.obj
 0004:000005ac       $pdata$??0runtime_error@std@@QEAA@AEBV01@@Z 000000018003a5ac     libcpmt:cout.obj
 0004:000005b8       $pdata$??0runtime_error@std@@QEAA@PEBD@Z 000000018003a5b8     libcpmt:cout.obj
 0004:000005c4       $pdata$??1?$_Yarn@D@std@@QEAA@XZ 000000018003a5c4     libcpmt:cout.obj
 0004:000005c4       $pdata$??1?$_Yarn@_W@std@@QEAA@XZ 000000018003a5c4     libcpmt:cout.obj
 0004:000005d0       $pdata$??1?$basic_filebuf@DU?$char_traits@D@std@@@std@@UEAA@XZ 000000018003a5d0     libcpmt:cout.obj
 0004:000005dc       $pdata$??1?$basic_ios@DU?$char_traits@D@std@@@std@@UEAA@XZ 000000018003a5dc     libcpmt:cout.obj
 0004:000005e8       $pdata$??1_Locinfo@std@@QEAA@XZ 000000018003a5e8     libcpmt:cout.obj
 0004:000005f4       $pdata$??1locale@std@@QEAA@XZ 000000018003a5f4     libcpmt:cout.obj
 0004:00000600       $pdata$??_G?$basic_filebuf@DU?$char_traits@D@std@@@std@@UEAAPEAXI@Z 000000018003a600     libcpmt:cout.obj
 0004:0000060c       $pdata$??_G?$basic_ios@DU?$char_traits@D@std@@@std@@UEAAPEAXI@Z 000000018003a60c     libcpmt:cout.obj
 0004:00000618       $pdata$??_G?$basic_ostream@DU?$char_traits@D@std@@@std@@UEAAPEAXI@Z 000000018003a618     libcpmt:cout.obj
 0004:00000624       $pdata$??_G?$basic_streambuf@DU?$char_traits@D@std@@@std@@UEAAPEAXI@Z 000000018003a624     libcpmt:cout.obj
 0004:00000630       $pdata$??_G?$codecvt@DDU_Mbstatet@@@std@@MEAAPEAXI@Z 000000018003a630     libcpmt:cout.obj
 0004:0000063c       $pdata$??_G?$ctype@D@std@@MEAAPEAXI@Z 000000018003a63c     libcpmt:cout.obj
 0004:00000648       $pdata$??_G_Facet_base@std@@UEAAPEAXI@Z 000000018003a648     libcpmt:cout.obj
 0004:00000654       $pdata$??_Gios_base@std@@UEAAPEAXI@Z 000000018003a654     libcpmt:cout.obj
 0004:00000660       $pdata$??_Glocale@std@@QEAAPEAXI@Z 000000018003a660     libcpmt:cout.obj
 0004:0000066c       $pdata$?_Endwrite@?$basic_filebuf@DU?$char_traits@D@std@@@std@@IEAA_NXZ 000000018003a66c     libcpmt:cout.obj
 0004:00000678       $pdata$?_Getcat@?$codecvt@DDU_Mbstatet@@@std@@SA_KPEAPEBVfacet@locale@2@PEBV42@@Z 000000018003a678     libcpmt:cout.obj
 0004:00000684       $pdata$?_Getcat@?$ctype@D@std@@SA_KPEAPEBVfacet@locale@2@PEBV42@@Z 000000018003a684     libcpmt:cout.obj
 0004:00000690       $pdata$?_Init@?$basic_filebuf@DU?$char_traits@D@std@@@std@@IEAAXPEAU_iobuf@@W4_Initfl@12@@Z 000000018003a690     libcpmt:cout.obj
 0004:0000069c       $pdata$?_Init@ios_base@std@@IEAAXXZ 000000018003a69c     libcpmt:cout.obj
 0004:000006a8       $pdata$?_Initcvt@?$basic_filebuf@DU?$char_traits@D@std@@@std@@IEAAXPEBV?$codecvt@DDU_Mbstatet@@@2@@Z 000000018003a6a8     libcpmt:cout.obj
 0004:000006b4       $pdata$?_Lock@?$basic_filebuf@DU?$char_traits@D@std@@@std@@UEAAXXZ 000000018003a6b4     libcpmt:cout.obj
 0004:000006c0       $pdata$?_Unlock@?$basic_filebuf@DU?$char_traits@D@std@@@std@@UEAAXXZ 000000018003a6c0     libcpmt:cout.obj
 0004:000006cc       $pdata$?append@?$basic_string@DU?$char_traits@D@std@@V?$allocator@D@2@@std@@QEAAAEAV12@_KD@Z 000000018003a6cc     libcpmt:cout.obj
 0004:000006d8       $pdata$?do_narrow@?$ctype@D@std@@MEBAPEBDPEBD0DPEAD@Z 000000018003a6d8     libcpmt:cout.obj
 0004:000006e4       $pdata$?do_tolower@?$ctype@D@std@@MEBAPEBDPEADPEBD@Z 000000018003a6e4     libcpmt:cout.obj
 0004:000006f0       $pdata$?do_toupper@?$ctype@D@std@@MEBAPEBDPEADPEBD@Z 000000018003a6f0     libcpmt:cout.obj
 0004:000006fc       $pdata$?do_widen@?$ctype@D@std@@MEBAPEBDPEBD0PEAD@Z 000000018003a6fc     libcpmt:cout.obj
 0004:00000708       $pdata$?getloc@ios_base@std@@QEBA?AVlocale@2@XZ 000000018003a708     libcpmt:cout.obj
 0004:00000714       $pdata$?imbue@?$basic_filebuf@DU?$char_traits@D@std@@@std@@MEAAXAEBVlocale@2@@Z 000000018003a714     libcpmt:cout.obj
 0004:00000720       $pdata$?overflow@?$basic_filebuf@DU?$char_traits@D@std@@@std@@MEAAHH@Z 000000018003a720     libcpmt:cout.obj
 0004:0000072c       $pdata$?pbackfail@?$basic_filebuf@DU?$char_traits@D@std@@@std@@MEAAHH@Z 000000018003a72c     libcpmt:cout.obj
 0004:00000738       $pdata$?seekoff@?$basic_filebuf@DU?$char_traits@D@std@@@std@@MEAA?AV?$fpos@U_Mbstatet@@@2@_JHH@Z 000000018003a738     libcpmt:cout.obj
 0004:00000744       $pdata$?seekpos@?$basic_filebuf@DU?$char_traits@D@std@@@std@@MEAA?AV?$fpos@U_Mbstatet@@@2@V32@H@Z 000000018003a744     libcpmt:cout.obj
 0004:00000750       $pdata$?setbuf@?$basic_filebuf@DU?$char_traits@D@std@@@std@@MEAAPEAV?$basic_streambuf@DU?$char_traits@D@std@@@2@PEAD_J@Z 000000018003a750     libcpmt:cout.obj
 0004:0000075c       $pdata$?sync@?$basic_filebuf@DU?$char_traits@D@std@@@std@@MEAAHXZ 000000018003a75c     libcpmt:cout.obj
 0004:00000768       $pdata$?uflow@?$basic_filebuf@DU?$char_traits@D@std@@@std@@MEAAHXZ 000000018003a768     libcpmt:cout.obj
 0004:00000774       $pdata$?uflow@?$basic_streambuf@DU?$char_traits@D@std@@@std@@MEAAHXZ 000000018003a774     libcpmt:cout.obj
 0004:00000780       $pdata$?underflow@?$basic_filebuf@DU?$char_traits@D@std@@@std@@MEAAHXZ 000000018003a780     libcpmt:cout.obj
 0004:0000078c       $pdata$?widen@?$basic_ios@DU?$char_traits@D@std@@@std@@QEBADD@Z 000000018003a78c     libcpmt:cout.obj
 0004:00000798       $pdata$?xsgetn@?$basic_streambuf@DU?$char_traits@D@std@@@std@@MEAA_JPEAD_J@Z 000000018003a798     libcpmt:cout.obj
 0004:000007a4       $pdata$?xsputn@?$basic_streambuf@DU?$char_traits@D@std@@@std@@MEAA_JPEBD_J@Z 000000018003a7a4     libcpmt:cout.obj
 0004:000007b0       $pdata$??0bad_alloc@std@@QEAA@AEBV01@@Z 000000018003a7b0     libcpmt:xthrow.obj
 0004:000007bc       $pdata$??0length_error@std@@QEAA@AEBV01@@Z 000000018003a7bc     libcpmt:xthrow.obj
 0004:000007c8       $pdata$??0length_error@std@@QEAA@PEBD@Z 000000018003a7c8     libcpmt:xthrow.obj
 0004:000007d4       $pdata$??0logic_error@std@@QEAA@AEBV01@@Z 000000018003a7d4     libcpmt:xthrow.obj
 0004:000007e0       $pdata$??0out_of_range@std@@QEAA@AEBV01@@Z 000000018003a7e0     libcpmt:xthrow.obj
 0004:000007ec       $pdata$??0out_of_range@std@@QEAA@PEBD@Z 000000018003a7ec     libcpmt:xthrow.obj
 0004:000007f8       $pdata$??_Gout_of_range@std@@UEAAPEAXI@Z 000000018003a7f8     libcpmt:xthrow.obj
 0004:000007f8       $pdata$??_Gbad_alloc@std@@UEAAPEAXI@Z 000000018003a7f8     libcpmt:xthrow.obj
 0004:000007f8       $pdata$??_Gbad_array_new_length@std@@UEAAPEAXI@Z 000000018003a7f8     LIBCMT:throw_bad_alloc.obj
 0004:000007f8       $pdata$??_Gbad_exception@std@@UEAAPEAXI@Z 000000018003a7f8     libvcruntime:frame.obj
 0004:000007f8       $pdata$??_Gbad_cast@std@@UEAAPEAXI@Z 000000018003a7f8     libcpmt:cout.obj
 0004:000007f8       $pdata$??_Gexception@std@@UEAAPEAXI@Z 000000018003a7f8     libcpmt:cout.obj
 0004:000007f8       $pdata$??_Glength_error@std@@UEAAPEAXI@Z 000000018003a7f8     libcpmt:xthrow.obj
 0004:000007f8       $pdata$??_Glogic_error@std@@UEAAPEAXI@Z 000000018003a7f8     libcpmt:xthrow.obj
 0004:00000804       $pdata$?_Xlength_error@std@@YAXPEBD@Z 000000018003a804     libcpmt:xthrow.obj
 0004:00000810       $pdata$?_Xout_of_range@std@@YAXPEBD@Z 000000018003a810     libcpmt:xthrow.obj
 0004:0000081c       $pdata$??0_Init_locks@std@@QEAA@XZ 000000018003a81c     libcpmt:xlock.obj
 0004:00000828       $pdata$??0_Lockit@std@@QEAA@H@Z 000000018003a828     libcpmt:xlock.obj
 0004:00000834       $pdata$??1_Init_locks@std@@QEAA@XZ 000000018003a834     libcpmt:xlock.obj
 0004:00000840       $pdata$??1_Lockit@std@@QEAA@XZ 000000018003a840     libcpmt:xlock.obj
 0004:0000084c       $pdata$_Getctype           000000018003a84c     libcpmt:_tolower.obj
 0004:00000858       $pdata$_Tolower            000000018003a858     libcpmt:_tolower.obj
 0004:00000864       $pdata$_Toupper            000000018003a864     libcpmt:_toupper.obj
 0004:00000870       $pdata$??4?$_Yarn@D@std@@QEAAAEAV01@PEBD@Z 000000018003a870     libcpmt:locale0.obj
 0004:0000087c       $pdata$??_G_Fac_node@std@@QEAAPEAXI@Z 000000018003a87c     libcpmt:locale0.obj
 0004:00000888       $pdata$??_G_Locimp@locale@std@@MEAAPEAXI@Z 000000018003a888     libcpmt:locale0.obj
 0004:00000894       $pdata$?_Facet_Register@std@@YAXPEAV_Facet_base@1@@Z 000000018003a894     libcpmt:locale0.obj
 0004:000008a0       $pdata$?_Init@locale@std@@CAPEAV_Locimp@12@_N@Z 000000018003a8a0     libcpmt:locale0.obj
 0004:000008ac       $pdata$?_Locimp_dtor@_Locimp@locale@std@@CAXPEAV123@@Z 000000018003a8ac     libcpmt:locale0.obj
 0004:000008b8       $pdata$?_Locinfo_ctor@_Locinfo@std@@SAXPEAV12@PEBD@Z 000000018003a8b8     libcpmt:locale0.obj
 0004:000008c4       $pdata$?_Locinfo_dtor@_Locinfo@std@@SAXPEAV12@@Z 000000018003a8c4     libcpmt:locale0.obj
 0004:000008d0       $pdata$?_New_Locimp@_Locimp@locale@std@@CAPEAV123@_N@Z 000000018003a8d0     libcpmt:locale0.obj
 0004:000008dc       $pdata$?_Setgloballocale@locale@std@@CAXPEAX@Z 000000018003a8dc     libcpmt:locale0.obj
 0004:000008e8       $pdata$_Deletegloballocale 000000018003a8e8     libcpmt:locale0.obj
 0004:000008f4       $pdata$tidy_global         000000018003a8f4     libcpmt:locale0.obj
 0004:00000900       $pdata$?_Addstd@ios_base@std@@SAXPEAV12@@Z 000000018003a900     libcpmt:ios.obj
 0004:0000090c       $pdata$?_Ios_base_dtor@ios_base@std@@CAXPEAV12@@Z 000000018003a90c     libcpmt:ios.obj
 0004:00000918       $pdata$?_Tidy@ios_base@std@@AEAAXXZ 000000018003a918     libcpmt:ios.obj
 0004:00000924       $pdata$?_Atexit@@YAXP6AXXZ@Z 000000018003a924     libcpmt:iosptrs.obj
 0004:00000930       $pdata$__crtLCMapStringA   000000018003a930     libcpmt:StlLCMapStringA.obj
 0004:0000093c       $pdata$?initialize_pointers@@YAHXZ 000000018003a93c     libcpmt:winapisupp.obj
 0004:00000948       $pdata$__crtInitializeCriticalSectionEx 000000018003a948     libcpmt:winapisupp.obj
 0004:00000954       $pdata$GetTableIndexFromLocaleName 000000018003a954     libcpmt:winapinls.obj
 0004:00000960       $pdata$__crtDownlevelLocaleNameToLCID 000000018003a960     libcpmt:winapinls.obj
 0004:0000096c       $pdata$__crtLCMapStringEx  000000018003a96c     libcpmt:winapinls.obj
 0004:00000984       $pdata$?__scrt_initialize_thread_safe_statics@@YAHXZ 000000018003a984     LIBCMT:thread_safe_statics.obj
 0004:00000990       $pdata$?__scrt_uninitialize_thread_safe_statics@@YAXXZ 000000018003a990     LIBCMT:thread_safe_statics.obj
 0004:0000099c       $pdata$_Init_thread_footer 000000018003a99c     LIBCMT:thread_safe_statics.obj
 0004:000009a8       $pdata$_Init_thread_header 000000018003a9a8     LIBCMT:thread_safe_statics.obj
 0004:000009b4       $pdata$_Init_thread_notify 000000018003a9b4     LIBCMT:thread_safe_statics.obj
 0004:000009c0       $pdata$_Init_thread_wait   000000018003a9c0     LIBCMT:thread_safe_statics.obj
 0004:000009cc       $pdata$??2@YAPEAX_K@Z      000000018003a9cc     LIBCMT:new_scalar.obj
 0004:000009d8       $pdata$__scrt_acquire_startup_lock 000000018003a9d8     LIBCMT:utility.obj
 0004:000009e4       $pdata$__scrt_dllmain_after_initialize_c 000000018003a9e4     LIBCMT:utility.obj
 0004:000009f0       $pdata$__scrt_dllmain_before_initialize_c 000000018003a9f0     LIBCMT:utility.obj
 0004:000009fc       $pdata$__scrt_dllmain_crt_thread_attach 000000018003a9fc     LIBCMT:utility.obj
 0004:00000a08       $pdata$__scrt_dllmain_crt_thread_detach 000000018003aa08     LIBCMT:utility.obj
 0004:00000a14       $pdata$__scrt_dllmain_exception_filter 000000018003aa14     LIBCMT:utility.obj
 0004:00000a20       $pdata$__scrt_dllmain_uninitialize_c 000000018003aa20     LIBCMT:utility.obj
 0004:00000a2c       $pdata$__scrt_dllmain_uninitialize_critical 000000018003aa2c     LIBCMT:utility.obj
 0004:00000a38       $pdata$__scrt_initialize_crt 000000018003aa38     LIBCMT:utility.obj
 0004:00000a44       $pdata$__scrt_initialize_onexit_tables 000000018003aa44     LIBCMT:utility.obj
 0004:00000a50       $pdata$__scrt_is_nonwritable_in_current_image 000000018003aa50     LIBCMT:utility.obj
 0004:00000a5c       $pdata$__scrt_release_startup_lock 000000018003aa5c     LIBCMT:utility.obj
 0004:00000a68       $pdata$__scrt_uninitialize_crt 000000018003aa68     LIBCMT:utility.obj
 0004:00000a74       $pdata$_onexit             000000018003aa74     LIBCMT:utility.obj
 0004:00000a80       $pdata$atexit              000000018003aa80     LIBCMT:utility.obj
 0004:00000a8c       $pdata$?dllmain_crt_dispatch@@YAHQEAUHINSTANCE__@@KQEAX@Z 000000018003aa8c     LIBCMT:dll_dllmain.obj
 0004:00000a98       $pdata$?dllmain_crt_process_attach@@YAHQEAUHINSTANCE__@@QEAX@Z 000000018003aa98     LIBCMT:dll_dllmain.obj
 0004:00000aa4       $pdata$?dllmain_crt_process_detach@@YAH_N@Z 000000018003aaa4     LIBCMT:dll_dllmain.obj
 0004:00000ab0       $pdata$?dllmain_dispatch@@YAHQEAUHINSTANCE__@@KQEAX@Z 000000018003aab0     LIBCMT:dll_dllmain.obj
 0004:00000abc       $pdata$?dllmain_raw@@YAHQEAUHINSTANCE__@@KQEAX@Z 000000018003aabc     LIBCMT:dll_dllmain.obj
 0004:00000ac8       $pdata$_DllMainCRTStartup  000000018003aac8     LIBCMT:dll_dllmain.obj
 0004:00000ad4       $pdata$__GSHandlerCheck    000000018003aad4     LIBCMT:_gshandler_.obj
 0004:00000ae0       $pdata$__GSHandlerCheckCommon 000000018003aae0     LIBCMT:_gshandler_.obj
 0004:00000aec       $pdata$__GSHandlerCheck_EH 000000018003aaec     LIBCMT:gshandlereh.obj
 0004:00000af8       $pdata$??_Gtype_info@@UEAAPEAXI@Z 000000018003aaf8     LIBCMT:std_type_info_static.obj
 0004:00000b10       $pdata$__raise_securityfailure 000000018003ab10     LIBCMT:gs_report.obj
 0004:00000b1c       $pdata$__report_gsfailure  000000018003ab1c     LIBCMT:gs_report.obj
 0004:00000b28       $pdata$__report_rangecheckfailure 000000018003ab28     LIBCMT:gs_report.obj
 0004:00000b34       $pdata$__report_securityfailure 000000018003ab34     LIBCMT:gs_report.obj
 0004:00000b40       $pdata$capture_current_context 000000018003ab40     LIBCMT:gs_report.obj
 0004:00000b4c       $pdata$capture_previous_context 000000018003ab4c     LIBCMT:gs_report.obj
 0004:00000b58       $pdata$__scrt_fastfail     000000018003ab58     LIBCMT:utility_desktop.obj
 0004:00000b64       $pdata$??0bad_array_new_length@std@@QEAA@AEBV01@@Z 000000018003ab64     LIBCMT:throw_bad_alloc.obj
 0004:00000b70       $pdata$?__scrt_throw_std_bad_alloc@@YAXXZ 000000018003ab70     LIBCMT:throw_bad_alloc.obj
 0004:00000b70       $pdata$?_Xbad_alloc@std@@YAXXZ 000000018003ab70     libcpmt:xthrow.obj
 0004:00000b7c       $pdata$?__scrt_throw_std_bad_array_new_length@@YAXXZ 000000018003ab7c     LIBCMT:throw_bad_alloc.obj
 0004:00000b88       $pdata$__isa_available_init 000000018003ab88     LIBCMT:_cpu_disp_.obj
 0004:00000b94       $pdata$__security_init_cookie 000000018003ab94     LIBCMT:gs_support.obj
 0004:00000ba0       $pdata$__scrt_initialize_default_local_stdio_options 000000018003aba0     LIBCMT:default_local_stdio_options.obj
 0004:00000bac       $pdata$_RTC_Initialize     000000018003abac     LIBCMT:_initsect_.obj
 0004:00000bb8       $pdata$_RTC_Terminate      000000018003abb8     LIBCMT:_initsect_.obj
 0004:00000bd0       $pdata$_purecall           000000018003abd0     libvcruntime:purevirt.obj
 0004:00000bdc       $pdata$__DestructExceptionObject 000000018003abdc     libvcruntime:frame.obj
 0004:00000be8       $pdata$??0bad_exception@std@@QEAA@AEBV01@@Z 000000018003abe8     libvcruntime:frame.obj
 0004:00000bf4       $pdata$?CatchIt@@YAXPEAUEHExceptionRecord@@PEA_KPEAU_CONTEXT@@PEAU_xDISPATCHER_CONTEXT@@PEBU_s_FuncInfo@@PEBU_s_HandlerType@@PEBU_s_CatchableType@@PEBU_s_TryBlockMapEntry@@H1EE@Z 000000018003abf4     libvcruntime:frame.obj
 0004:00000c00       $pdata$?ExFilterRethrow@@YAHPEAU_EXCEPTION_POINTERS@@PEAUEHExceptionRecord@@PEAH@Z 000000018003ac00     libvcruntime:frame.obj
 0004:00000c0c       $pdata$?FindHandler@@YAXPEAUEHExceptionRecord@@PEA_KPEAU_CONTEXT@@PEAU_xDISPATCHER_CONTEXT@@PEBU_s_FuncInfo@@EH1@Z 000000018003ac0c     libvcruntime:frame.obj
 0004:00000c18       $pdata$?FindHandlerForForeignException@@YAXPEAUEHExceptionRecord@@PEA_KPEAU_CONTEXT@@PEAU_xDISPATCHER_CONTEXT@@PEBU_s_FuncInfo@@HH1@Z 000000018003ac18     libvcruntime:frame.obj
 0004:00000c24       $pdata$?IsInExceptionSpec@@YAEPEAUEHExceptionRecord@@PEBU_s_ESTypeList@@@Z 000000018003ac24     libvcruntime:frame.obj
 0004:00000c30       $pdata$__BuildCatchObject  000000018003ac30     libvcruntime:frame.obj
 0004:00000c3c       $pdata$__BuildCatchObjectHelper 000000018003ac3c     libvcruntime:frame.obj
 0004:00000c48       $pdata$__CxxCallCatchBlock 000000018003ac48     libvcruntime:frame.obj
 0004:00000c54       $pdata$__FrameUnwindFilter 000000018003ac54     libvcruntime:frame.obj
 0004:00000c60       $pdata$__FrameUnwindToState 000000018003ac60     libvcruntime:frame.obj
 0004:00000c6c       $pdata$__InternalCxxFrameHandler 000000018003ac6c     libvcruntime:frame.obj
 0004:00000c78       $pdata$__TypeMatch         000000018003ac78     libvcruntime:frame.obj
 0004:00000c84       $pdata$__std_terminate     000000018003ac84     libvcruntime:frame.obj
 0004:00000c90       $pdata$__std_exception_copy 000000018003ac90     libvcruntime:std_exception.obj
 0004:00000c9c       $pdata$__std_exception_destroy 000000018003ac9c     libvcruntime:std_exception.obj
 0004:00000ca8       $pdata$_CxxThrowException  000000018003aca8     libvcruntime:throw.obj
 0004:00000cb4       $pdata$?_ExecutionInCatch@@YAHPEAU_xDISPATCHER_CONTEXT@@PEBU_s_FuncInfo@@@Z 000000018003acb4     libvcruntime:trnsctrl.obj
 0004:00000cc0       $pdata$?_GetEstablisherFrame@@YAPEA_KPEA_KPEAU_xDISPATCHER_CONTEXT@@PEBU_s_FuncInfo@@0@Z 000000018003acc0     libvcruntime:trnsctrl.obj
 0004:00000ccc       $pdata$?_GetRangeOfTrysToCheck@@YAPEBU_s_TryBlockMapEntry@@PEA_KPEBU_s_FuncInfo@@HHPEAI2PEAU_xDISPATCHER_CONTEXT@@@Z 000000018003accc     libvcruntime:trnsctrl.obj
 0004:00000cd8       $pdata$?__FrameUnwindToEmptyState@@YAXPEA_KPEAU_xDISPATCHER_CONTEXT@@PEBU_s_FuncInfo@@@Z 000000018003acd8     libvcruntime:trnsctrl.obj
 0004:00000ce4       $pdata$?__SehTransFilter@@YAHPEAU_EXCEPTION_POINTERS@@PEAUEHExceptionRecord@@PEA_KPEAU_CONTEXT@@PEAU_xDISPATCHER_CONTEXT@@PEBU_s_FuncInfo@@PEAH@Z 000000018003ace4     libvcruntime:trnsctrl.obj
 0004:00000cf0       $pdata$_CallSETranslator   000000018003acf0     libvcruntime:trnsctrl.obj
 0004:00000cfc       $pdata$_CreateFrameInfo    000000018003acfc     libvcruntime:trnsctrl.obj
 0004:00000d08       $pdata$_FindAndUnlinkFrame 000000018003ad08     libvcruntime:trnsctrl.obj
 0004:00000d14       $pdata$_GetImageBase       000000018003ad14     libvcruntime:trnsctrl.obj
 0004:00000d20       $pdata$_GetThrowImageBase  000000018003ad20     libvcruntime:trnsctrl.obj
 0004:00000d2c       $pdata$_IsExceptionObjectToBeDestroyed 000000018003ad2c     libvcruntime:trnsctrl.obj
 0004:00000d38       $pdata$_SetImageBase       000000018003ad38     libvcruntime:trnsctrl.obj
 0004:00000d44       $pdata$_SetThrowImageBase  000000018003ad44     libvcruntime:trnsctrl.obj
 0004:00000d50       $pdata$_UnwindNestedFrames 000000018003ad50     libvcruntime:trnsctrl.obj
 0004:00000d5c       $pdata$__CxxFrameHandler3  000000018003ad5c     libvcruntime:trnsctrl.obj
 0004:00000d80       $pdata$?try_get_function@@YAPEAXW4function_id@?A0x679b24ab@@QEBDQEBW4module_id@2@2@Z 000000018003ad80     libvcruntime:winapi_downlevel.obj
 0004:00000d8c       $pdata$__vcrt_FlsAlloc     000000018003ad8c     libvcruntime:winapi_downlevel.obj
 0004:00000d98       $pdata$__vcrt_FlsFree      000000018003ad98     libvcruntime:winapi_downlevel.obj
 0004:00000da4       $pdata$__vcrt_FlsGetValue  000000018003ada4     libvcruntime:winapi_downlevel.obj
 0004:00000db0       $pdata$__vcrt_FlsSetValue  000000018003adb0     libvcruntime:winapi_downlevel.obj
 0004:00000dbc       $pdata$__vcrt_InitializeCriticalSectionEx 000000018003adbc     libvcruntime:winapi_downlevel.obj
 0004:00000dc8       $pdata$__vcrt_uninitialize_winapi_thunks 000000018003adc8     libvcruntime:winapi_downlevel.obj
 0004:00000dd4       $pdata$__vcrt_initialize   000000018003add4     libvcruntime:initialization.obj
 0004:00000de0       $pdata$__vcrt_thread_attach 000000018003ade0     libvcruntime:initialization.obj
 0004:00000dec       $pdata$__vcrt_thread_detach 000000018003adec     libvcruntime:initialization.obj
 0004:00000df8       $pdata$__vcrt_uninitialize 000000018003adf8     libvcruntime:initialization.obj
 0004:00000e04       $pdata$__vcrt_uninitialize_critical 000000018003ae04     libvcruntime:initialization.obj
 0004:00000e10       $pdata$__C_specific_handler 000000018003ae10     libvcruntime:_chandler_.obj
 0004:00000e1c       $pdata$__std_type_info_destroy_list 000000018003ae1c     libvcruntime:std_type_info.obj
 0004:00000e28       $pdata$__vcrt_freefls      000000018003ae28     libvcruntime:per_thread_data.obj
 0004:00000e34       $pdata$__vcrt_freeptd      000000018003ae34     libvcruntime:per_thread_data.obj
 0004:00000e40       $pdata$__vcrt_getptd       000000018003ae40     libvcruntime:per_thread_data.obj
 0004:00000e4c       $pdata$__vcrt_getptd_noexit 000000018003ae4c     libvcruntime:per_thread_data.obj
 0004:00000e58       $pdata$__vcrt_initialize_ptd 000000018003ae58     libvcruntime:per_thread_data.obj
 0004:00000e64       $pdata$__vcrt_uninitialize_ptd 000000018003ae64     libvcruntime:per_thread_data.obj
 0004:00000e70       $pdata$?__GetCurrentState@@YAHPEA_KPEAU_xDISPATCHER_CONTEXT@@PEBU_s_FuncInfo@@@Z 000000018003ae70     libvcruntime:ehstate.obj
 0004:00000e7c       $pdata$?__GetUnwindTryBlock@@YAHPEA_KPEAU_xDISPATCHER_CONTEXT@@PEBU_s_FuncInfo@@@Z 000000018003ae7c     libvcruntime:ehstate.obj
 0004:00000e88       $pdata$?__SetUnwindTryBlock@@YAXPEA_KPEAU_xDISPATCHER_CONTEXT@@PEBU_s_FuncInfo@@H@Z 000000018003ae88     libvcruntime:ehstate.obj
 0004:00000e94       $pdata$?__StateFromIp@@YAHPEBU_s_FuncInfo@@PEAU_xDISPATCHER_CONTEXT@@_J@Z 000000018003ae94     libvcruntime:ehstate.obj
 0004:00000edc       $pdata$__vcrt_initialize_locks 000000018003aedc     libvcruntime:locks.obj
 0004:00000ee8       $pdata$__vcrt_uninitialize_locks 000000018003aee8     libvcruntime:locks.obj
 0004:00000ef4       $pdata$__acrt_call_reportfault 000000018003aef4     libucrt:invalid_parameter.obj
 0004:00000f00       $pdata$_invalid_parameter  000000018003af00     libucrt:invalid_parameter.obj
 0004:00000f0c       $pdata$_invalid_parameter_noinfo 000000018003af0c     libucrt:invalid_parameter.obj
 0004:00000f18       $pdata$_invalid_parameter_noinfo_noreturn 000000018003af18     libucrt:invalid_parameter.obj
 0004:00000f24       $pdata$_invoke_watson      000000018003af24     libucrt:invalid_parameter.obj
 0004:00000f30       $pdata$??0_LocaleUpdate@@QEAA@QEAU__crt_locale_pointers@@@Z 000000018003af30     libucrt:stricmp.obj
 0004:00000f3c       $pdata$_stricmp            000000018003af3c     libucrt:stricmp.obj
 0004:00000f48       $pdata$_stricmp_l          000000018003af48     libucrt:stricmp.obj
 0004:00000f54       $pdata$__acrt_errno_map_os_error 000000018003af54     libucrt:errno.obj
 0004:00000f60       $pdata$__doserrno          000000018003af60     libucrt:errno.obj
 0004:00000f6c       $pdata$_errno              000000018003af6c     libucrt:errno.obj
 0004:00000f78       $pdata$__acrt_initialize_stdio 000000018003af78     libucrt:_file.obj
 0004:00000f84       $pdata$__acrt_uninitialize_stdio 000000018003af84     libucrt:_file.obj
 0004:00000f90       $pdata$_get_stream_buffer_pointers 000000018003af90     libucrt:_file.obj
 0004:00000f9c       $pdata$_fclose_nolock      000000018003af9c     libucrt:fclose.obj
 0004:00000fa8       $pdata$fclose              000000018003afa8     libucrt:fclose.obj
 0004:00000fb4       $pdata$__acrt_stdio_flush_nolock 000000018003afb4     libucrt:fflush.obj
 0004:00000fc0       $pdata$_fflush_nolock      000000018003afc0     libucrt:fflush.obj
 0004:00000fcc       $pdata$common_flush_all    000000018003afcc     libucrt:fflush.obj
 0004:00000fd8       $pdata$fflush              000000018003afd8     libucrt:fflush.obj
 0004:00000fe4       $pdata$_fgetc_nolock       000000018003afe4     libucrt:fgetc.obj
 0004:00000ff0       $pdata$fgetc               000000018003aff0     libucrt:fgetc.obj
 0004:00000ffc       $pdata$fgetpos             000000018003affc     libucrt:fgetpos.obj
 0004:00001008       $pdata$fputc               000000018003b008     libucrt:fputc.obj
 0004:00001014       $pdata$fsetpos             000000018003b014     libucrt:fsetpos.obj
 0004:00001020       $pdata$?common_fseek@@YAHV__crt_stdio_stream@@_JH@Z 000000018003b020     libucrt:fseek.obj
 0004:0000102c       $pdata$?common_fseek_binary_mode_read_only_fast_track_nolock@@YA_NV__crt_stdio_stream@@_JH@Z 000000018003b02c     libucrt:fseek.obj
 0004:00001038       $pdata$?common_fseek_nolock@@YAHV__crt_stdio_stream@@_JH@Z 000000018003b038     libucrt:fseek.obj
 0004:00001044       $pdata$??$?RV<lambda_5d4c3fee44080f75d5d9762853974fe0>@@AEAV<lambda_532e024f4337e6fc7ad266c2bef9f4ed>@@V<lambda_c87bdc10097eb2402edb8ba9bdf0697b>@@@?$__crt_seh_guarded_call@_K@@QEAA_K$$QEAV<lambda_5d4c3fee44080f75d5d9762853974fe0>@@AEAV<lambda_532e024f4337e6fc7ad266c2bef9f4ed>@@$$QEAV<lambda_c87bdc10097eb2402edb8ba9bdf0697b>@@@Z 000000018003b044     libucrt:fwrite.obj
 0004:00001050       $pdata$??R<lambda_532e024f4337e6fc7ad266c2bef9f4ed>@@QEBA_KXZ 000000018003b050     libucrt:fwrite.obj
 0004:0000105c       $pdata$_fwrite_nolock      000000018003b05c     libucrt:fwrite.obj
 0004:00001068       $pdata$fwrite              000000018003b068     libucrt:fwrite.obj
 0004:00001074       $pdata$??$?RV<lambda_7a5ef57ff966f610505f1d28a3d40618>@@AEAV<lambda_b721fa326cdb32351d23dfa67958c160>@@V<lambda_5e0fb27672408a07956fe59e48ccb2aa>@@@?$__crt_seh_guarded_call@H@@QEAAH$$QEAV<lambda_7a5ef57ff966f610505f1d28a3d40618>@@AEAV<lambda_b721fa326cdb32351d23dfa67958c160>@@$$QEAV<lambda_5e0fb27672408a07956fe59e48ccb2aa>@@@Z 000000018003b074     libucrt:setvbuf.obj
 0004:00001080       $pdata$??R<lambda_b721fa326cdb32351d23dfa67958c160>@@QEBAHXZ 000000018003b080     libucrt:setvbuf.obj
 0004:0000108c       $pdata$setvbuf             000000018003b08c     libucrt:setvbuf.obj
 0004:00001098       $pdata$_ungetc_nolock      000000018003b098     libucrt:ungetc.obj
 0004:000010a4       $pdata$ungetc              000000018003b0a4     libucrt:ungetc.obj
 0004:000010b0       $pdata$__acrt_initialize_locks 000000018003b0b0     libucrt:locks.obj
 0004:000010bc       $pdata$__acrt_uninitialize_locks 000000018003b0bc     libucrt:locks.obj
 0004:000010c8       $pdata$_calloc_base        000000018003b0c8     libucrt:calloc_base.obj
 0004:000010d4       $pdata$__pctype_func       000000018003b0d4     libucrt:ctype.obj
 0004:000010e0       $pdata$islower             000000018003b0e0     libucrt:_ctype.obj
 0004:000010ec       $pdata$isupper             000000018003b0ec     libucrt:_ctype.obj
 0004:000010f8       $pdata$_wcsdup             000000018003b0f8     libucrt:wcsdup.obj
 0004:00001104       $pdata$___lc_codepage_func 000000018003b104     libucrt:initctype.obj
 0004:00001110       $pdata$___lc_locale_name_func 000000018003b110     libucrt:initctype.obj
 0004:0000111c       $pdata$__acrt_locale_initialize_ctype 000000018003b11c     libucrt:initctype.obj
 0004:00001128       $pdata$call_wsetlocale     000000018003b128     libucrt:setlocale.obj
 0004:00001134       $pdata$setlocale           000000018003b134     libucrt:setlocale.obj
 0004:00001140       $pdata$abort               000000018003b140     libucrt:abort.obj
 0004:0000114c       $pdata$_free_base          000000018003b14c     libucrt:free_base.obj
 0004:00001158       $pdata$_malloc_base        000000018003b158     libucrt:malloc_base.obj
 0004:00001164       $pdata$_realloc_base       000000018003b164     libucrt:realloc_base.obj
 0004:00001188       $pdata$wcscpy_s            000000018003b188     libucrt:wcscpy_s.obj
 0004:00001194       $pdata$wcsnlen             000000018003b194     libucrt:strnlen.obj
 0004:000011a0       $pdata$?x_ismbbtype_l@@YAHPEAU__crt_locale_pointers@@IHH@Z 000000018003b1a0     libucrt:ismbbyte.obj
 0004:000011ac       $pdata$?internal_isupper_l@@YA_NHQEAU__crt_locale_pointers@@@Z 000000018003b1ac     libucrt:tolower_toupper.obj
 0004:000011b8       $pdata$_tolower_l          000000018003b1b8     libucrt:tolower_toupper.obj
 0004:000011c4       $pdata$_callnewh           000000018003b1c4     libucrt:new_handler.obj
 0004:000011d0       $pdata$_query_new_handler  000000018003b1d0     libucrt:new_handler.obj
 0004:000011dc       $pdata$_seh_filter_exe     000000018003b1dc     libucrt:exception_filter.obj
 0004:000011e8       $pdata$?common_exit@@YAXHW4_crt_exit_cleanup_mode@@W4_crt_exit_return_mode@@@Z 000000018003b1e8     libucrt:exit.obj
 0004:000011f4       $pdata$?exit_or_terminate_process@@YAXI@Z 000000018003b1f4     libucrt:exit.obj
 0004:00001200       $pdata$?try_cor_exit_process@@YAXI@Z 000000018003b200     libucrt:exit.obj
 0004:0000120c       $pdata$??$parse_command_line@D@@YAXPEADPEAPEAD0PEA_K2@Z 000000018003b20c     libucrt:argv_parsing.obj
 0004:00001218       $pdata$__acrt_allocate_buffer_for_argv 000000018003b218     libucrt:argv_parsing.obj
 0004:00001224       $pdata$_configure_narrow_argv 000000018003b224     libucrt:argv_parsing.obj
 0004:00001230       $pdata$??$common_initialize_environment_nolock@D@@YAHXZ 000000018003b230     libucrt:environment_initialization.obj
 0004:0000123c       $pdata$??$create_environment@D@@YAQEAPEADQEAD@Z 000000018003b23c     libucrt:environment_initialization.obj
 0004:00001248       $pdata$??$free_environment@D@@YAXQEAPEAD@Z 000000018003b248     libucrt:environment_initialization.obj
 0004:00001248       $pdata$??$free_environment@_W@@YAXQEAPEA_W@Z 000000018003b248     libucrt:environment_initialization.obj
 0004:00001254       $pdata$??$uninitialize_environment_internal@D@@YAXAEAPEAPEAD@Z 000000018003b254     libucrt:environment_initialization.obj
 0004:00001260       $pdata$??$uninitialize_environment_internal@_W@@YAXAEAPEAPEA_W@Z 000000018003b260     libucrt:environment_initialization.obj
 0004:0000126c       $pdata$__dcrt_uninitialize_environments_nolock 000000018003b26c     libucrt:environment_initialization.obj
 0004:00001278       $pdata$??$?RV<lambda_b8c45f8f788dd370798f47cfe8ac3a86>@@AEAV<lambda_4e60a939b0d047cfe11ddc22648dfba9>@@V<lambda_332c3edc96d0294ec56c57d38c1cdfd5>@@@?$__crt_seh_guarded_call@H@@QEAAH$$QEAV<lambda_b8c45f8f788dd370798f47cfe8ac3a86>@@AEAV<lambda_4e60a939b0d047cfe11ddc22648dfba9>@@$$QEAV<lambda_332c3edc96d0294ec56c57d38c1cdfd5>@@@Z 000000018003b278     libucrt:onexit.obj
 0004:00001284       $pdata$??$?RV<lambda_e24bbb7b643b32fcea6fa61b31d4c984>@@AEAV<lambda_275893d493268fdec8709772e3fcec0e>@@V<lambda_9d71df4d7cf3f480f8d633942495c3b0>@@@?$__crt_seh_guarded_call@H@@QEAAH$$QEAV<lambda_e24bbb7b643b32fcea6fa61b31d4c984>@@AEAV<lambda_275893d493268fdec8709772e3fcec0e>@@$$QEAV<lambda_9d71df4d7cf3f480f8d633942495c3b0>@@@Z 000000018003b284     libucrt:onexit.obj
 0004:00001290       $pdata$??R<lambda_4e60a939b0d047cfe11ddc22648dfba9>@@QEBAHXZ 000000018003b290     libucrt:onexit.obj
 0004:0000129c       $pdata$_execute_onexit_table 000000018003b29c     libucrt:onexit.obj
 0004:000012a8       $pdata$_register_onexit_function 000000018003b2a8     libucrt:onexit.obj
 0004:000012b4       $pdata$initialize_c        000000018003b2b4     libucrt:initialization.obj
 0004:000012c0       $pdata$uninitialize_environment 000000018003b2c0     libucrt:initialization.obj
 0004:000012cc       $pdata$initialize_pointers 000000018003b2cc     libucrt:initialization.obj
 0004:000012d8       $pdata$uninitialize_allocated_memory 000000018003b2d8     libucrt:initialization.obj
 0004:000012e4       $pdata$__acrt_thread_attach 000000018003b2e4     libucrt:initialization.obj
 0004:000012f0       $pdata$__acrt_thread_detach 000000018003b2f0     libucrt:initialization.obj
 0004:000012fc       $pdata$__acrt_uninitialize_critical 000000018003b2fc     libucrt:initialization.obj
 0004:00001308       $pdata$_initterm           000000018003b308     libucrt:initterm.obj
 0004:00001314       $pdata$_initterm_e         000000018003b314     libucrt:initterm.obj
 0004:00001320       $pdata$terminate           000000018003b320     libucrt:terminate.obj
 0004:0000132c       $pdata$strcpy_s            000000018003b32c     libucrt:strcpy_s.obj
 0004:00001338       $pdata$??$parse_integer@KV?$c_string_character_source@_W@__crt_strtox@@@__crt_strtox@@YAKQEAU__crt_locale_pointers@@V?$c_string_character_source@_W@0@H_N@Z 000000018003b338     libucrt:atox.obj
 0004:00001344       $pdata$_wtol               000000018003b344     libucrt:atox.obj
 0004:00001350       $pdata$??$?RV<lambda_46352004c1216016012b18bd6f87e700>@@AEAV<lambda_3bd07e1a1191394380780325891bf33f>@@V<lambda_334532d3f185bcaa59b5be82d7d22bff>@@@?$__crt_seh_guarded_call@X@@QEAAX$$QEAV<lambda_46352004c1216016012b18bd6f87e700>@@AEAV<lambda_3bd07e1a1191394380780325891bf33f>@@$$QEAV<lambda_334532d3f185bcaa59b5be82d7d22bff>@@@Z 000000018003b350     libucrt:per_thread_data.obj
 0004:0000135c       $pdata$??$?RV<lambda_5e887d1dcbef67a5eb4283622ba103bf>@@AEAV<lambda_4466841279450cc726390878d4a41900>@@V<lambda_341c25c0346d94847f1f3c463c57e077>@@@?$__crt_seh_guarded_call@X@@QEAAX$$QEAV<lambda_5e887d1dcbef67a5eb4283622ba103bf>@@AEAV<lambda_4466841279450cc726390878d4a41900>@@$$QEAV<lambda_341c25c0346d94847f1f3c463c57e077>@@@Z 000000018003b35c     libucrt:per_thread_data.obj
 0004:00001368       $pdata$??$?RV<lambda_72d1df2b273a38828b1ce30cbf4cdab5>@@AEAV<lambda_876a65b173b8412d3a47c70a915b0cf4>@@V<lambda_41932305e351933ebe8f8be3ed8bb5dc>@@@?$__crt_seh_guarded_call@X@@QEAAX$$QEAV<lambda_72d1df2b273a38828b1ce30cbf4cdab5>@@AEAV<lambda_876a65b173b8412d3a47c70a915b0cf4>@@$$QEAV<lambda_41932305e351933ebe8f8be3ed8bb5dc>@@@Z 000000018003b368     libucrt:per_thread_data.obj
 0004:00001374       $pdata$??$?RV<lambda_fb3a7dec4e47f37f22dae91bb15c9095>@@AEAV<lambda_698284760c8add0bfb0756c19673e34b>@@V<lambda_dfb8eca1e75fef3034a8fb18dd509707>@@@?$__crt_seh_guarded_call@X@@QEAAX$$QEAV<lambda_fb3a7dec4e47f37f22dae91bb15c9095>@@AEAV<lambda_698284760c8add0bfb0756c19673e34b>@@$$QEAV<lambda_dfb8eca1e75fef3034a8fb18dd509707>@@@Z 000000018003b374     libucrt:per_thread_data.obj
 0004:00001380       $pdata$?construct_ptd_array@@YAXQEAU__acrt_ptd@@@Z 000000018003b380     libucrt:per_thread_data.obj
 0004:0000138c       $pdata$?destroy_fls@@YAXPEAX@Z 000000018003b38c     libucrt:per_thread_data.obj
 0004:00001398       $pdata$?destroy_ptd_array@@YAXQEAU__acrt_ptd@@@Z 000000018003b398     libucrt:per_thread_data.obj
 0004:000013a4       $pdata$?replace_current_thread_locale_nolock@@YAXQEAU__acrt_ptd@@QEAU__crt_locale_data@@@Z 000000018003b3a4     libucrt:per_thread_data.obj
 0004:000013b0       $pdata$__acrt_freeptd      000000018003b3b0     libucrt:per_thread_data.obj
 0004:000013bc       $pdata$__acrt_getptd       000000018003b3bc     libucrt:per_thread_data.obj
 0004:000013c8       $pdata$__acrt_getptd_noexit 000000018003b3c8     libucrt:per_thread_data.obj
 0004:000013d4       $pdata$__acrt_initialize_ptd 000000018003b3d4     libucrt:per_thread_data.obj
 0004:000013e0       $pdata$__acrt_uninitialize_ptd 000000018003b3e0     libucrt:per_thread_data.obj
 0004:000013ec       $pdata$__acrt_update_locale_info 000000018003b3ec     libucrt:locale_update.obj
 0004:000013f8       $pdata$__acrt_update_multibyte_info 000000018003b3f8     libucrt:locale_update.obj
 0004:00001404       $pdata$??$?RV<lambda_5df02c53a8f32f81fd64e5bbb78039f1>@@AEAV<lambda_2af78c5f5901b1372d98f9ab3177dfa6>@@AEAV<lambda_f51fe5fd7c79a33db34fc9310f277369>@@@?$__crt_seh_guarded_call@X@@QEAAX$$QEAV<lambda_5df02c53a8f32f81fd64e5bbb78039f1>@@AEAV<lambda_2af78c5f5901b1372d98f9ab3177dfa6>@@AEAV<lambda_f51fe5fd7c79a33db34fc9310f277369>@@@Z 000000018003b404     libucrt:wsetlocale.obj
 0004:00001410       $pdata$??$?RV<lambda_d67e8342c384adda8f857579ab50b2ae>@@AEAV<lambda_30712929f77e709619002f448b6a9510>@@V<lambda_4525336fd7e478d965fb7ca7a337cad8>@@@?$__crt_seh_guarded_call@X@@QEAAX$$QEAV<lambda_d67e8342c384adda8f857579ab50b2ae>@@AEAV<lambda_30712929f77e709619002f448b6a9510>@@$$QEAV<lambda_4525336fd7e478d965fb7ca7a337cad8>@@@Z 000000018003b410     libucrt:wsetlocale.obj
 0004:0000141c       $pdata$??R<lambda_2af78c5f5901b1372d98f9ab3177dfa6>@@QEBAXXZ 000000018003b41c     libucrt:wsetlocale.obj
 0004:00001428       $pdata$__acrt_copy_locale_name 000000018003b428     libucrt:wsetlocale.obj
 0004:00001434       $pdata$__acrt_uninitialize_locale 000000018003b434     libucrt:wsetlocale.obj
 0004:00001440       $pdata$__lc_lctowcs        000000018003b440     libucrt:wsetlocale.obj
 0004:0000144c       $pdata$__lc_wcstolc        000000018003b44c     libucrt:wsetlocale.obj
 0004:00001458       $pdata$_copytlocinfo_nolock 000000018003b458     libucrt:wsetlocale.obj
 0004:00001464       $pdata$_expandlocale       000000018003b464     libucrt:wsetlocale.obj
 0004:00001470       $pdata$_wcscats            000000018003b470     libucrt:wsetlocale.obj
 0004:0000147c       $pdata$_wsetlocale         000000018003b47c     libucrt:wsetlocale.obj
 0004:00001488       $pdata$_wsetlocale_get_all 000000018003b488     libucrt:wsetlocale.obj
 0004:00001494       $pdata$_wsetlocale_nolock  000000018003b494     libucrt:wsetlocale.obj
 0004:000014a0       $pdata$_wsetlocale_set_cat 000000018003b4a0     libucrt:wsetlocale.obj
 0004:000014ac       $pdata$?<helper_func_cdecl>@<lambda_e2bb8337c48846e80c921ea5ddadc92d>@@CAHPEA_W@Z 000000018003b4ac     libucrt:winapi_thunks.obj
 0004:000014b8       $pdata$??$?RV<lambda_630b2aca97f6d20d5b5ea6529ea6b6af>@@AEAV<lambda_af91936f1d075d609f72d9d8cba980af>@@V<lambda_e82fa975f615b5c7c7b0e4d178fdae67>@@@?$__crt_seh_guarded_call@H@@QEAAH$$QEAV<lambda_630b2aca97f6d20d5b5ea6529ea6b6af>@@AEAV<lambda_af91936f1d075d609f72d9d8cba980af>@@$$QEAV<lambda_e82fa975f615b5c7c7b0e4d178fdae67>@@@Z 000000018003b4b8     libucrt:winapi_thunks.obj
 0004:000014c4       $pdata$?try_get_function@@YAPEAXW4function_id@?A0x63058377@@QEBDQEBW4module_id@2@2@Z 000000018003b4c4     libucrt:winapi_thunks.obj
 0004:000014d0       $pdata$__acrt_EnumSystemLocalesEx 000000018003b4d0     libucrt:winapi_thunks.obj
 0004:000014dc       $pdata$__acrt_FlsAlloc     000000018003b4dc     libucrt:winapi_thunks.obj
 0004:000014e8       $pdata$__acrt_FlsFree      000000018003b4e8     libucrt:winapi_thunks.obj
 0004:000014f4       $pdata$__acrt_FlsGetValue  000000018003b4f4     libucrt:winapi_thunks.obj
 0004:00001500       $pdata$__acrt_FlsSetValue  000000018003b500     libucrt:winapi_thunks.obj
 0004:0000150c       $pdata$__acrt_GetLocaleInfoEx 000000018003b50c     libucrt:winapi_thunks.obj
 0004:00001518       $pdata$__acrt_GetUserDefaultLocaleName 000000018003b518     libucrt:winapi_thunks.obj
 0004:00001524       $pdata$__acrt_InitializeCriticalSectionEx 000000018003b524     libucrt:winapi_thunks.obj
 0004:00001530       $pdata$__acrt_IsValidLocaleName 000000018003b530     libucrt:winapi_thunks.obj
 0004:0000153c       $pdata$__acrt_LCIDToLocaleName 000000018003b53c     libucrt:winapi_thunks.obj
 0004:00001548       $pdata$__acrt_LCMapStringEx 000000018003b548     libucrt:winapi_thunks.obj
 0004:00001554       $pdata$__acrt_LocaleNameToLCID 000000018003b554     libucrt:winapi_thunks.obj
 0004:00001560       $pdata$__acrt_can_use_vista_locale_apis 000000018003b560     libucrt:winapi_thunks.obj
 0004:0000156c       $pdata$__acrt_initialize_winapi_thunks 000000018003b56c     libucrt:winapi_thunks.obj
 0004:00001578       $pdata$__acrt_is_packaged_app 000000018003b578     libucrt:winapi_thunks.obj
 0004:00001584       $pdata$__acrt_uninitialize_winapi_thunks 000000018003b584     libucrt:winapi_thunks.obj
 0004:00001590       $pdata$_fcloseall          000000018003b590     libucrt:closeall.obj
 0004:0000159c       $pdata$__acrt_stdio_free_buffer_nolock 000000018003b59c     libucrt:_freebuf.obj
 0004:000015a8       $pdata$?initialize_inherited_file_handles_nolock@@YAXXZ 000000018003b5a8     libucrt:ioinit.obj
 0004:000015b4       $pdata$?initialize_stdio_handles_nolock@@YAXXZ 000000018003b5b4     libucrt:ioinit.obj
 0004:000015c0       $pdata$__acrt_initialize_lowio 000000018003b5c0     libucrt:ioinit.obj
 0004:000015cc       $pdata$__acrt_uninitialize_lowio 000000018003b5cc     libucrt:ioinit.obj
 0004:000015d8       $pdata$??$?RV<lambda_bfedae4ebbf01fab1bb6dcc6a9e276e0>@@AEAV<lambda_2fe9b910cf3cbf4a0ab98a02ba45b3ec>@@V<lambda_237c231691f317818eb88cc1d5d642d6>@@@?$__crt_seh_guarded_call@H@@QEAAH$$QEAV<lambda_bfedae4ebbf01fab1bb6dcc6a9e276e0>@@AEAV<lambda_2fe9b910cf3cbf4a0ab98a02ba45b3ec>@@$$QEAV<lambda_237c231691f317818eb88cc1d5d642d6>@@@Z 000000018003b5d8     libucrt:close.obj
 0004:000015e4       $pdata$_close              000000018003b5e4     libucrt:close.obj
 0004:000015f0       $pdata$_close_nolock       000000018003b5f0     libucrt:close.obj
 0004:000015fc       $pdata$_fileno             000000018003b5fc     libucrt:fileno.obj
 0004:00001608       $pdata$??$?RV<lambda_b521505b218e5242e90febf6bfebc422>@@AEAV<lambda_6978c1fb23f02e42e1d9e99668cc68aa>@@V<lambda_314360699dd331753a4119843814e9a7>@@@?$__crt_seh_guarded_call@H@@QEAAH$$QEAV<lambda_b521505b218e5242e90febf6bfebc422>@@AEAV<lambda_6978c1fb23f02e42e1d9e99668cc68aa>@@$$QEAV<lambda_314360699dd331753a4119843814e9a7>@@@Z 000000018003b608     libucrt:commit.obj
 0004:00001614       $pdata$_commit             000000018003b614     libucrt:commit.obj
 0004:00001620       $pdata$?write_double_translated_ansi_nolock@@YA?AUwrite_result@?A0x9c548279@@HQEBDI@Z 000000018003b620     libucrt:write.obj
 0004:0000162c       $pdata$?write_text_ansi_nolock@@YA?AUwrite_result@?A0x9c548279@@HQEBDI@Z 000000018003b62c     libucrt:write.obj
 0004:00001638       $pdata$?write_text_utf16le_nolock@@YA?AUwrite_result@?A0x9c548279@@HQEBDI@Z 000000018003b638     libucrt:write.obj
 0004:00001644       $pdata$?write_text_utf8_nolock@@YA?AUwrite_result@?A0x9c548279@@HQEBDI@Z 000000018003b644     libucrt:write.obj
 0004:00001650       $pdata$_write              000000018003b650     libucrt:write.obj
 0004:0000165c       $pdata$_write_nolock       000000018003b65c     libucrt:write.obj
 0004:00001668       $pdata$??$common_refill_and_read_nolock@D@@YAHV__crt_stdio_stream@@@Z 000000018003b668     libucrt:_filbuf.obj
 0004:00001674       $pdata$??$common_ftell@_J@@YA_JV__crt_stdio_stream@@@Z 000000018003b674     libucrt:ftell.obj
 0004:00001680       $pdata$??$common_ftell_nolock@_J@@YA_JV__crt_stdio_stream@@@Z 000000018003b680     libucrt:ftell.obj
 0004:0000168c       $pdata$?common_ftell_read_mode_nolock@@YA_JV__crt_stdio_stream@@_J1@Z 000000018003b68c     libucrt:ftell.obj
 0004:00001698       $pdata$?common_ftell_translated_utf8_nolock@@YA_JV__crt_stdio_stream@@_J@Z 000000018003b698     libucrt:ftell.obj
 0004:000016a4       $pdata$??$write_buffer_nolock@D@@YA_NDV__crt_stdio_stream@@@Z 000000018003b6a4     libucrt:_flsbuf.obj
 0004:000016b0       $pdata$__acrt_stdio_flush_and_write_narrow_nolock 000000018003b6b0     libucrt:_flsbuf.obj
 0004:000016bc       $pdata$??$common_lseek@_J@@YA_JH_JH@Z 000000018003b6bc     libucrt:lseek.obj
 0004:000016c8       $pdata$??$common_lseek_nolock@_J@@YA_JH_JH@Z 000000018003b6c8     libucrt:lseek.obj
 0004:000016d4       $pdata$__acrt_stdio_begin_temporary_buffering_nolock 000000018003b6d4     libucrt:_sftbuf.obj
 0004:000016e0       $pdata$__acrt_stdio_end_temporary_buffering_nolock 000000018003b6e0     libucrt:_sftbuf.obj
 0004:000016ec       $pdata$__acrt_stdio_allocate_buffer_nolock 000000018003b6ec     libucrt:_getbuf.obj
 0004:000016f8       $pdata$__acrt_initialize_heap 000000018003b6f8     libucrt:heap_handle.obj
 0004:00001704       $pdata$_isctype_l          000000018003b704     libucrt:isctype.obj
 0004:00001710       $pdata$?InternalGetLocaleInfoA@@YAHQEAU__crt_locale_pointers@@QEB_WKQEADH@Z 000000018003b710     libucrt:getlocaleinfoa.obj
 0004:0000171c       $pdata$__acrt_GetLocaleInfoA 000000018003b71c     libucrt:getlocaleinfoa.obj
 0004:00001728       $pdata$__acrt_GetStringTypeA 000000018003b728     libucrt:getstringtypea.obj
 0004:00001734       $pdata$?__acrt_LCMapStringA_stat@@YAHPEAU__crt_locale_pointers@@PEB_WKPEBDHPEADHHH@Z 000000018003b734     libucrt:lcmapstringa.obj
 0004:00001740       $pdata$__acrt_LCMapStringA 000000018003b740     libucrt:lcmapstringa.obj
 0004:0000174c       $pdata$?_mbstowcs_l_helper@@YA_KPEA_WPEBD_KPEAU__crt_locale_pointers@@@Z 000000018003b74c     libucrt:mbstowcs.obj
 0004:00001758       $pdata$_mbstowcs_s_l       000000018003b758     libucrt:mbstowcs.obj
 0004:00001764       $pdata$mbstowcs_s          000000018003b764     libucrt:mbstowcs.obj
 0004:00001770       $pdata$?_wcstombs_l_helper@@YA_KPEADPEB_W_KPEAU__crt_locale_pointers@@@Z 000000018003b770     libucrt:wcstombs.obj
 0004:0000177c       $pdata$_wcstombs_s_l       000000018003b77c     libucrt:wcstombs.obj
 0004:00001788       $pdata$??$?RV<lambda_c36588078e9f5dfd39652860aa6b3aaf>@@AEAV<lambda_ec61778202f4f5fc7e7711acc23c3bca>@@V<lambda_dc9d2797ccde5d239b4a0efae8ebd7db>@@@?$__crt_seh_guarded_call@P6AXH@Z@@QEAAP6AXH@Z$$QEAV<lambda_c36588078e9f5dfd39652860aa6b3aaf>@@AEAV<lambda_ec61778202f4f5fc7e7711acc23c3bca>@@$$QEAV<lambda_dc9d2797ccde5d239b4a0efae8ebd7db>@@@Z 000000018003b788     libucrt:signal.obj
 0004:00001794       $pdata$__acrt_get_sigabrt_handler 000000018003b794     libucrt:signal.obj
 0004:000017a0       $pdata$raise               000000018003b7a0     libucrt:signal.obj
 0004:000017ac       $pdata$iswctype            000000018003b7ac     libucrt:iswctype.obj
 0004:000017b8       $pdata$_raise_exc          000000018003b7b8     libucrt:fpexcept.obj
 0004:000017c4       $pdata$_raise_exc_ex       000000018003b7c4     libucrt:fpexcept.obj
 0004:000017d0       $pdata$_raise_excf         000000018003b7d0     libucrt:fpexcept.obj
 0004:000017dc       $pdata$_set_errno_from_matherr 000000018003b7dc     libucrt:fpexcept.obj
 0004:000017e8       $pdata$_clrfp              000000018003b7e8     libucrt:fpctrl.obj
 0004:000017f4       $pdata$_ctrlfp             000000018003b7f4     libucrt:fpctrl.obj
 0004:00001800       $pdata$_set_statfp         000000018003b800     libucrt:fpctrl.obj
 0004:0000180c       $pdata$_statfp             000000018003b80c     libucrt:fpctrl.obj
 0004:00001818       $pdata$_mbtowc_l           000000018003b818     libucrt:mbtowc.obj
 0004:00001824       $pdata$__acrt_initialize_fma3 000000018003b824     libucrt:fma3_available.obj
 0004:00001830       $pdata$_pow_special        000000018003b830     libucrt:pow_special.obj
 0004:0000183c       $pdata$_powf_special       000000018003b83c     libucrt:pow_special.obj
 0004:00001848       $pdata$_wcsicmp            000000018003b848     libucrt:wcsicmp.obj
 0004:00001854       $pdata$_wcsicmp_l          000000018003b854     libucrt:wcsicmp.obj
 0004:00001860       $pdata$_isleadbyte_l       000000018003b860     libucrt:_wctype.obj
 0004:0000186c       $pdata$??$common_expand_argv_wildcards@D@@YAHQEAPEADQEAPEAPEAD@Z 000000018003b86c     libucrt:argv_wildcards.obj
 0004:00001878       $pdata$??$copy_and_add_argument_to_buffer@D@@YAHQEBD0_KAEAV?$argument_list@D@?A0xca0879c4@@@Z 000000018003b878     libucrt:argv_wildcards.obj
 0004:00001884       $pdata$??$expand_argument_wildcards@D@@YAHQEAD0AEAV?$argument_list@D@?A0xca0879c4@@@Z 000000018003b884     libucrt:argv_wildcards.obj
 0004:00001890       $pdata$?expand_if_necessary@?$argument_list@D@?A0xca0879c4@@AEAAHXZ 000000018003b890     libucrt:argv_wildcards.obj
 0004:0000189c       $pdata$??$?RV<lambda_99476a1ad63dd22509b5d3e65b0ffc95>@@AEAV<lambda_ad1ced32f4ac17aa236e5ef05d6b3b7c>@@V<lambda_f7424dd8d45958661754dc4f2697e9c3>@@@?$__crt_seh_guarded_call@X@@QEAAX$$QEAV<lambda_99476a1ad63dd22509b5d3e65b0ffc95>@@AEAV<lambda_ad1ced32f4ac17aa236e5ef05d6b3b7c>@@$$QEAV<lambda_f7424dd8d45958661754dc4f2697e9c3>@@@Z 000000018003b89c     libucrt:mbctype.obj
 0004:000018a8       $pdata$??R<lambda_ad1ced32f4ac17aa236e5ef05d6b3b7c>@@QEBAXXZ 000000018003b8a8     libucrt:mbctype.obj
 0004:000018b4       $pdata$?getSystemCP@@YAHH@Z 000000018003b8b4     libucrt:mbctype.obj
 0004:000018c0       $pdata$?setSBCS@@YAXPEAU__crt_multibyte_data@@@Z 000000018003b8c0     libucrt:mbctype.obj
 0004:000018cc       $pdata$?setSBUpLow@@YAXPEAU__crt_multibyte_data@@@Z 000000018003b8cc     libucrt:mbctype.obj
 0004:000018d8       $pdata$?setmbcp_internal@@YAHH_N@Z 000000018003b8d8     libucrt:mbctype.obj
 0004:000018e4       $pdata$__acrt_initialize_multibyte 000000018003b8e4     libucrt:mbctype.obj
 0004:000018f0       $pdata$__acrt_update_thread_multibyte_data 000000018003b8f0     libucrt:mbctype.obj
 0004:000018fc       $pdata$_setmbcp_nolock     000000018003b8fc     libucrt:mbctype.obj
 0004:00001908       $pdata$__acrt_initialize_command_line 000000018003b908     libucrt:argv_data.obj
 0004:00001914       $pdata$__dcrt_get_narrow_environment_from_os 000000018003b914     libucrt:get_environment_from_os.obj
 0004:00001920       $pdata$_recalloc_base      000000018003b920     libucrt:recalloc.obj
 0004:0000192c       $pdata$__acrt_execute_initializers 000000018003b92c     libucrt:shared_initialization.obj
 0004:00001938       $pdata$__acrt_execute_uninitializers 000000018003b938     libucrt:shared_initialization.obj
 0004:00001944       $pdata$__acrt_invoke_user_matherr 000000018003b944     libucrt:matherr.obj
 0004:00001950       $pdata$__acrt_free_locale  000000018003b950     libucrt:locale_refcounting.obj
 0004:0000195c       $pdata$__acrt_locale_free_lc_time_if_unreferenced 000000018003b95c     libucrt:locale_refcounting.obj
 0004:00001968       $pdata$__acrt_release_locale_ref 000000018003b968     libucrt:locale_refcounting.obj
 0004:00001974       $pdata$__acrt_update_thread_locale_data 000000018003b974     libucrt:locale_refcounting.obj
 0004:00001980       $pdata$_updatetlocinfoEx_nolock 000000018003b980     libucrt:locale_refcounting.obj
 0004:0000198c       $pdata$__acrt_locale_free_monetary 000000018003b98c     libucrt:initmon.obj
 0004:00001998       $pdata$__acrt_locale_initialize_monetary 000000018003b998     libucrt:initmon.obj
 0004:000019a4       $pdata$__acrt_locale_free_numeric 000000018003b9a4     libucrt:initnum.obj
 0004:000019b0       $pdata$__acrt_locale_initialize_numeric 000000018003b9b0     libucrt:initnum.obj
 0004:000019bc       $pdata$?free_crt_array_internal@@YAXQEAPEBX_K@Z 000000018003b9bc     libucrt:inittime.obj
 0004:000019c8       $pdata$?initialize_lc_time@@YA_NQEAU__crt_lc_time_data@@QEAU__crt_locale_data@@@Z 000000018003b9c8     libucrt:inittime.obj
 0004:000019d4       $pdata$__acrt_locale_free_time 000000018003b9d4     libucrt:inittime.obj
 0004:000019e0       $pdata$__acrt_locale_initialize_time 000000018003b9e0     libucrt:inittime.obj
 0004:000019ec       $pdata$wcscat_s            000000018003b9ec     libucrt:wcscat_s.obj
 0004:000019f8       $pdata$wcsncpy_s           000000018003b9f8     libucrt:wcsncpy_s.obj
 0004:00001a04       $pdata$GetLocaleNameFromDefault 000000018003ba04     libucrt:get_qualified_locale.obj
 0004:00001a10       $pdata$GetLocaleNameFromLangCountry 000000018003ba10     libucrt:get_qualified_locale.obj
 0004:00001a1c       $pdata$GetLocaleNameFromLanguage 000000018003ba1c     libucrt:get_qualified_locale.obj
 0004:00001a28       $pdata$LangCountryEnumProcEx 000000018003ba28     libucrt:get_qualified_locale.obj
 0004:00001a34       $pdata$LanguageEnumProcEx  000000018003ba34     libucrt:get_qualified_locale.obj
 0004:00001a40       $pdata$ProcessCodePage     000000018003ba40     libucrt:get_qualified_locale.obj
 0004:00001a4c       $pdata$TestDefaultCountry  000000018003ba4c     libucrt:get_qualified_locale.obj
 0004:00001a58       $pdata$TranslateName       000000018003ba58     libucrt:get_qualified_locale.obj
 0004:00001a64       $pdata$__acrt_get_qualified_locale 000000018003ba64     libucrt:get_qualified_locale.obj
 0004:00001a70       $pdata$CountryEnumProc     000000018003ba70     libucrt:getqloc_downlevel.obj
 0004:00001a7c       $pdata$GetLcidFromLangCountry 000000018003ba7c     libucrt:getqloc_downlevel.obj
 0004:00001a88       $pdata$GetLcidFromLanguage 000000018003ba88     libucrt:getqloc_downlevel.obj
 0004:00001a94       $pdata$LangCountryEnumProc 000000018003ba94     libucrt:getqloc_downlevel.obj
 0004:00001aa0       $pdata$LanguageEnumProc    000000018003baa0     libucrt:getqloc_downlevel.obj
 0004:00001aac       $pdata$ProcessCodePage     000000018003baac     libucrt:getqloc_downlevel.obj
 0004:00001ab8       $pdata$TestDefaultLanguage 000000018003bab8     libucrt:getqloc_downlevel.obj
 0004:00001ac4       $pdata$TranslateName       000000018003bac4     libucrt:getqloc_downlevel.obj
 0004:00001ad0       $pdata$__acrt_get_qualified_locale_downlevel 000000018003bad0     libucrt:getqloc_downlevel.obj
 0004:00001adc       $pdata$?GetTableIndexFromLocaleName@@YAHPEB_W@Z 000000018003badc     libucrt:lcidtoname_downlevel.obj
 0004:00001ae8       $pdata$__acrt_DownlevelLCIDToLocaleName 000000018003bae8     libucrt:lcidtoname_downlevel.obj
 0004:00001af4       $pdata$__acrt_DownlevelLocaleNameToLCID 000000018003baf4     libucrt:lcidtoname_downlevel.obj
 0004:00001b00       $pdata$__acrt_lowio_create_handle_array 000000018003bb00     libucrt:osfinfo.obj
 0004:00001b0c       $pdata$__acrt_lowio_destroy_handle_array 000000018003bb0c     libucrt:osfinfo.obj
 0004:00001b18       $pdata$__acrt_lowio_ensure_fh_exists 000000018003bb18     libucrt:osfinfo.obj
 0004:00001b24       $pdata$_free_osfhnd        000000018003bb24     libucrt:osfinfo.obj
 0004:00001b30       $pdata$_get_osfhandle      000000018003bb30     libucrt:osfinfo.obj
 0004:00001b3c       $pdata$_isatty             000000018003bb3c     libucrt:isatty.obj
 0004:00001b48       $pdata$_putwch_nolock      000000018003bb48     libucrt:putwch.obj
 0004:00001b54       $pdata$??$translate_text_mode_nolock@_W@@YAHHQEA_W_K@Z 000000018003bb54     libucrt:read.obj
 0004:00001b60       $pdata$?translate_ansi_or_utf8_nolock@@YAHHQEAD_KQEA_W1@Z 000000018003bb60     libucrt:read.obj
 0004:00001b6c       $pdata$_read               000000018003bb6c     libucrt:read.obj
 0004:00001b78       $pdata$_read_nolock        000000018003bb78     libucrt:read.obj
 0004:00001b84       $pdata$strncpy_s           000000018003bb84     libucrt:strncpy_s.obj
 0004:00001b9c       $pdata$_call_matherr       000000018003bb9c     libucrt:libm_error.obj
 0004:00001ba8       $pdata$_exception_enabled  000000018003bba8     libucrt:libm_error.obj
 0004:00001bb4       $pdata$_handle_error       000000018003bbb4     libucrt:libm_error.obj
 0004:00001bc0       $pdata$_handle_errorf      000000018003bbc0     libucrt:libm_error.obj
 0004:00001bcc       $pdata$_towlower_l         000000018003bbcc     libucrt:towlower.obj
 0004:00001bd8       $pdata$?shortsort@@YAXPEAD0_KP6AHPEBX2@Z@Z 000000018003bbd8     libucrt:qsort.obj
 0004:00001be4       $pdata$2$?shortsort@@YAXPEAD0_KP6AHPEBX2@Z@Z 000000018003bbe4     libucrt:qsort.obj
 0004:00001bf0       $pdata$3$?shortsort@@YAXPEAD0_KP6AHPEBX2@Z@Z 000000018003bbf0     libucrt:qsort.obj
 0004:00001bfc       $pdata$qsort               000000018003bbfc     libucrt:qsort.obj
 0004:00001c08       $pdata$4$qsort             000000018003bc08     libucrt:qsort.obj
 0004:00001c14       $pdata$5$qsort             000000018003bc14     libucrt:qsort.obj
 0004:00001c20       $pdata$strpbrk             000000018003bc20     libucrt:strpbrk.obj
 0004:00001c2c       $pdata$_mbsdec_l           000000018003bc2c     libucrt:mbsdec.obj
 0004:00001c38       $pdata$?initialize_multibyte@@YAHXZ 000000018003bc38     libucrt:multibyte_initializer.obj
 0004:00001c44       $pdata$_msize              000000018003bc44     libucrt:msize.obj
 0004:00001c50       $pdata$??$common_xtox@K_W@@YAHKQEA_W_KI_N@Z 000000018003bc50     libucrt:xtoa.obj
 0004:00001c5c       $pdata$??$common_xtox_s@K_W@@YAHKQEA_W_KI_N@Z 000000018003bc5c     libucrt:xtoa.obj
 0004:00001c68       $pdata$_itow_s             000000018003bc68     libucrt:xtoa.obj
 0004:00001c74       $pdata$_wcsnicmp           000000018003bc74     libucrt:wcsnicmp.obj
 0004:00001c80       $pdata$_wcsnicmp_l         000000018003bc80     libucrt:wcsnicmp.obj
 0004:00001c8c       $pdata$__dcrt_lowio_initialize_console_output 000000018003bc8c     libucrt:initcon.obj
 0004:00001c98       $pdata$__dcrt_terminate_console_output 000000018003bc98     libucrt:initcon.obj
 0004:00001cb0       $pdata$__acrt_LCMapStringW 000000018003bcb0     libucrt:lcmapstringw.obj
 0004:00001cbc       $pdata$_log10_special      000000018003bcbc     libucrt:log_special.obj
 0004:00001cc8       $pdata$_log_special_common 000000018003bcc8     libucrt:log_special.obj
 0004:00001cd4       $pdata$?DloadAcquireSectionWriteAccess@@YAXXZ 000000018003bcd4     DelayImp:delayhlp.obj
 0004:00001ce0       $pdata$?DloadGetSRWLockFunctionPointers@@YAEXZ 000000018003bce0     DelayImp:delayhlp.obj
 0004:00001cec       $pdata$?DloadMakePermanentImageCommit@@YAXPEAX_K@Z 000000018003bcec     DelayImp:delayhlp.obj
 0004:00001cf8       $pdata$?DloadObtainSection@@YAPEAXPEAK0@Z 000000018003bcf8     DelayImp:delayhlp.obj
 0004:00001d04       $pdata$?DloadProtectSection@@YAXKPEAK@Z 000000018003bd04     DelayImp:delayhlp.obj
 0004:00001d10       $pdata$?DloadReleaseSectionWriteAccess@@YAXXZ 000000018003bd10     DelayImp:delayhlp.obj
 0004:00001d1c       $pdata$__delayLoadHelper2  000000018003bd1c     DelayImp:delayhlp.obj
 0004:00001d28       $pdata$_IsNonwritableInCurrentImage 000000018003bd28     LIBCMT:pesect.obj
 0004:00001d34       $pdata$wcschr              000000018003bd34     libvcruntime:wcschr.obj
 0004:00001d4c       $pdata$?dtor$0@?0???0?$basic_ostream@DU?$char_traits@D@std@@@std@@QEAA@PEAV?$basic_streambuf@DU?$char_traits@D@std@@@1@_N@Z@4HA 000000018003bd4c     libcpmt:cout.obj
 0004:00001d58       $pdata$?dtor$0@?0??_Getcat@?$codecvt@DDU_Mbstatet@@@std@@SA_KPEAPEBVfacet@locale@2@PEBV42@@Z@4HA 000000018003bd58     libcpmt:cout.obj
 0004:00001d64       $pdata$?dtor$0@?0??_Getcat@?$ctype@D@std@@SA_KPEAPEBVfacet@locale@2@PEBV42@@Z@4HA 000000018003bd64     libcpmt:cout.obj
 0004:00001d70       $pdata$__scrt_is_nonwritable_in_current_image$filt$0 000000018003bd70     LIBCMT:utility.obj
 0004:00001d7c       $pdata$?fin$0@?0??dllmain_crt_process_attach@@YAHQEAUHINSTANCE__@@QEAX@Z@4HA 000000018003bd7c     LIBCMT:dll_dllmain.obj
 0004:00001d88       $pdata$?fin$0@?0??dllmain_crt_process_detach@@YAH_N@Z@4HA 000000018003bd88     LIBCMT:dll_dllmain.obj
 0004:00001d94       $pdata$?filt$0@?0??dllmain_dispatch@@YAHQEAUHINSTANCE__@@KQEAX@Z@4HA 000000018003bd94     LIBCMT:dll_dllmain.obj
 0004:00001da0       $pdata$__CxxCallCatchBlock$filt$0 000000018003bda0     libvcruntime:frame.obj
 0004:00001dac       $pdata$__CxxCallCatchBlock$fin$1 000000018003bdac     libvcruntime:frame.obj
 0004:00001db8       $pdata$__DestructExceptionObject$filt$0 000000018003bdb8     libvcruntime:frame.obj
 0004:00001dc4       $pdata$__FrameUnwindToState$filt$0 000000018003bdc4     libvcruntime:frame.obj
 0004:00001dd0       $pdata$__FrameUnwindToState$fin$1 000000018003bdd0     libvcruntime:frame.obj
 0004:00001ddc       $pdata$_CallSETranslator$filt$0 000000018003bddc     libvcruntime:trnsctrl.obj
 0004:00001de8       $pdata$common_flush_all$fin$0 000000018003bde8     libucrt:fflush.obj
 0004:00001df4       $pdata$common_flush_all$fin$1 000000018003bdf4     libucrt:fflush.obj
 0004:00001e00       $pdata$fflush$fin$0        000000018003be00     libucrt:fflush.obj
 0004:00001e00       $pdata$fclose$fin$0        000000018003be00     libucrt:fclose.obj
 0004:00001e0c       $pdata$fgetc$fin$0         000000018003be0c     libucrt:fgetc.obj
 0004:00001e18       $pdata$fputc$fin$0         000000018003be18     libucrt:fputc.obj
 0004:00001e24       $pdata$?fin$0@?0???$common_ftell@_J@@YA_JV__crt_stdio_stream@@@Z@4HA 000000018003be24     libucrt:ftell.obj
 0004:00001e24       $pdata$?fin$0@?0??common_fseek@@YAHV__crt_stdio_stream@@_JH@Z@4HA 000000018003be24     libucrt:fseek.obj
 0004:00001e30       $pdata$?fin$0@?0???$?RV<lambda_5d4c3fee44080f75d5d9762853974fe0>@@AEAV<lambda_532e024f4337e6fc7ad266c2bef9f4ed>@@V<lambda_c87bdc10097eb2402edb8ba9bdf0697b>@@@?$__crt_seh_guarded_call@_K@@QEAA_K$$QEAV<lambda_5d4c3fee44080f75d5d9762853974fe0>@@AEAV<lambda_532e024f4337e6fc7ad266c2bef9f4ed>@@$$QEAV<lambda_c87bdc10097eb2402edb8ba9bdf0697b>@@@Z@4HA 000000018003be30     libucrt:fwrite.obj
 0004:00001e30       $pdata$?fin$0@?0???$?RV<lambda_7a5ef57ff966f610505f1d28a3d40618>@@AEAV<lambda_b721fa326cdb32351d23dfa67958c160>@@V<lambda_5e0fb27672408a07956fe59e48ccb2aa>@@@?$__crt_seh_guarded_call@H@@QEAAH$$QEAV<lambda_7a5ef57ff966f610505f1d28a3d40618>@@AEAV<lambda_b721fa326cdb32351d23dfa67958c160>@@$$QEAV<lambda_5e0fb27672408a07956fe59e48ccb2aa>@@@Z@4HA 000000018003be30     libucrt:setvbuf.obj
 0004:00001e3c       $pdata$ungetc$fin$0        000000018003be3c     libucrt:ungetc.obj
 0004:00001e48       $pdata$setlocale$fin$0     000000018003be48     libucrt:setlocale.obj
 0004:00001e54       $pdata$_query_new_handler$fin$0 000000018003be54     libucrt:new_handler.obj
 0004:00001e60       $pdata$?filt$0@?0??common_exit@@YAXHW4_crt_exit_cleanup_mode@@W4_crt_exit_return_mode@@@Z@4HA 000000018003be60     libucrt:exit.obj
 0004:00001e6c       $pdata$?fin$1@?0??common_exit@@YAXHW4_crt_exit_cleanup_mode@@W4_crt_exit_return_mode@@@Z@4HA 000000018003be6c     libucrt:exit.obj
 0004:00001e78       $pdata$?fin$0@?0???$?RV<lambda_e24bbb7b643b32fcea6fa61b31d4c984>@@AEAV<lambda_275893d493268fdec8709772e3fcec0e>@@V<lambda_9d71df4d7cf3f480f8d633942495c3b0>@@@?$__crt_seh_guarded_call@H@@QEAAH$$QEAV<lambda_e24bbb7b643b32fcea6fa61b31d4c984>@@AEAV<lambda_275893d493268fdec8709772e3fcec0e>@@$$QEAV<lambda_9d71df4d7cf3f480f8d633942495c3b0>@@@Z@4HA 000000018003be78     libucrt:onexit.obj
 0004:00001e84       $pdata$?fin$0@?0???$?RV<lambda_c36588078e9f5dfd39652860aa6b3aaf>@@AEAV<lambda_ec61778202f4f5fc7e7711acc23c3bca>@@V<lambda_dc9d2797ccde5d239b4a0efae8ebd7db>@@@?$__crt_seh_guarded_call@P6AXH@Z@@QEAAP6AXH@Z$$QEAV<lambda_c36588078e9f5dfd39652860aa6b3aaf>@@AEAV<lambda_ec61778202f4f5fc7e7711acc23c3bca>@@$$QEAV<lambda_dc9d2797ccde5d239b4a0efae8ebd7db>@@@Z@4HA 000000018003be84     libucrt:signal.obj
 0004:00001e84       $pdata$?fin$0@?0???$?RV<lambda_5e887d1dcbef67a5eb4283622ba103bf>@@AEAV<lambda_4466841279450cc726390878d4a41900>@@V<lambda_341c25c0346d94847f1f3c463c57e077>@@@?$__crt_seh_guarded_call@X@@QEAAX$$QEAV<lambda_5e887d1dcbef67a5eb4283622ba103bf>@@AEAV<lambda_4466841279450cc726390878d4a41900>@@$$QEAV<lambda_341c25c0346d94847f1f3c463c57e077>@@@Z@4HA 000000018003be84     libucrt:per_thread_data.obj
 0004:00001e84       $pdata$?fin$0@?0???$?RV<lambda_d67e8342c384adda8f857579ab50b2ae>@@AEAV<lambda_30712929f77e709619002f448b6a9510>@@V<lambda_4525336fd7e478d965fb7ca7a337cad8>@@@?$__crt_seh_guarded_call@X@@QEAAX$$QEAV<lambda_d67e8342c384adda8f857579ab50b2ae>@@AEAV<lambda_30712929f77e709619002f448b6a9510>@@$$QEAV<lambda_4525336fd7e478d965fb7ca7a337cad8>@@@Z@4HA 000000018003be84     libucrt:wsetlocale.obj
 0004:00001e84       $pdata$?fin$0@?0???$?RV<lambda_99476a1ad63dd22509b5d3e65b0ffc95>@@AEAV<lambda_ad1ced32f4ac17aa236e5ef05d6b3b7c>@@V<lambda_f7424dd8d45958661754dc4f2697e9c3>@@@?$__crt_seh_guarded_call@X@@QEAAX$$QEAV<lambda_99476a1ad63dd22509b5d3e65b0ffc95>@@AEAV<lambda_ad1ced32f4ac17aa236e5ef05d6b3b7c>@@$$QEAV<lambda_f7424dd8d45958661754dc4f2697e9c3>@@@Z@4HA 000000018003be84     libucrt:mbctype.obj
 0004:00001e84       $pdata$?fin$0@?0???$?RV<lambda_46352004c1216016012b18bd6f87e700>@@AEAV<lambda_3bd07e1a1191394380780325891bf33f>@@V<lambda_334532d3f185bcaa59b5be82d7d22bff>@@@?$__crt_seh_guarded_call@X@@QEAAX$$QEAV<lambda_46352004c1216016012b18bd6f87e700>@@AEAV<lambda_3bd07e1a1191394380780325891bf33f>@@$$QEAV<lambda_334532d3f185bcaa59b5be82d7d22bff>@@@Z@4HA 000000018003be84     libucrt:per_thread_data.obj
 0004:00001e84       $pdata$?fin$0@?0???$?RV<lambda_fb3a7dec4e47f37f22dae91bb15c9095>@@AEAV<lambda_698284760c8add0bfb0756c19673e34b>@@V<lambda_dfb8eca1e75fef3034a8fb18dd509707>@@@?$__crt_seh_guarded_call@X@@QEAAX$$QEAV<lambda_fb3a7dec4e47f37f22dae91bb15c9095>@@AEAV<lambda_698284760c8add0bfb0756c19673e34b>@@$$QEAV<lambda_dfb8eca1e75fef3034a8fb18dd509707>@@@Z@4HA 000000018003be84     libucrt:per_thread_data.obj
 0004:00001e84       $pdata$?fin$0@?0???$?RV<lambda_630b2aca97f6d20d5b5ea6529ea6b6af>@@AEAV<lambda_af91936f1d075d609f72d9d8cba980af>@@V<lambda_e82fa975f615b5c7c7b0e4d178fdae67>@@@?$__crt_seh_guarded_call@H@@QEAAH$$QEAV<lambda_630b2aca97f6d20d5b5ea6529ea6b6af>@@AEAV<lambda_af91936f1d075d609f72d9d8cba980af>@@$$QEAV<lambda_e82fa975f615b5c7c7b0e4d178fdae67>@@@Z@4HA 000000018003be84     libucrt:winapi_thunks.obj
 0004:00001e84       $pdata$?fin$0@?0???$?RV<lambda_b8c45f8f788dd370798f47cfe8ac3a86>@@AEAV<lambda_4e60a939b0d047cfe11ddc22648dfba9>@@V<lambda_332c3edc96d0294ec56c57d38c1cdfd5>@@@?$__crt_seh_guarded_call@H@@QEAAH$$QEAV<lambda_b8c45f8f788dd370798f47cfe8ac3a86>@@AEAV<lambda_4e60a939b0d047cfe11ddc22648dfba9>@@$$QEAV<lambda_332c3edc96d0294ec56c57d38c1cdfd5>@@@Z@4HA 000000018003be84     libucrt:onexit.obj
 0004:00001e84       $pdata$?fin$0@?0???$?RV<lambda_72d1df2b273a38828b1ce30cbf4cdab5>@@AEAV<lambda_876a65b173b8412d3a47c70a915b0cf4>@@V<lambda_41932305e351933ebe8f8be3ed8bb5dc>@@@?$__crt_seh_guarded_call@X@@QEAAX$$QEAV<lambda_72d1df2b273a38828b1ce30cbf4cdab5>@@AEAV<lambda_876a65b173b8412d3a47c70a915b0cf4>@@$$QEAV<lambda_41932305e351933ebe8f8be3ed8bb5dc>@@@Z@4HA 000000018003be84     libucrt:per_thread_data.obj
 0004:00001e90       $pdata$?fin$0@?0???$?RV<lambda_5df02c53a8f32f81fd64e5bbb78039f1>@@AEAV<lambda_2af78c5f5901b1372d98f9ab3177dfa6>@@AEAV<lambda_f51fe5fd7c79a33db34fc9310f277369>@@@?$__crt_seh_guarded_call@X@@QEAAX$$QEAV<lambda_5df02c53a8f32f81fd64e5bbb78039f1>@@AEAV<lambda_2af78c5f5901b1372d98f9ab3177dfa6>@@AEAV<lambda_f51fe5fd7c79a33db34fc9310f277369>@@@Z@4HA 000000018003be90     libucrt:wsetlocale.obj
 0004:00001e9c       $pdata$__acrt_uninitialize_locale$fin$0 000000018003be9c     libucrt:wsetlocale.obj
 0004:00001e9c       $pdata$__acrt_update_thread_locale_data$fin$0 000000018003be9c     libucrt:locale_refcounting.obj
 0004:00001ea8       $pdata$_fcloseall$fin$0    000000018003bea8     libucrt:closeall.obj
 0004:00001eb4       $pdata$?fin$0@?0???$?RV<lambda_b521505b218e5242e90febf6bfebc422>@@AEAV<lambda_6978c1fb23f02e42e1d9e99668cc68aa>@@V<lambda_314360699dd331753a4119843814e9a7>@@@?$__crt_seh_guarded_call@H@@QEAAH$$QEAV<lambda_b521505b218e5242e90febf6bfebc422>@@AEAV<lambda_6978c1fb23f02e42e1d9e99668cc68aa>@@$$QEAV<lambda_314360699dd331753a4119843814e9a7>@@@Z@4HA 000000018003beb4     libucrt:commit.obj
 0004:00001eb4       $pdata$?fin$0@?0???$?RV<lambda_bfedae4ebbf01fab1bb6dcc6a9e276e0>@@AEAV<lambda_2fe9b910cf3cbf4a0ab98a02ba45b3ec>@@V<lambda_237c231691f317818eb88cc1d5d642d6>@@@?$__crt_seh_guarded_call@H@@QEAAH$$QEAV<lambda_bfedae4ebbf01fab1bb6dcc6a9e276e0>@@AEAV<lambda_2fe9b910cf3cbf4a0ab98a02ba45b3ec>@@$$QEAV<lambda_237c231691f317818eb88cc1d5d642d6>@@@Z@4HA 000000018003beb4     libucrt:close.obj
 0004:00001ec0       $pdata$raise$fin$0         000000018003bec0     libucrt:signal.obj
 0004:00001ecc       $pdata$_ctrlfp$filt$0      000000018003becc     libucrt:fpctrl.obj
 0004:00001ed8       $pdata$__acrt_update_thread_multibyte_data$fin$0 000000018003bed8     libucrt:mbctype.obj
 0004:00001ee4       $pdata$__acrt_lowio_ensure_fh_exists$fin$0 000000018003bee4     libucrt:osfinfo.obj
 0004:00001ee4       $pdata$__acrt_initialize_lowio$fin$0 000000018003bee4     libucrt:ioinit.obj
 0004:00001ef0       $pdata$_write$fin$0        000000018003bef0     libucrt:write.obj
 0004:00001ef0       $pdata$?fin$0@?0???$common_lseek@_J@@YA_JH_JH@Z@4HA 000000018003bef0     libucrt:lseek.obj
 0004:00001ef0       $pdata$_read$fin$0         000000018003bef0     libucrt:read.obj
 0004:00001efc       $pdata$_IsNonwritableInCurrentImage$filt$0 000000018003befc     LIBCMT:pesect.obj
 0004:00001f08       $pdata$??__Froot@@YAXXZ    000000018003bf08     familyTree.obj
 0004:00001f14       $pdata$0$??__Froot@@YAXXZ  000000018003bf14     familyTree.obj
 0004:00001f20       $pdata$1$??__Froot@@YAXXZ  000000018003bf20     familyTree.obj
 0004:00001f2c       $pdata$??__Fcout@std@@YAXXZ 000000018003bf2c     libcpmt:cout.obj
 0004:00001f38       $pdata$??__F_Fac_tidy_reg@std@@YAXXZ 000000018003bf38     libcpmt:locale0.obj
 0004:00001f44       $pdata$??__Fclassic_locale@std@@YAXXZ 000000018003bf44     libcpmt:locale0.obj
 0004:00001f50       $pdata$??__Finit_atexit@@YAXXZ 000000018003bf50     libcpmt:iosptrs.obj
 0005:00000000       __guard_fids__             000000018003c000     libucrt:initialization.obj
 0005:00000060       __guard_fids___acrt_initialize_ptd 000000018003c060     libucrt:per_thread_data.obj
 0005:00000064       __guard_fids__             000000018003c064     libucrt:wsetlocale.obj
 0005:0000007c       __guard_fids__             000000018003c07c     libucrt:stdio_initializer.obj
 0005:00000080       __guard_fids__             000000018003c080     libucrt:stdio_initializer.obj
 0005:00000084       __guard_fids_??$?RV<lambda_630b2aca97f6d20d5b5ea6529ea6b6af>@@AEAV<lambda_af91936f1d075d609f72d9d8cba980af>@@V<lambda_e82fa975f615b5c7c7b0e4d178fdae67>@@@?$__crt_seh_guarded_call@H@@QEAAH$$QEAV<lambda_630b2aca97f6d20d5b5ea6529ea6b6af>@@AEAV<lambda_af91936f1d075d609f72d9d8cba980af>@@$$QEAV<lambda_e82fa975f615b5c7c7b0e4d178fdae67>@@@Z 000000018003c084     libucrt:winapi_thunks.obj
 0005:00000088       __guard_fids_??$expand_argument_wildcards@D@@YAHQEAD0AEAV?$argument_list@D@?A0xca0879c4@@@Z 000000018003c088     libucrt:argv_wildcards.obj
 0005:0000008c       __guard_fids__             000000018003c08c     libucrt:locale_initializer.obj
 0005:00000090       __guard_fids_GetLocaleNameFromLangCountry 000000018003c090     libucrt:get_qualified_locale.obj
 0005:00000094       __guard_fids_GetLocaleNameFromLanguage 000000018003c094     libucrt:get_qualified_locale.obj
 0005:00000098       __guard_fids___acrt_get_qualified_locale_downlevel 000000018003c098     libucrt:getqloc_downlevel.obj
 0005:0000009c       __guard_fids_GetLcidFromLangCountry 000000018003c09c     libucrt:getqloc_downlevel.obj
 0005:000000a0       __guard_fids_GetLcidFromLanguage 000000018003c0a0     libucrt:getqloc_downlevel.obj
 0005:000000a4       __guard_fids__             000000018003c0a4     libucrt:fma3_initializer.obj
 0005:000000a8       __guard_fids__             000000018003c0a8     libucrt:timeset_initializer.obj
 0005:000000ac       __guard_fids__             000000018003c0ac     libucrt:multibyte_initializer.obj
 0005:000000b0       __guard_fids__             000000018003c0b0     libucrt:console_output_initializer.obj
 0005:000000b4       __guard_fids_??__Einitlocks@@YAXXZ 000000018003c0b4     libcpmt:cout.obj
 0005:000000b8       __guard_fids_??__Efout@std@@YAXXZ 000000018003c0b8     libcpmt:cout.obj
 0005:000000bc       __guard_fids_??__Ecout@std@@YAXXZ 000000018003c0bc     libcpmt:cout.obj
 0005:000000c0       __guard_fids__             000000018003c0c0     libcpmt:cout.obj
 0005:000000c8       __guard_fids__             000000018003c0c8     libcpmt:cout.obj
 0005:000000d0       __guard_fids__             000000018003c0d0     libcpmt:cout.obj
 0005:000000d8       __guard_fids__             000000018003c0d8     libcpmt:cout.obj
 0005:000000e4       __guard_fids__             000000018003c0e4     libcpmt:cout.obj
 0005:00000110       __guard_fids__             000000018003c110     libcpmt:cout.obj
 0005:00000128       __guard_fids__             000000018003c128     libcpmt:cout.obj
 0005:00000130       __guard_fids__             000000018003c130     libcpmt:cout.obj
 0005:00000148       __guard_fids__             000000018003c148     libcpmt:cout.obj
 0005:00000150       __guard_fids__             000000018003c150     libcpmt:cout.obj
 0005:00000154       __guard_fids__             000000018003c154     libcpmt:cout.obj
 0005:00000190       __guard_fids__             000000018003c190     libcpmt:cout.obj
 0005:000001cc       __guard_fids__             000000018003c1cc     libcpmt:cout.obj
 0005:000001d0       __guard_fids__             000000018003c1d0     libcpmt:cout.obj
 0005:000001d4       __guard_fids__             000000018003c1d4     libcpmt:cout.obj
 0005:000001fc       __guard_fids__             000000018003c1fc     libcpmt:cout.obj
 0005:00000200       __guard_fids__             000000018003c200     libcpmt:cout.obj
 0005:00000204       __guard_fids__             000000018003c204     libcpmt:cout.obj
 0005:00000208       __guard_fids__             000000018003c208     libcpmt:cout.obj
 0005:0000020c       __guard_fids__             000000018003c20c     libcpmt:xthrow.obj
 0005:00000214       __guard_fids__             000000018003c214     libcpmt:xthrow.obj
 0005:0000021c       __guard_fids__             000000018003c21c     libcpmt:xthrow.obj
 0005:00000224       __guard_fids__             000000018003c224     libcpmt:xthrow.obj
 0005:0000022c       __guard_fids_??__Einitlocks@std@@YAXXZ 000000018003c22c     libcpmt:xlock.obj
 0005:00000230       __guard_fids__             000000018003c230     libcpmt:xlock.obj
 0005:00000234       __guard_fids_??__E_Fac_tidy_reg@std@@YAXXZ 000000018003c234     libcpmt:locale0.obj
 0005:00000238       __guard_fids_?_Setgloballocale@locale@std@@CAXPEAX@Z 000000018003c238     libcpmt:locale0.obj
 0005:0000023c       __guard_fids_??__Eclassic_locale@std@@YAXXZ 000000018003c23c     libcpmt:locale0.obj
 0005:00000240       __guard_fids__             000000018003c240     libcpmt:locale0.obj
 0005:0000024c       __guard_fids__             000000018003c24c     libcpmt:locale0.obj
 0005:00000250       __guard_fids__             000000018003c250     libcpmt:locale0.obj
 0005:00000254       __guard_fids_??__Einitlocks@std@@YAXXZ 000000018003c254     libcpmt:iosptrs.obj
 0005:00000258       __guard_fids_??__Einit_atexit@@YAXXZ 000000018003c258     libcpmt:iosptrs.obj
 0005:0000025c       __guard_fids__             000000018003c25c     libcpmt:iosptrs.obj
 0005:00000260       __guard_fids__             000000018003c260     libcpmt:iosptrs.obj
 0005:00000264       __guard_fids__             000000018003c264     libcpmt:winapisupp.obj
 0005:00000268       __guard_fids__             000000018003c268     LIBCMT:thread_safe_statics.obj
 0005:0000026c       __guard_fids_?__scrt_initialize_thread_safe_statics@@YAHXZ 000000018003c26c     LIBCMT:thread_safe_statics.obj
 0005:00000270       __guard_fids_?dllmain_crt_process_attach@@YAHQEAUHINSTANCE__@@QEAX@Z 000000018003c270     LIBCMT:dll_dllmain.obj
 0005:00000278       __guard_fids_?dllmain_dispatch@@YAHQEAUHINSTANCE__@@KQEAX@Z 000000018003c278     LIBCMT:dll_dllmain.obj
 0005:0000027c       __guard_fids__             000000018003c27c     LIBCMT:std_type_info_static.obj
 0005:00000280       __guard_fids__             000000018003c280     LIBCMT:throw_bad_alloc.obj
 0005:00000288       __guard_fids__             000000018003c288     LIBCMT:guard_support.obj
 0005:0000028c       __guard_fids__             000000018003c28c     libvcruntime:frame.obj
 0005:00000290       __guard_fids__             000000018003c290     libvcruntime:frame.obj
 0005:00000298       __guard_fids__UnwindNestedFrames 000000018003c298     libvcruntime:trnsctrl.obj
 0005:0000029c       __guard_fids___vcrt_initialize_ptd 000000018003c29c     libvcruntime:per_thread_data.obj
 0007:00000060       $R000000                   000000018003e060     * linker generated manifest res *

 Exports

  ordinal    name

        1    _register_familyTree_
